
asteroids.elf:     file format elf32-littlearm

Sections:
Idx Name          Size      VMA       LMA       File off  Algn
  0 .boot2        00000100  10000000  10000000  00010000  2**0
                  CONTENTS, ALLOC, LOAD, READONLY, CODE
  1 .text         000075e0  10000100  10000100  00010100  2**3
                  CONTENTS, ALLOC, LOAD, READONLY, CODE
  2 .rodata       000008e8  100076e0  100076e0  000176e0  2**3
                  CONTENTS, ALLOC, LOAD, READONLY, DATA
  3 .binary_info  00000024  10007fc8  10007fc8  00017fc8  2**2
                  CONTENTS, ALLOC, LOAD, DATA
  4 .ram_vector_table 000000c0  20000000  20000000  000206d4  2**2
                  CONTENTS
  5 .data         00000614  200000c0  10007fec  000200c0  2**4
                  CONTENTS, ALLOC, LOAD, CODE
  6 .uninitialized_data 00000000  200006d4  200006d4  00020794  2**0
                  CONTENTS
  7 .scratch_x    00000000  20040000  20040000  00020794  2**0
                  CONTENTS
  8 .scratch_y    00000000  20041000  20041000  00020794  2**0
                  CONTENTS
  9 .bss          00003440  200006d8  200006d8  000206d8  2**3
                  ALLOC
 10 .heap         00000800  20003b18  20003b18  00020794  2**2
                  CONTENTS, READONLY
 11 .stack_dummy  00000800  20041000  20041000  00020fa0  2**5
                  CONTENTS, READONLY
 12 .ARM.attributes 00000028  00000000  00000000  000217a0  2**0
                  CONTENTS, READONLY
 13 .comment      00000079  00000000  00000000  000217c8  2**0
                  CONTENTS, READONLY
 14 .debug_frame  00000060  00000000  00000000  00021844  2**2
                  CONTENTS, READONLY, DEBUGGING

asteroids.elf:     file format elf32-littlearm


Disassembly of section .boot2:

10000000 <__boot2_start__>:
10000000:	4b32b500 	.word	0x4b32b500
10000004:	60582021 	.word	0x60582021
10000008:	21026898 	.word	0x21026898
1000000c:	60984388 	.word	0x60984388
10000010:	611860d8 	.word	0x611860d8
10000014:	4b2e6158 	.word	0x4b2e6158
10000018:	60992100 	.word	0x60992100
1000001c:	61592102 	.word	0x61592102
10000020:	22f02101 	.word	0x22f02101
10000024:	492b5099 	.word	0x492b5099
10000028:	21016019 	.word	0x21016019
1000002c:	20356099 	.word	0x20356099
10000030:	f844f000 	.word	0xf844f000
10000034:	42902202 	.word	0x42902202
10000038:	2106d014 	.word	0x2106d014
1000003c:	f0006619 	.word	0xf0006619
10000040:	6e19f834 	.word	0x6e19f834
10000044:	66192101 	.word	0x66192101
10000048:	66182000 	.word	0x66182000
1000004c:	f000661a 	.word	0xf000661a
10000050:	6e19f82c 	.word	0x6e19f82c
10000054:	6e196e19 	.word	0x6e196e19
10000058:	f0002005 	.word	0xf0002005
1000005c:	2101f82f 	.word	0x2101f82f
10000060:	d1f94208 	.word	0xd1f94208
10000064:	60992100 	.word	0x60992100
10000068:	6019491b 	.word	0x6019491b
1000006c:	60592100 	.word	0x60592100
10000070:	481b491a 	.word	0x481b491a
10000074:	21016001 	.word	0x21016001
10000078:	21eb6099 	.word	0x21eb6099
1000007c:	21a06619 	.word	0x21a06619
10000080:	f0006619 	.word	0xf0006619
10000084:	2100f812 	.word	0x2100f812
10000088:	49166099 	.word	0x49166099
1000008c:	60014814 	.word	0x60014814
10000090:	60992101 	.word	0x60992101
10000094:	2800bc01 	.word	0x2800bc01
10000098:	4700d000 	.word	0x4700d000
1000009c:	49134812 	.word	0x49134812
100000a0:	c8036008 	.word	0xc8036008
100000a4:	8808f380 	.word	0x8808f380
100000a8:	b5034708 	.word	0xb5034708
100000ac:	20046a99 	.word	0x20046a99
100000b0:	d0fb4201 	.word	0xd0fb4201
100000b4:	42012001 	.word	0x42012001
100000b8:	bd03d1f8 	.word	0xbd03d1f8
100000bc:	6618b502 	.word	0x6618b502
100000c0:	f7ff6618 	.word	0xf7ff6618
100000c4:	6e18fff2 	.word	0x6e18fff2
100000c8:	bd026e18 	.word	0xbd026e18
100000cc:	40020000 	.word	0x40020000
100000d0:	18000000 	.word	0x18000000
100000d4:	00070000 	.word	0x00070000
100000d8:	005f0300 	.word	0x005f0300
100000dc:	00002221 	.word	0x00002221
100000e0:	180000f4 	.word	0x180000f4
100000e4:	a0002022 	.word	0xa0002022
100000e8:	10000100 	.word	0x10000100
100000ec:	e000ed08 	.word	0xe000ed08
	...
100000fc:	7a4eb274 	.word	0x7a4eb274

Disassembly of section .text:

10000100 <__logical_binary_start>:
10000100:	20042000 	.word	0x20042000
10000104:	100001f7 	.word	0x100001f7
10000108:	100001c3 	.word	0x100001c3
1000010c:	100001c5 	.word	0x100001c5
10000110:	100001c1 	.word	0x100001c1
10000114:	100001c1 	.word	0x100001c1
10000118:	100001c1 	.word	0x100001c1
1000011c:	100001c1 	.word	0x100001c1
10000120:	100001c1 	.word	0x100001c1
10000124:	100001c1 	.word	0x100001c1
10000128:	100001c1 	.word	0x100001c1
1000012c:	100001c7 	.word	0x100001c7
10000130:	100001c1 	.word	0x100001c1
10000134:	100001c1 	.word	0x100001c1
10000138:	100001c9 	.word	0x100001c9
1000013c:	100001cb 	.word	0x100001cb
10000140:	100001cd 	.word	0x100001cd
10000144:	100001cd 	.word	0x100001cd
10000148:	100001cd 	.word	0x100001cd
1000014c:	100001cd 	.word	0x100001cd
10000150:	100001cd 	.word	0x100001cd
10000154:	100001cd 	.word	0x100001cd
10000158:	100001cd 	.word	0x100001cd
1000015c:	100001cd 	.word	0x100001cd
10000160:	100001cd 	.word	0x100001cd
10000164:	100001cd 	.word	0x100001cd
10000168:	100001cd 	.word	0x100001cd
1000016c:	100001cd 	.word	0x100001cd
10000170:	100001cd 	.word	0x100001cd
10000174:	100001cd 	.word	0x100001cd
10000178:	100001cd 	.word	0x100001cd
1000017c:	100001cd 	.word	0x100001cd
10000180:	100001cd 	.word	0x100001cd
10000184:	100001cd 	.word	0x100001cd
10000188:	100001cd 	.word	0x100001cd
1000018c:	100001cd 	.word	0x100001cd
10000190:	100001cd 	.word	0x100001cd
10000194:	100001cd 	.word	0x100001cd
10000198:	100001cd 	.word	0x100001cd
1000019c:	100001cd 	.word	0x100001cd
100001a0:	100001cd 	.word	0x100001cd
100001a4:	100001cd 	.word	0x100001cd
100001a8:	100001cd 	.word	0x100001cd
100001ac:	100001cd 	.word	0x100001cd
100001b0:	100001cd 	.word	0x100001cd
100001b4:	100001cd 	.word	0x100001cd
100001b8:	100001cd 	.word	0x100001cd
100001bc:	100001cd 	.word	0x100001cd

100001c0 <isr_invalid>:
100001c0:	be00      	bkpt	0x0000

100001c2 <isr_nmi>:
100001c2:	be00      	bkpt	0x0000

100001c4 <isr_hardfault>:
100001c4:	be00      	bkpt	0x0000

100001c6 <isr_svcall>:
100001c6:	be00      	bkpt	0x0000

100001c8 <isr_pendsv>:
100001c8:	be00      	bkpt	0x0000

100001ca <isr_systick>:
100001ca:	be00      	bkpt	0x0000

100001cc <__unhandled_user_irq>:
100001cc:	f000 f84b 	bl	10000266 <__get_current_exception>
100001d0:	3810      	subs	r0, #16

100001d2 <unhandled_user_irq_num_in_r0>:
100001d2:	be00      	bkpt	0x0000

100001d4 <binary_info_header>:
100001d4:	7188ebf2 	.word	0x7188ebf2
100001d8:	10007fc8 	.word	0x10007fc8
100001dc:	10007fec 	.word	0x10007fec
100001e0:	10000234 	.word	0x10000234
100001e4:	e71aa390 	.word	0xe71aa390

100001e8 <_entry_point>:
100001e8:	2000      	movs	r0, #0
100001ea:	4921      	ldr	r1, [pc, #132]	; (10000270 <__get_current_exception+0xa>)
100001ec:	6008      	str	r0, [r1, #0]
100001ee:	c806      	ldmia	r0!, {r1, r2}
100001f0:	f381 8808 	msr	MSP, r1
100001f4:	4710      	bx	r2

100001f6 <_reset_handler>:
100001f6:	481f      	ldr	r0, [pc, #124]	; (10000274 <__get_current_exception+0xe>)
100001f8:	6800      	ldr	r0, [r0, #0]
100001fa:	2800      	cmp	r0, #0
100001fc:	d12f      	bne.n	1000025e <hold_non_core0_in_bootrom>
100001fe:	a40d      	add	r4, pc, #52	; (adr r4, 10000234 <data_cpy_table>)
10000200:	cc0e      	ldmia	r4!, {r1, r2, r3}
10000202:	2900      	cmp	r1, #0
10000204:	d002      	beq.n	1000020c <_reset_handler+0x16>
10000206:	f000 f812 	bl	1000022e <data_cpy>
1000020a:	e7f9      	b.n	10000200 <_reset_handler+0xa>
1000020c:	491a      	ldr	r1, [pc, #104]	; (10000278 <__get_current_exception+0x12>)
1000020e:	4a1b      	ldr	r2, [pc, #108]	; (1000027c <__get_current_exception+0x16>)
10000210:	2000      	movs	r0, #0
10000212:	e000      	b.n	10000216 <bss_fill_test>

10000214 <bss_fill_loop>:
10000214:	c101      	stmia	r1!, {r0}

10000216 <bss_fill_test>:
10000216:	4291      	cmp	r1, r2
10000218:	d1fc      	bne.n	10000214 <bss_fill_loop>

1000021a <platform_entry>:
1000021a:	4919      	ldr	r1, [pc, #100]	; (10000280 <__get_current_exception+0x1a>)
1000021c:	4788      	blx	r1
1000021e:	4919      	ldr	r1, [pc, #100]	; (10000284 <__get_current_exception+0x1e>)
10000220:	4788      	blx	r1
10000222:	4919      	ldr	r1, [pc, #100]	; (10000288 <__get_current_exception+0x22>)
10000224:	4788      	blx	r1
10000226:	be00      	bkpt	0x0000
10000228:	e7fd      	b.n	10000226 <platform_entry+0xc>

1000022a <data_cpy_loop>:
1000022a:	c901      	ldmia	r1!, {r0}
1000022c:	c201      	stmia	r2!, {r0}

1000022e <data_cpy>:
1000022e:	429a      	cmp	r2, r3
10000230:	d3fb      	bcc.n	1000022a <data_cpy_loop>
10000232:	4770      	bx	lr

10000234 <data_cpy_table>:
10000234:	10007fec 	.word	0x10007fec
10000238:	200000c0 	.word	0x200000c0
1000023c:	200006d4 	.word	0x200006d4
10000240:	10008600 	.word	0x10008600
10000244:	20040000 	.word	0x20040000
10000248:	20040000 	.word	0x20040000
1000024c:	10008600 	.word	0x10008600
10000250:	20041000 	.word	0x20041000
10000254:	20041000 	.word	0x20041000
10000258:	00000000 	.word	0x00000000
1000025c:	4770      	bx	lr

1000025e <hold_non_core0_in_bootrom>:
1000025e:	480b      	ldr	r0, [pc, #44]	; (1000028c <__get_current_exception+0x26>)
10000260:	f005 fb80 	bl	10005964 <rom_func_lookup>
10000264:	4700      	bx	r0

10000266 <__get_current_exception>:
10000266:	f3ef 8005 	mrs	r0, IPSR
1000026a:	b2c0      	uxtb	r0, r0
1000026c:	4770      	bx	lr
1000026e:	0000      	.short	0x0000
10000270:	e000ed08 	.word	0xe000ed08
10000274:	d0000000 	.word	0xd0000000
10000278:	200006d8 	.word	0x200006d8
1000027c:	20003b18 	.word	0x20003b18
10000280:	10003add 	.word	0x10003add
10000284:	100023f9 	.word	0x100023f9
10000288:	10003bc9 	.word	0x10003bc9
1000028c:	00005657 	.word	0x00005657

10000290 <__bi_50>:
10000290:	50520006 5360b3ab 10007f6c              ..RP..`Sl...

1000029c <__bi_38>:
1000029c:	50520006 02031c86 10007f7c              ..RP....|...

100002a8 <__bi_30>:
100002a8:	50520006 9da22254 10007f88              ..RPT"......

100002b4 <__bi_22>:
100002b4:	50520005 68f465de 10008600              ..RP.e.h....

100002c0 <_init>:
100002c0:	b5f8      	push	{r3, r4, r5, r6, r7, lr}
100002c2:	46c0      	nop			; (mov r8, r8)

100002c4 <__do_global_dtors_aux>:
100002c4:	b510      	push	{r4, lr}
100002c6:	4c06      	ldr	r4, [pc, #24]	; (100002e0 <__do_global_dtors_aux+0x1c>)
100002c8:	7823      	ldrb	r3, [r4, #0]
100002ca:	2b00      	cmp	r3, #0
100002cc:	d107      	bne.n	100002de <__do_global_dtors_aux+0x1a>
100002ce:	4b05      	ldr	r3, [pc, #20]	; (100002e4 <__do_global_dtors_aux+0x20>)
100002d0:	2b00      	cmp	r3, #0
100002d2:	d002      	beq.n	100002da <__do_global_dtors_aux+0x16>
100002d4:	4804      	ldr	r0, [pc, #16]	; (100002e8 <__do_global_dtors_aux+0x24>)
100002d6:	e000      	b.n	100002da <__do_global_dtors_aux+0x16>
100002d8:	bf00      	nop
100002da:	2301      	movs	r3, #1
100002dc:	7023      	strb	r3, [r4, #0]
100002de:	bd10      	pop	{r4, pc}
100002e0:	200007d8 	.word	0x200007d8
100002e4:	00000000 	.word	0x00000000
100002e8:	100076e0 	.word	0x100076e0

100002ec <frame_dummy>:
100002ec:	4b04      	ldr	r3, [pc, #16]	; (10000300 <frame_dummy+0x14>)
100002ee:	b510      	push	{r4, lr}
100002f0:	2b00      	cmp	r3, #0
100002f2:	d003      	beq.n	100002fc <frame_dummy+0x10>
100002f4:	4903      	ldr	r1, [pc, #12]	; (10000304 <frame_dummy+0x18>)
100002f6:	4804      	ldr	r0, [pc, #16]	; (10000308 <frame_dummy+0x1c>)
100002f8:	e000      	b.n	100002fc <frame_dummy+0x10>
100002fa:	bf00      	nop
100002fc:	bd10      	pop	{r4, pc}
100002fe:	46c0      	nop			; (mov r8, r8)
10000300:	00000000 	.word	0x00000000
10000304:	200007dc 	.word	0x200007dc
10000308:	100076e0 	.word	0x100076e0

1000030c <drawRoid.part.0>:
1000030c:	b5f0      	push	{r4, r5, r6, r7, lr}
1000030e:	46de      	mov	lr, fp
10000310:	464e      	mov	r6, r9
10000312:	4657      	mov	r7, sl
10000314:	4645      	mov	r5, r8
10000316:	24c8      	movs	r4, #200	; 0xc8
10000318:	b5e0      	push	{r5, r6, r7, lr}
1000031a:	00a4      	lsls	r4, r4, #2
1000031c:	5907      	ldr	r7, [r0, r4]
1000031e:	b089      	sub	sp, #36	; 0x24
10000320:	1e7b      	subs	r3, r7, #1
10000322:	9306      	str	r3, [sp, #24]
10000324:	23c9      	movs	r3, #201	; 0xc9
10000326:	4681      	mov	r9, r0
10000328:	009b      	lsls	r3, r3, #2
1000032a:	58c0      	ldr	r0, [r0, r3]
1000032c:	f006 fe54 	bl	10006fd8 <__wrap___aeabi_f2iz>
10000330:	23ca      	movs	r3, #202	; 0xca
10000332:	464a      	mov	r2, r9
10000334:	009b      	lsls	r3, r3, #2
10000336:	0006      	movs	r6, r0
10000338:	58d0      	ldr	r0, [r2, r3]
1000033a:	f006 fe4d 	bl	10006fd8 <__wrap___aeabi_f2iz>
1000033e:	0005      	movs	r5, r0
10000340:	2f00      	cmp	r7, #0
10000342:	dc00      	bgt.n	10000346 <drawRoid.part.0+0x3a>
10000344:	e0a9      	b.n	1000049a <drawRoid.part.0+0x18e>
10000346:	0030      	movs	r0, r6
10000348:	f005 fe42 	bl	10005fd0 <__wrap___aeabi_i2d>
1000034c:	9002      	str	r0, [sp, #8]
1000034e:	9103      	str	r1, [sp, #12]
10000350:	0028      	movs	r0, r5
10000352:	f005 fe3d 	bl	10005fd0 <__wrap___aeabi_i2d>
10000356:	23c8      	movs	r3, #200	; 0xc8
10000358:	005b      	lsls	r3, r3, #1
1000035a:	444b      	add	r3, r9
1000035c:	46c8      	mov	r8, r9
1000035e:	2700      	movs	r7, #0
10000360:	46a3      	mov	fp, r4
10000362:	9004      	str	r0, [sp, #16]
10000364:	9105      	str	r1, [sp, #20]
10000366:	9307      	str	r3, [sp, #28]
10000368:	e049      	b.n	100003fe <drawRoid.part.0+0xf2>
1000036a:	4643      	mov	r3, r8
1000036c:	9802      	ldr	r0, [sp, #8]
1000036e:	9903      	ldr	r1, [sp, #12]
10000370:	689a      	ldr	r2, [r3, #8]
10000372:	68db      	ldr	r3, [r3, #12]
10000374:	f005 fdaa 	bl	10005ecc <__wrap___aeabi_dadd>
10000378:	f005 fe42 	bl	10006000 <__wrap___aeabi_d2iz>
1000037c:	4643      	mov	r3, r8
1000037e:	3399      	adds	r3, #153	; 0x99
10000380:	33ff      	adds	r3, #255	; 0xff
10000382:	681a      	ldr	r2, [r3, #0]
10000384:	685b      	ldr	r3, [r3, #4]
10000386:	0004      	movs	r4, r0
10000388:	9804      	ldr	r0, [sp, #16]
1000038a:	9905      	ldr	r1, [sp, #20]
1000038c:	f005 fd9e 	bl	10005ecc <__wrap___aeabi_dadd>
10000390:	f005 fe36 	bl	10006000 <__wrap___aeabi_d2iz>
10000394:	4682      	mov	sl, r0
10000396:	3701      	adds	r7, #1
10000398:	2e7f      	cmp	r6, #127	; 0x7f
1000039a:	dd03      	ble.n	100003a4 <drawRoid.part.0+0x98>
1000039c:	2c7f      	cmp	r4, #127	; 0x7f
1000039e:	dd5d      	ble.n	1000045c <drawRoid.part.0+0x150>
100003a0:	3e80      	subs	r6, #128	; 0x80
100003a2:	3c80      	subs	r4, #128	; 0x80
100003a4:	2d7f      	cmp	r5, #127	; 0x7f
100003a6:	dd07      	ble.n	100003b8 <drawRoid.part.0+0xac>
100003a8:	4653      	mov	r3, sl
100003aa:	2b7f      	cmp	r3, #127	; 0x7f
100003ac:	dd04      	ble.n	100003b8 <drawRoid.part.0+0xac>
100003ae:	2380      	movs	r3, #128	; 0x80
100003b0:	425b      	negs	r3, r3
100003b2:	469c      	mov	ip, r3
100003b4:	3d80      	subs	r5, #128	; 0x80
100003b6:	44e2      	add	sl, ip
100003b8:	2301      	movs	r3, #1
100003ba:	0022      	movs	r2, r4
100003bc:	9300      	str	r3, [sp, #0]
100003be:	0029      	movs	r1, r5
100003c0:	4653      	mov	r3, sl
100003c2:	0030      	movs	r0, r6
100003c4:	f002 f986 	bl	100026d4 <drawLine>
100003c8:	2c7f      	cmp	r4, #127	; 0x7f
100003ca:	dc54      	bgt.n	10000476 <drawRoid.part.0+0x16a>
100003cc:	2e7f      	cmp	r6, #127	; 0x7f
100003ce:	dc52      	bgt.n	10000476 <drawRoid.part.0+0x16a>
100003d0:	2d7f      	cmp	r5, #127	; 0x7f
100003d2:	dc02      	bgt.n	100003da <drawRoid.part.0+0xce>
100003d4:	4653      	mov	r3, sl
100003d6:	2b7f      	cmp	r3, #127	; 0x7f
100003d8:	dd09      	ble.n	100003ee <drawRoid.part.0+0xe2>
100003da:	2201      	movs	r2, #1
100003dc:	4653      	mov	r3, sl
100003de:	0029      	movs	r1, r5
100003e0:	9200      	str	r2, [sp, #0]
100003e2:	0030      	movs	r0, r6
100003e4:	0022      	movs	r2, r4
100003e6:	3b80      	subs	r3, #128	; 0x80
100003e8:	3980      	subs	r1, #128	; 0x80
100003ea:	f002 f973 	bl	100026d4 <drawLine>
100003ee:	2308      	movs	r3, #8
100003f0:	465a      	mov	r2, fp
100003f2:	469c      	mov	ip, r3
100003f4:	464b      	mov	r3, r9
100003f6:	589b      	ldr	r3, [r3, r2]
100003f8:	44e0      	add	r8, ip
100003fa:	42bb      	cmp	r3, r7
100003fc:	dd4d      	ble.n	1000049a <drawRoid.part.0+0x18e>
100003fe:	9802      	ldr	r0, [sp, #8]
10000400:	9903      	ldr	r1, [sp, #12]
10000402:	4643      	mov	r3, r8
10000404:	681a      	ldr	r2, [r3, #0]
10000406:	685b      	ldr	r3, [r3, #4]
10000408:	f005 fd60 	bl	10005ecc <__wrap___aeabi_dadd>
1000040c:	f005 fdf8 	bl	10006000 <__wrap___aeabi_d2iz>
10000410:	4643      	mov	r3, r8
10000412:	3391      	adds	r3, #145	; 0x91
10000414:	33ff      	adds	r3, #255	; 0xff
10000416:	681a      	ldr	r2, [r3, #0]
10000418:	685b      	ldr	r3, [r3, #4]
1000041a:	0006      	movs	r6, r0
1000041c:	9804      	ldr	r0, [sp, #16]
1000041e:	9905      	ldr	r1, [sp, #20]
10000420:	f005 fd54 	bl	10005ecc <__wrap___aeabi_dadd>
10000424:	f005 fdec 	bl	10006000 <__wrap___aeabi_d2iz>
10000428:	9b06      	ldr	r3, [sp, #24]
1000042a:	0005      	movs	r5, r0
1000042c:	42bb      	cmp	r3, r7
1000042e:	dc9c      	bgt.n	1000036a <drawRoid.part.0+0x5e>
10000430:	9802      	ldr	r0, [sp, #8]
10000432:	9903      	ldr	r1, [sp, #12]
10000434:	464b      	mov	r3, r9
10000436:	681a      	ldr	r2, [r3, #0]
10000438:	685b      	ldr	r3, [r3, #4]
1000043a:	f005 fd47 	bl	10005ecc <__wrap___aeabi_dadd>
1000043e:	f005 fddf 	bl	10006000 <__wrap___aeabi_d2iz>
10000442:	9b07      	ldr	r3, [sp, #28]
10000444:	0004      	movs	r4, r0
10000446:	681a      	ldr	r2, [r3, #0]
10000448:	685b      	ldr	r3, [r3, #4]
1000044a:	9804      	ldr	r0, [sp, #16]
1000044c:	9905      	ldr	r1, [sp, #20]
1000044e:	f005 fd3d 	bl	10005ecc <__wrap___aeabi_dadd>
10000452:	f005 fdd5 	bl	10006000 <__wrap___aeabi_d2iz>
10000456:	3701      	adds	r7, #1
10000458:	4682      	mov	sl, r0
1000045a:	e79d      	b.n	10000398 <drawRoid.part.0+0x8c>
1000045c:	2d7f      	cmp	r5, #127	; 0x7f
1000045e:	dd02      	ble.n	10000466 <drawRoid.part.0+0x15a>
10000460:	4653      	mov	r3, sl
10000462:	2b7f      	cmp	r3, #127	; 0x7f
10000464:	dca3      	bgt.n	100003ae <drawRoid.part.0+0xa2>
10000466:	2301      	movs	r3, #1
10000468:	0022      	movs	r2, r4
1000046a:	9300      	str	r3, [sp, #0]
1000046c:	0029      	movs	r1, r5
1000046e:	4653      	mov	r3, sl
10000470:	0030      	movs	r0, r6
10000472:	f002 f92f 	bl	100026d4 <drawLine>
10000476:	2301      	movs	r3, #1
10000478:	0022      	movs	r2, r4
1000047a:	0030      	movs	r0, r6
1000047c:	3a80      	subs	r2, #128	; 0x80
1000047e:	9300      	str	r3, [sp, #0]
10000480:	0029      	movs	r1, r5
10000482:	4653      	mov	r3, sl
10000484:	3880      	subs	r0, #128	; 0x80
10000486:	f002 f925 	bl	100026d4 <drawLine>
1000048a:	2308      	movs	r3, #8
1000048c:	465a      	mov	r2, fp
1000048e:	469c      	mov	ip, r3
10000490:	464b      	mov	r3, r9
10000492:	589b      	ldr	r3, [r3, r2]
10000494:	44e0      	add	r8, ip
10000496:	42bb      	cmp	r3, r7
10000498:	dcb1      	bgt.n	100003fe <drawRoid.part.0+0xf2>
1000049a:	b009      	add	sp, #36	; 0x24
1000049c:	bc3c      	pop	{r2, r3, r4, r5}
1000049e:	4690      	mov	r8, r2
100004a0:	4699      	mov	r9, r3
100004a2:	46a2      	mov	sl, r4
100004a4:	46ab      	mov	fp, r5
100004a6:	bdf0      	pop	{r4, r5, r6, r7, pc}

100004a8 <checkShipCollision.part.0>:
100004a8:	b5f0      	push	{r4, r5, r6, r7, lr}
100004aa:	4657      	mov	r7, sl
100004ac:	464e      	mov	r6, r9
100004ae:	46de      	mov	lr, fp
100004b0:	4645      	mov	r5, r8
100004b2:	0003      	movs	r3, r0
100004b4:	4a75      	ldr	r2, [pc, #468]	; (1000068c <checkShipCollision.part.0+0x1e4>)
100004b6:	b5e0      	push	{r5, r6, r7, lr}
100004b8:	4691      	mov	r9, r2
100004ba:	2200      	movs	r2, #0
100004bc:	b08f      	sub	sp, #60	; 0x3c
100004be:	330a      	adds	r3, #10
100004c0:	9309      	str	r3, [sp, #36]	; 0x24
100004c2:	000b      	movs	r3, r1
100004c4:	4692      	mov	sl, r2
100004c6:	464f      	mov	r7, r9
100004c8:	330a      	adds	r3, #10
100004ca:	9006      	str	r0, [sp, #24]
100004cc:	9101      	str	r1, [sp, #4]
100004ce:	930b      	str	r3, [sp, #44]	; 0x2c
100004d0:	697b      	ldr	r3, [r7, #20]
100004d2:	2b00      	cmp	r3, #0
100004d4:	d017      	beq.n	10000506 <checkShipCollision.part.0+0x5e>
100004d6:	6878      	ldr	r0, [r7, #4]
100004d8:	f006 fd7e 	bl	10006fd8 <__wrap___aeabi_f2iz>
100004dc:	9b09      	ldr	r3, [sp, #36]	; 0x24
100004de:	0005      	movs	r5, r0
100004e0:	4298      	cmp	r0, r3
100004e2:	dc10      	bgt.n	10000506 <checkShipCollision.part.0+0x5e>
100004e4:	68b8      	ldr	r0, [r7, #8]
100004e6:	f006 fd77 	bl	10006fd8 <__wrap___aeabi_f2iz>
100004ea:	9b0b      	ldr	r3, [sp, #44]	; 0x2c
100004ec:	0004      	movs	r4, r0
100004ee:	4298      	cmp	r0, r3
100004f0:	dc09      	bgt.n	10000506 <checkShipCollision.part.0+0x5e>
100004f2:	002b      	movs	r3, r5
100004f4:	9a06      	ldr	r2, [sp, #24]
100004f6:	331e      	adds	r3, #30
100004f8:	429a      	cmp	r2, r3
100004fa:	dc04      	bgt.n	10000506 <checkShipCollision.part.0+0x5e>
100004fc:	0003      	movs	r3, r0
100004fe:	9a01      	ldr	r2, [sp, #4]
10000500:	331e      	adds	r3, #30
10000502:	429a      	cmp	r2, r3
10000504:	dd32      	ble.n	1000056c <checkShipCollision.part.0+0xc4>
10000506:	2301      	movs	r3, #1
10000508:	469c      	mov	ip, r3
1000050a:	23d0      	movs	r3, #208	; 0xd0
1000050c:	44e2      	add	sl, ip
1000050e:	009b      	lsls	r3, r3, #2
10000510:	469c      	mov	ip, r3
10000512:	4653      	mov	r3, sl
10000514:	4467      	add	r7, ip
10000516:	2b0c      	cmp	r3, #12
10000518:	d1da      	bne.n	100004d0 <checkShipCollision.part.0+0x28>
1000051a:	9806      	ldr	r0, [sp, #24]
1000051c:	f006 fd3a 	bl	10006f94 <__wrap___aeabi_i2f>
10000520:	4b5b      	ldr	r3, [pc, #364]	; (10000690 <checkShipCollision.part.0+0x1e8>)
10000522:	6819      	ldr	r1, [r3, #0]
10000524:	f006 fceb 	bl	10006efe <__wrap___aeabi_fsub>
10000528:	1c05      	adds	r5, r0, #0
1000052a:	9801      	ldr	r0, [sp, #4]
1000052c:	f006 fd32 	bl	10006f94 <__wrap___aeabi_i2f>
10000530:	4b58      	ldr	r3, [pc, #352]	; (10000694 <checkShipCollision.part.0+0x1ec>)
10000532:	6819      	ldr	r1, [r3, #0]
10000534:	f006 fce3 	bl	10006efe <__wrap___aeabi_fsub>
10000538:	1c29      	adds	r1, r5, #0
1000053a:	1c04      	adds	r4, r0, #0
1000053c:	1c28      	adds	r0, r5, #0
1000053e:	f006 fce7 	bl	10006f10 <__wrap___aeabi_fmul>
10000542:	1c21      	adds	r1, r4, #0
10000544:	1c05      	adds	r5, r0, #0
10000546:	1c20      	adds	r0, r4, #0
10000548:	f006 fce2 	bl	10006f10 <__wrap___aeabi_fmul>
1000054c:	1c01      	adds	r1, r0, #0
1000054e:	1c28      	adds	r0, r5, #0
10000550:	f006 fcd8 	bl	10006f04 <__wrap___aeabi_fadd>
10000554:	4950      	ldr	r1, [pc, #320]	; (10000698 <checkShipCollision.part.0+0x1f0>)
10000556:	f006 fd11 	bl	10006f7c <__wrap___aeabi_fcmplt>
1000055a:	1e43      	subs	r3, r0, #1
1000055c:	4198      	sbcs	r0, r3
1000055e:	b00f      	add	sp, #60	; 0x3c
10000560:	bc3c      	pop	{r2, r3, r4, r5}
10000562:	4690      	mov	r8, r2
10000564:	4699      	mov	r9, r3
10000566:	46a2      	mov	sl, r4
10000568:	46ab      	mov	fp, r5
1000056a:	bdf0      	pop	{r4, r5, r6, r7, pc}
1000056c:	683e      	ldr	r6, [r7, #0]
1000056e:	960a      	str	r6, [sp, #40]	; 0x28
10000570:	2e00      	cmp	r6, #0
10000572:	ddc8      	ble.n	10000506 <checkShipCollision.part.0+0x5e>
10000574:	0028      	movs	r0, r5
10000576:	f005 fd2b 	bl	10005fd0 <__wrap___aeabi_i2d>
1000057a:	9002      	str	r0, [sp, #8]
1000057c:	9103      	str	r1, [sp, #12]
1000057e:	0020      	movs	r0, r4
10000580:	f005 fd26 	bl	10005fd0 <__wrap___aeabi_i2d>
10000584:	1e73      	subs	r3, r6, #1
10000586:	9004      	str	r0, [sp, #16]
10000588:	9105      	str	r1, [sp, #20]
1000058a:	9307      	str	r3, [sp, #28]
1000058c:	4651      	mov	r1, sl
1000058e:	4b43      	ldr	r3, [pc, #268]	; (1000069c <checkShipCollision.part.0+0x1f4>)
10000590:	2200      	movs	r2, #0
10000592:	4699      	mov	r9, r3
10000594:	4b42      	ldr	r3, [pc, #264]	; (100006a0 <checkShipCollision.part.0+0x1f8>)
10000596:	4692      	mov	sl, r2
10000598:	4698      	mov	r8, r3
1000059a:	33f9      	adds	r3, #249	; 0xf9
1000059c:	33ff      	adds	r3, #255	; 0xff
1000059e:	434b      	muls	r3, r1
100005a0:	44b9      	add	r9, r7
100005a2:	44b8      	add	r8, r7
100005a4:	9308      	str	r3, [sp, #32]
100005a6:	910c      	str	r1, [sp, #48]	; 0x30
100005a8:	970d      	str	r7, [sp, #52]	; 0x34
100005aa:	e009      	b.n	100005c0 <checkShipCollision.part.0+0x118>
100005ac:	2301      	movs	r3, #1
100005ae:	469c      	mov	ip, r3
100005b0:	3307      	adds	r3, #7
100005b2:	44e2      	add	sl, ip
100005b4:	469c      	mov	ip, r3
100005b6:	9b0a      	ldr	r3, [sp, #40]	; 0x28
100005b8:	44e1      	add	r9, ip
100005ba:	44e0      	add	r8, ip
100005bc:	459a      	cmp	sl, r3
100005be:	d061      	beq.n	10000684 <checkShipCollision.part.0+0x1dc>
100005c0:	9802      	ldr	r0, [sp, #8]
100005c2:	9903      	ldr	r1, [sp, #12]
100005c4:	464b      	mov	r3, r9
100005c6:	681a      	ldr	r2, [r3, #0]
100005c8:	685b      	ldr	r3, [r3, #4]
100005ca:	f005 fc7f 	bl	10005ecc <__wrap___aeabi_dadd>
100005ce:	f005 fd17 	bl	10006000 <__wrap___aeabi_d2iz>
100005d2:	4643      	mov	r3, r8
100005d4:	0004      	movs	r4, r0
100005d6:	681a      	ldr	r2, [r3, #0]
100005d8:	685b      	ldr	r3, [r3, #4]
100005da:	9804      	ldr	r0, [sp, #16]
100005dc:	9905      	ldr	r1, [sp, #20]
100005de:	f005 fc75 	bl	10005ecc <__wrap___aeabi_dadd>
100005e2:	f005 fd0d 	bl	10006000 <__wrap___aeabi_d2iz>
100005e6:	9b07      	ldr	r3, [sp, #28]
100005e8:	0006      	movs	r6, r0
100005ea:	2500      	movs	r5, #0
100005ec:	459a      	cmp	sl, r3
100005ee:	da01      	bge.n	100005f4 <checkShipCollision.part.0+0x14c>
100005f0:	4653      	mov	r3, sl
100005f2:	1c5d      	adds	r5, r3, #1
100005f4:	9b08      	ldr	r3, [sp, #32]
100005f6:	4a2b      	ldr	r2, [pc, #172]	; (100006a4 <checkShipCollision.part.0+0x1fc>)
100005f8:	469c      	mov	ip, r3
100005fa:	9802      	ldr	r0, [sp, #8]
100005fc:	9903      	ldr	r1, [sp, #12]
100005fe:	4465      	add	r5, ip
10000600:	4694      	mov	ip, r2
10000602:	00eb      	lsls	r3, r5, #3
10000604:	4463      	add	r3, ip
10000606:	681a      	ldr	r2, [r3, #0]
10000608:	685b      	ldr	r3, [r3, #4]
1000060a:	f005 fc5f 	bl	10005ecc <__wrap___aeabi_dadd>
1000060e:	f005 fcf7 	bl	10006000 <__wrap___aeabi_d2iz>
10000612:	4b24      	ldr	r3, [pc, #144]	; (100006a4 <checkShipCollision.part.0+0x1fc>)
10000614:	3532      	adds	r5, #50	; 0x32
10000616:	469c      	mov	ip, r3
10000618:	00ed      	lsls	r5, r5, #3
1000061a:	4465      	add	r5, ip
1000061c:	682a      	ldr	r2, [r5, #0]
1000061e:	686b      	ldr	r3, [r5, #4]
10000620:	0007      	movs	r7, r0
10000622:	9804      	ldr	r0, [sp, #16]
10000624:	9905      	ldr	r1, [sp, #20]
10000626:	f005 fc51 	bl	10005ecc <__wrap___aeabi_dadd>
1000062a:	f005 fce9 	bl	10006000 <__wrap___aeabi_d2iz>
1000062e:	0002      	movs	r2, r0
10000630:	9906      	ldr	r1, [sp, #24]
10000632:	9801      	ldr	r0, [sp, #4]
10000634:	1a63      	subs	r3, r4, r1
10000636:	1a30      	subs	r0, r6, r0
10000638:	435b      	muls	r3, r3
1000063a:	4340      	muls	r0, r0
1000063c:	1a7d      	subs	r5, r7, r1
1000063e:	9901      	ldr	r1, [sp, #4]
10000640:	1818      	adds	r0, r3, r0
10000642:	1a51      	subs	r1, r2, r1
10000644:	1ab6      	subs	r6, r6, r2
10000646:	468b      	mov	fp, r1
10000648:	f006 fca4 	bl	10006f94 <__wrap___aeabi_i2f>
1000064c:	1be4      	subs	r4, r4, r7
1000064e:	1c07      	adds	r7, r0, #0
10000650:	4658      	mov	r0, fp
10000652:	436d      	muls	r5, r5
10000654:	4340      	muls	r0, r0
10000656:	1828      	adds	r0, r5, r0
10000658:	f006 fc9c 	bl	10006f94 <__wrap___aeabi_i2f>
1000065c:	1c01      	adds	r1, r0, #0
1000065e:	1c38      	adds	r0, r7, #0
10000660:	f006 fc50 	bl	10006f04 <__wrap___aeabi_fadd>
10000664:	4364      	muls	r4, r4
10000666:	4376      	muls	r6, r6
10000668:	1c05      	adds	r5, r0, #0
1000066a:	19a0      	adds	r0, r4, r6
1000066c:	f006 fc92 	bl	10006f94 <__wrap___aeabi_i2f>
10000670:	1c01      	adds	r1, r0, #0
10000672:	1c28      	adds	r0, r5, #0
10000674:	f006 fc43 	bl	10006efe <__wrap___aeabi_fsub>
10000678:	f006 fcae 	bl	10006fd8 <__wrap___aeabi_f2iz>
1000067c:	2818      	cmp	r0, #24
1000067e:	dc95      	bgt.n	100005ac <checkShipCollision.part.0+0x104>
10000680:	2001      	movs	r0, #1
10000682:	e76c      	b.n	1000055e <checkShipCollision.part.0+0xb6>
10000684:	9b0c      	ldr	r3, [sp, #48]	; 0x30
10000686:	9f0d      	ldr	r7, [sp, #52]	; 0x34
10000688:	469a      	mov	sl, r3
1000068a:	e73c      	b.n	10000506 <checkShipCollision.part.0+0x5e>
1000068c:	20000cc0 	.word	0x20000cc0
10000690:	20000810 	.word	0x20000810
10000694:	20000814 	.word	0x20000814
10000698:	41c80000 	.word	0x41c80000
1000069c:	fffffce0 	.word	0xfffffce0
100006a0:	fffffe70 	.word	0xfffffe70
100006a4:	200009a0 	.word	0x200009a0

100006a8 <drawMothership.part.0>:
100006a8:	b570      	push	{r4, r5, r6, lr}
100006aa:	4e34      	ldr	r6, [pc, #208]	; (1000077c <drawMothership.part.0+0xd4>)
100006ac:	2401      	movs	r4, #1
100006ae:	6830      	ldr	r0, [r6, #0]
100006b0:	b082      	sub	sp, #8
100006b2:	0002      	movs	r2, r0
100006b4:	4d32      	ldr	r5, [pc, #200]	; (10000780 <drawMothership.part.0+0xd8>)
100006b6:	9400      	str	r4, [sp, #0]
100006b8:	682b      	ldr	r3, [r5, #0]
100006ba:	3214      	adds	r2, #20
100006bc:	0019      	movs	r1, r3
100006be:	300a      	adds	r0, #10
100006c0:	f002 f808 	bl	100026d4 <drawLine>
100006c4:	6830      	ldr	r0, [r6, #0]
100006c6:	682b      	ldr	r3, [r5, #0]
100006c8:	9400      	str	r4, [sp, #0]
100006ca:	6829      	ldr	r1, [r5, #0]
100006cc:	1d82      	adds	r2, r0, #6
100006ce:	3304      	adds	r3, #4
100006d0:	300a      	adds	r0, #10
100006d2:	f001 ffff 	bl	100026d4 <drawLine>
100006d6:	6830      	ldr	r0, [r6, #0]
100006d8:	682b      	ldr	r3, [r5, #0]
100006da:	0002      	movs	r2, r0
100006dc:	9400      	str	r4, [sp, #0]
100006de:	6829      	ldr	r1, [r5, #0]
100006e0:	3304      	adds	r3, #4
100006e2:	3218      	adds	r2, #24
100006e4:	3014      	adds	r0, #20
100006e6:	f001 fff5 	bl	100026d4 <drawLine>
100006ea:	6830      	ldr	r0, [r6, #0]
100006ec:	682b      	ldr	r3, [r5, #0]
100006ee:	0002      	movs	r2, r0
100006f0:	1d19      	adds	r1, r3, #4
100006f2:	000b      	movs	r3, r1
100006f4:	3218      	adds	r2, #24
100006f6:	3006      	adds	r0, #6
100006f8:	9400      	str	r4, [sp, #0]
100006fa:	f001 ffeb 	bl	100026d4 <drawLine>
100006fe:	6829      	ldr	r1, [r5, #0]
10000700:	6832      	ldr	r2, [r6, #0]
10000702:	000b      	movs	r3, r1
10000704:	9400      	str	r4, [sp, #0]
10000706:	1d90      	adds	r0, r2, #6
10000708:	3308      	adds	r3, #8
1000070a:	6832      	ldr	r2, [r6, #0]
1000070c:	3104      	adds	r1, #4
1000070e:	f001 ffe1 	bl	100026d4 <drawLine>
10000712:	6830      	ldr	r0, [r6, #0]
10000714:	6829      	ldr	r1, [r5, #0]
10000716:	0002      	movs	r2, r0
10000718:	000b      	movs	r3, r1
1000071a:	321e      	adds	r2, #30
1000071c:	3308      	adds	r3, #8
1000071e:	3104      	adds	r1, #4
10000720:	3018      	adds	r0, #24
10000722:	9400      	str	r4, [sp, #0]
10000724:	f001 ffd6 	bl	100026d4 <drawLine>
10000728:	6829      	ldr	r1, [r5, #0]
1000072a:	6832      	ldr	r2, [r6, #0]
1000072c:	3108      	adds	r1, #8
1000072e:	9400      	str	r4, [sp, #0]
10000730:	000b      	movs	r3, r1
10000732:	6830      	ldr	r0, [r6, #0]
10000734:	321e      	adds	r2, #30
10000736:	f001 ffcd 	bl	100026d4 <drawLine>
1000073a:	6829      	ldr	r1, [r5, #0]
1000073c:	6832      	ldr	r2, [r6, #0]
1000073e:	000b      	movs	r3, r1
10000740:	9400      	str	r4, [sp, #0]
10000742:	6830      	ldr	r0, [r6, #0]
10000744:	330c      	adds	r3, #12
10000746:	3206      	adds	r2, #6
10000748:	3108      	adds	r1, #8
1000074a:	f001 ffc3 	bl	100026d4 <drawLine>
1000074e:	6830      	ldr	r0, [r6, #0]
10000750:	6829      	ldr	r1, [r5, #0]
10000752:	0002      	movs	r2, r0
10000754:	000b      	movs	r3, r1
10000756:	3218      	adds	r2, #24
10000758:	330c      	adds	r3, #12
1000075a:	3108      	adds	r1, #8
1000075c:	301e      	adds	r0, #30
1000075e:	9400      	str	r4, [sp, #0]
10000760:	f001 ffb8 	bl	100026d4 <drawLine>
10000764:	6830      	ldr	r0, [r6, #0]
10000766:	6829      	ldr	r1, [r5, #0]
10000768:	0002      	movs	r2, r0
1000076a:	310c      	adds	r1, #12
1000076c:	000b      	movs	r3, r1
1000076e:	3218      	adds	r2, #24
10000770:	3006      	adds	r0, #6
10000772:	9400      	str	r4, [sp, #0]
10000774:	f001 ffae 	bl	100026d4 <drawLine>
10000778:	b002      	add	sp, #8
1000077a:	bd70      	pop	{r4, r5, r6, pc}
1000077c:	200001c0 	.word	0x200001c0
10000780:	200001c4 	.word	0x200001c4

10000784 <processInput>:
10000784:	b5f0      	push	{r4, r5, r6, r7, lr}
10000786:	46de      	mov	lr, fp
10000788:	4657      	mov	r7, sl
1000078a:	464e      	mov	r6, r9
1000078c:	4645      	mov	r5, r8
1000078e:	b5e0      	push	{r5, r6, r7, lr}
10000790:	b089      	sub	sp, #36	; 0x24
10000792:	9306      	str	r3, [sp, #24]
10000794:	23d0      	movs	r3, #208	; 0xd0
10000796:	4693      	mov	fp, r2
10000798:	2201      	movs	r2, #1
1000079a:	061b      	lsls	r3, r3, #24
1000079c:	4689      	mov	r9, r1
1000079e:	6859      	ldr	r1, [r3, #4]
100007a0:	4680      	mov	r8, r0
100007a2:	0b89      	lsrs	r1, r1, #14
100007a4:	4011      	ands	r1, r2
100007a6:	468a      	mov	sl, r1
100007a8:	6859      	ldr	r1, [r3, #4]
100007aa:	0f09      	lsrs	r1, r1, #28
100007ac:	4011      	ands	r1, r2
100007ae:	9101      	str	r1, [sp, #4]
100007b0:	6859      	ldr	r1, [r3, #4]
100007b2:	685b      	ldr	r3, [r3, #4]
100007b4:	9104      	str	r1, [sp, #16]
100007b6:	0e9b      	lsrs	r3, r3, #26
100007b8:	421a      	tst	r2, r3
100007ba:	d100      	bne.n	100007be <processInput+0x3a>
100007bc:	e09b      	b.n	100008f6 <processInput+0x172>
100007be:	4aa0      	ldr	r2, [pc, #640]	; (10000a40 <processInput+0x2bc>)
100007c0:	6813      	ldr	r3, [r2, #0]
100007c2:	2b00      	cmp	r3, #0
100007c4:	d100      	bne.n	100007c8 <processInput+0x44>
100007c6:	e0b4      	b.n	10000932 <processInput+0x1ae>
100007c8:	3b01      	subs	r3, #1
100007ca:	2400      	movs	r4, #0
100007cc:	6013      	str	r3, [r2, #0]
100007ce:	2300      	movs	r3, #0
100007d0:	9302      	str	r3, [sp, #8]
100007d2:	9403      	str	r4, [sp, #12]
100007d4:	4b9b      	ldr	r3, [pc, #620]	; (10000a44 <processInput+0x2c0>)
100007d6:	681b      	ldr	r3, [r3, #0]
100007d8:	2b00      	cmp	r3, #0
100007da:	d100      	bne.n	100007de <processInput+0x5a>
100007dc:	e094      	b.n	10000908 <processInput+0x184>
100007de:	4652      	mov	r2, sl
100007e0:	9b01      	ldr	r3, [sp, #4]
100007e2:	1a98      	subs	r0, r3, r2
100007e4:	f005 fbf4 	bl	10005fd0 <__wrap___aeabi_i2d>
100007e8:	4b97      	ldr	r3, [pc, #604]	; (10000a48 <processInput+0x2c4>)
100007ea:	681a      	ldr	r2, [r3, #0]
100007ec:	685b      	ldr	r3, [r3, #4]
100007ee:	f005 fb7f 	bl	10005ef0 <__wrap___aeabi_dmul>
100007f2:	4643      	mov	r3, r8
100007f4:	681a      	ldr	r2, [r3, #0]
100007f6:	685b      	ldr	r3, [r3, #4]
100007f8:	f005 fb68 	bl	10005ecc <__wrap___aeabi_dadd>
100007fc:	4643      	mov	r3, r8
100007fe:	0004      	movs	r4, r0
10000800:	000d      	movs	r5, r1
10000802:	2200      	movs	r2, #0
10000804:	601c      	str	r4, [r3, #0]
10000806:	605d      	str	r5, [r3, #4]
10000808:	2300      	movs	r3, #0
1000080a:	f005 fbb3 	bl	10005f74 <__wrap___aeabi_dcmplt>
1000080e:	4e8f      	ldr	r6, [pc, #572]	; (10000a4c <processInput+0x2c8>)
10000810:	2800      	cmp	r0, #0
10000812:	d00a      	beq.n	1000082a <processInput+0xa6>
10000814:	6832      	ldr	r2, [r6, #0]
10000816:	6873      	ldr	r3, [r6, #4]
10000818:	0020      	movs	r0, r4
1000081a:	0029      	movs	r1, r5
1000081c:	f005 fb56 	bl	10005ecc <__wrap___aeabi_dadd>
10000820:	4643      	mov	r3, r8
10000822:	0004      	movs	r4, r0
10000824:	000d      	movs	r5, r1
10000826:	601c      	str	r4, [r3, #0]
10000828:	605d      	str	r5, [r3, #4]
1000082a:	6877      	ldr	r7, [r6, #4]
1000082c:	6836      	ldr	r6, [r6, #0]
1000082e:	0022      	movs	r2, r4
10000830:	002b      	movs	r3, r5
10000832:	0030      	movs	r0, r6
10000834:	0039      	movs	r1, r7
10000836:	f005 fb9d 	bl	10005f74 <__wrap___aeabi_dcmplt>
1000083a:	2800      	cmp	r0, #0
1000083c:	d00a      	beq.n	10000854 <processInput+0xd0>
1000083e:	003b      	movs	r3, r7
10000840:	0020      	movs	r0, r4
10000842:	0029      	movs	r1, r5
10000844:	0032      	movs	r2, r6
10000846:	f005 fb38 	bl	10005eba <__wrap___aeabi_dsub>
1000084a:	4643      	mov	r3, r8
1000084c:	0004      	movs	r4, r0
1000084e:	000d      	movs	r5, r1
10000850:	601c      	str	r4, [r3, #0]
10000852:	605d      	str	r5, [r3, #4]
10000854:	9b04      	ldr	r3, [sp, #16]
10000856:	0020      	movs	r0, r4
10000858:	011e      	lsls	r6, r3, #4
1000085a:	0ff3      	lsrs	r3, r6, #31
1000085c:	0029      	movs	r1, r5
1000085e:	9307      	str	r3, [sp, #28]
10000860:	f005 fc20 	bl	100060a4 <__wrap_cos>
10000864:	0006      	movs	r6, r0
10000866:	000f      	movs	r7, r1
10000868:	0020      	movs	r0, r4
1000086a:	0029      	movs	r1, r5
1000086c:	f005 fc30 	bl	100060d0 <__wrap_sin>
10000870:	464b      	mov	r3, r9
10000872:	9004      	str	r0, [sp, #16]
10000874:	9105      	str	r1, [sp, #20]
10000876:	6818      	ldr	r0, [r3, #0]
10000878:	f005 fbaa 	bl	10005fd0 <__wrap___aeabi_i2d>
1000087c:	9a02      	ldr	r2, [sp, #8]
1000087e:	9b03      	ldr	r3, [sp, #12]
10000880:	0004      	movs	r4, r0
10000882:	000d      	movs	r5, r1
10000884:	0030      	movs	r0, r6
10000886:	0039      	movs	r1, r7
10000888:	f005 fb32 	bl	10005ef0 <__wrap___aeabi_dmul>
1000088c:	0002      	movs	r2, r0
1000088e:	000b      	movs	r3, r1
10000890:	0020      	movs	r0, r4
10000892:	0029      	movs	r1, r5
10000894:	f005 fb1a 	bl	10005ecc <__wrap___aeabi_dadd>
10000898:	f005 fbb2 	bl	10006000 <__wrap___aeabi_d2iz>
1000089c:	464b      	mov	r3, r9
1000089e:	6018      	str	r0, [r3, #0]
100008a0:	465b      	mov	r3, fp
100008a2:	6818      	ldr	r0, [r3, #0]
100008a4:	f005 fb94 	bl	10005fd0 <__wrap___aeabi_i2d>
100008a8:	9a02      	ldr	r2, [sp, #8]
100008aa:	9b03      	ldr	r3, [sp, #12]
100008ac:	0004      	movs	r4, r0
100008ae:	000d      	movs	r5, r1
100008b0:	9804      	ldr	r0, [sp, #16]
100008b2:	9905      	ldr	r1, [sp, #20]
100008b4:	f005 fb1c 	bl	10005ef0 <__wrap___aeabi_dmul>
100008b8:	000b      	movs	r3, r1
100008ba:	0002      	movs	r2, r0
100008bc:	0029      	movs	r1, r5
100008be:	0020      	movs	r0, r4
100008c0:	f005 fb04 	bl	10005ecc <__wrap___aeabi_dadd>
100008c4:	f005 fb9c 	bl	10006000 <__wrap___aeabi_d2iz>
100008c8:	465b      	mov	r3, fp
100008ca:	6018      	str	r0, [r3, #0]
100008cc:	4653      	mov	r3, sl
100008ce:	2b00      	cmp	r3, #0
100008d0:	d037      	beq.n	10000942 <processInput+0x1be>
100008d2:	9b01      	ldr	r3, [sp, #4]
100008d4:	2b00      	cmp	r3, #0
100008d6:	d034      	beq.n	10000942 <processInput+0x1be>
100008d8:	4b5d      	ldr	r3, [pc, #372]	; (10000a50 <processInput+0x2cc>)
100008da:	4698      	mov	r8, r3
100008dc:	681b      	ldr	r3, [r3, #0]
100008de:	2b00      	cmp	r3, #0
100008e0:	d104      	bne.n	100008ec <processInput+0x168>
100008e2:	4a5c      	ldr	r2, [pc, #368]	; (10000a54 <processInput+0x2d0>)
100008e4:	6813      	ldr	r3, [r2, #0]
100008e6:	4259      	negs	r1, r3
100008e8:	414b      	adcs	r3, r1
100008ea:	6013      	str	r3, [r2, #0]
100008ec:	9b07      	ldr	r3, [sp, #28]
100008ee:	2b00      	cmp	r3, #0
100008f0:	d12c      	bne.n	1000094c <processInput+0x1c8>
100008f2:	2301      	movs	r3, #1
100008f4:	e00e      	b.n	10000914 <processInput+0x190>
100008f6:	2300      	movs	r3, #0
100008f8:	2400      	movs	r4, #0
100008fa:	9302      	str	r3, [sp, #8]
100008fc:	9403      	str	r4, [sp, #12]
100008fe:	4b51      	ldr	r3, [pc, #324]	; (10000a44 <processInput+0x2c0>)
10000900:	681b      	ldr	r3, [r3, #0]
10000902:	2b00      	cmp	r3, #0
10000904:	d000      	beq.n	10000908 <processInput+0x184>
10000906:	e76a      	b.n	100007de <processInput+0x5a>
10000908:	4b51      	ldr	r3, [pc, #324]	; (10000a50 <processInput+0x2cc>)
1000090a:	4698      	mov	r8, r3
1000090c:	4653      	mov	r3, sl
1000090e:	2b00      	cmp	r3, #0
10000910:	d10a      	bne.n	10000928 <processInput+0x1a4>
10000912:	2300      	movs	r3, #0
10000914:	4642      	mov	r2, r8
10000916:	2000      	movs	r0, #0
10000918:	6013      	str	r3, [r2, #0]
1000091a:	b009      	add	sp, #36	; 0x24
1000091c:	bc3c      	pop	{r2, r3, r4, r5}
1000091e:	4690      	mov	r8, r2
10000920:	4699      	mov	r9, r3
10000922:	46a2      	mov	sl, r4
10000924:	46ab      	mov	fp, r5
10000926:	bdf0      	pop	{r4, r5, r6, r7, pc}
10000928:	9b01      	ldr	r3, [sp, #4]
1000092a:	2b00      	cmp	r3, #0
1000092c:	d0f1      	beq.n	10000912 <processInput+0x18e>
1000092e:	2301      	movs	r3, #1
10000930:	e7f0      	b.n	10000914 <processInput+0x190>
10000932:	2305      	movs	r3, #5
10000934:	2480      	movs	r4, #128	; 0x80
10000936:	6013      	str	r3, [r2, #0]
10000938:	2300      	movs	r3, #0
1000093a:	05e4      	lsls	r4, r4, #23
1000093c:	9302      	str	r3, [sp, #8]
1000093e:	9403      	str	r4, [sp, #12]
10000940:	e7dd      	b.n	100008fe <processInput+0x17a>
10000942:	9b07      	ldr	r3, [sp, #28]
10000944:	2b00      	cmp	r3, #0
10000946:	d060      	beq.n	10000a0a <processInput+0x286>
10000948:	4b41      	ldr	r3, [pc, #260]	; (10000a50 <processInput+0x2cc>)
1000094a:	4698      	mov	r8, r3
1000094c:	4b42      	ldr	r3, [pc, #264]	; (10000a58 <processInput+0x2d4>)
1000094e:	681a      	ldr	r2, [r3, #0]
10000950:	4691      	mov	r9, r2
10000952:	2a00      	cmp	r2, #0
10000954:	d01c      	beq.n	10000990 <processInput+0x20c>
10000956:	685a      	ldr	r2, [r3, #4]
10000958:	2a00      	cmp	r2, #0
1000095a:	d059      	beq.n	10000a10 <processInput+0x28c>
1000095c:	689a      	ldr	r2, [r3, #8]
1000095e:	2a00      	cmp	r2, #0
10000960:	d059      	beq.n	10000a16 <processInput+0x292>
10000962:	68da      	ldr	r2, [r3, #12]
10000964:	2a00      	cmp	r2, #0
10000966:	d059      	beq.n	10000a1c <processInput+0x298>
10000968:	691a      	ldr	r2, [r3, #16]
1000096a:	2a00      	cmp	r2, #0
1000096c:	d059      	beq.n	10000a22 <processInput+0x29e>
1000096e:	695a      	ldr	r2, [r3, #20]
10000970:	2a00      	cmp	r2, #0
10000972:	d059      	beq.n	10000a28 <processInput+0x2a4>
10000974:	699a      	ldr	r2, [r3, #24]
10000976:	2a00      	cmp	r2, #0
10000978:	d059      	beq.n	10000a2e <processInput+0x2aa>
1000097a:	69da      	ldr	r2, [r3, #28]
1000097c:	2a00      	cmp	r2, #0
1000097e:	d059      	beq.n	10000a34 <processInput+0x2b0>
10000980:	6a1a      	ldr	r2, [r3, #32]
10000982:	2a00      	cmp	r2, #0
10000984:	d059      	beq.n	10000a3a <processInput+0x2b6>
10000986:	6a5a      	ldr	r2, [r3, #36]	; 0x24
10000988:	2a00      	cmp	r2, #0
1000098a:	d1bf      	bne.n	1000090c <processInput+0x188>
1000098c:	2209      	movs	r2, #9
1000098e:	4691      	mov	r9, r2
10000990:	464a      	mov	r2, r9
10000992:	0092      	lsls	r2, r2, #2
10000994:	4693      	mov	fp, r2
10000996:	2214      	movs	r2, #20
10000998:	4659      	mov	r1, fp
1000099a:	505a      	str	r2, [r3, r1]
1000099c:	4b2f      	ldr	r3, [pc, #188]	; (10000a5c <processInput+0x2d8>)
1000099e:	0032      	movs	r2, r6
100009a0:	681c      	ldr	r4, [r3, #0]
100009a2:	685d      	ldr	r5, [r3, #4]
100009a4:	003b      	movs	r3, r7
100009a6:	0020      	movs	r0, r4
100009a8:	0029      	movs	r1, r5
100009aa:	f005 faa1 	bl	10005ef0 <__wrap___aeabi_dmul>
100009ae:	464b      	mov	r3, r9
100009b0:	00db      	lsls	r3, r3, #3
100009b2:	4699      	mov	r9, r3
100009b4:	4b2a      	ldr	r3, [pc, #168]	; (10000a60 <processInput+0x2dc>)
100009b6:	9002      	str	r0, [sp, #8]
100009b8:	9103      	str	r1, [sp, #12]
100009ba:	444b      	add	r3, r9
100009bc:	6018      	str	r0, [r3, #0]
100009be:	6059      	str	r1, [r3, #4]
100009c0:	9a04      	ldr	r2, [sp, #16]
100009c2:	9b05      	ldr	r3, [sp, #20]
100009c4:	0020      	movs	r0, r4
100009c6:	0029      	movs	r1, r5
100009c8:	f005 fa92 	bl	10005ef0 <__wrap___aeabi_dmul>
100009cc:	0006      	movs	r6, r0
100009ce:	000f      	movs	r7, r1
100009d0:	4b24      	ldr	r3, [pc, #144]	; (10000a64 <processInput+0x2e0>)
100009d2:	9806      	ldr	r0, [sp, #24]
100009d4:	444b      	add	r3, r9
100009d6:	601e      	str	r6, [r3, #0]
100009d8:	605f      	str	r7, [r3, #4]
100009da:	f005 faf9 	bl	10005fd0 <__wrap___aeabi_i2d>
100009de:	9a02      	ldr	r2, [sp, #8]
100009e0:	9b03      	ldr	r3, [sp, #12]
100009e2:	f005 fa73 	bl	10005ecc <__wrap___aeabi_dadd>
100009e6:	f005 fb0b 	bl	10006000 <__wrap___aeabi_d2iz>
100009ea:	465a      	mov	r2, fp
100009ec:	4b1e      	ldr	r3, [pc, #120]	; (10000a68 <processInput+0x2e4>)
100009ee:	5098      	str	r0, [r3, r2]
100009f0:	9812      	ldr	r0, [sp, #72]	; 0x48
100009f2:	f005 faed 	bl	10005fd0 <__wrap___aeabi_i2d>
100009f6:	0032      	movs	r2, r6
100009f8:	003b      	movs	r3, r7
100009fa:	f005 fa67 	bl	10005ecc <__wrap___aeabi_dadd>
100009fe:	f005 faff 	bl	10006000 <__wrap___aeabi_d2iz>
10000a02:	465a      	mov	r2, fp
10000a04:	4b19      	ldr	r3, [pc, #100]	; (10000a6c <processInput+0x2e8>)
10000a06:	5098      	str	r0, [r3, r2]
10000a08:	e780      	b.n	1000090c <processInput+0x188>
10000a0a:	4b11      	ldr	r3, [pc, #68]	; (10000a50 <processInput+0x2cc>)
10000a0c:	4698      	mov	r8, r3
10000a0e:	e780      	b.n	10000912 <processInput+0x18e>
10000a10:	2201      	movs	r2, #1
10000a12:	4691      	mov	r9, r2
10000a14:	e7bc      	b.n	10000990 <processInput+0x20c>
10000a16:	2202      	movs	r2, #2
10000a18:	4691      	mov	r9, r2
10000a1a:	e7b9      	b.n	10000990 <processInput+0x20c>
10000a1c:	2203      	movs	r2, #3
10000a1e:	4691      	mov	r9, r2
10000a20:	e7b6      	b.n	10000990 <processInput+0x20c>
10000a22:	2204      	movs	r2, #4
10000a24:	4691      	mov	r9, r2
10000a26:	e7b3      	b.n	10000990 <processInput+0x20c>
10000a28:	2205      	movs	r2, #5
10000a2a:	4691      	mov	r9, r2
10000a2c:	e7b0      	b.n	10000990 <processInput+0x20c>
10000a2e:	2206      	movs	r2, #6
10000a30:	4691      	mov	r9, r2
10000a32:	e7ad      	b.n	10000990 <processInput+0x20c>
10000a34:	2207      	movs	r2, #7
10000a36:	4691      	mov	r9, r2
10000a38:	e7aa      	b.n	10000990 <processInput+0x20c>
10000a3a:	2208      	movs	r2, #8
10000a3c:	4691      	mov	r9, r2
10000a3e:	e7a7      	b.n	10000990 <processInput+0x20c>
10000a40:	200008c4 	.word	0x200008c4
10000a44:	20000998 	.word	0x20000998
10000a48:	20000188 	.word	0x20000188
10000a4c:	200001d0 	.word	0x200001d0
10000a50:	2000088c 	.word	0x2000088c
10000a54:	20000894 	.word	0x20000894
10000a58:	200008f8 	.word	0x200008f8
10000a5c:	200001c8 	.word	0x200001c8
10000a60:	20000920 	.word	0x20000920
10000a64:	200030a0 	.word	0x200030a0
10000a68:	200008d0 	.word	0x200008d0
10000a6c:	20000970 	.word	0x20000970

10000a70 <drawShip>:
10000a70:	b5f0      	push	{r4, r5, r6, r7, lr}
10000a72:	46de      	mov	lr, fp
10000a74:	4657      	mov	r7, sl
10000a76:	464e      	mov	r6, r9
10000a78:	4645      	mov	r5, r8
10000a7a:	b5e0      	push	{r5, r6, r7, lr}
10000a7c:	001f      	movs	r7, r3
10000a7e:	4bb3      	ldr	r3, [pc, #716]	; (10000d4c <drawShip+0x2dc>)
10000a80:	4683      	mov	fp, r0
10000a82:	6818      	ldr	r0, [r3, #0]
10000a84:	2364      	movs	r3, #100	; 0x64
10000a86:	b09d      	sub	sp, #116	; 0x74
10000a88:	1a1b      	subs	r3, r3, r0
10000a8a:	4689      	mov	r9, r1
10000a8c:	0010      	movs	r0, r2
10000a8e:	0039      	movs	r1, r7
10000a90:	0016      	movs	r6, r2
10000a92:	4698      	mov	r8, r3
10000a94:	f005 fb06 	bl	100060a4 <__wrap_cos>
10000a98:	910e      	str	r1, [sp, #56]	; 0x38
10000a9a:	4682      	mov	sl, r0
10000a9c:	0039      	movs	r1, r7
10000a9e:	0030      	movs	r0, r6
10000aa0:	f005 fb16 	bl	100060d0 <__wrap_sin>
10000aa4:	4baa      	ldr	r3, [pc, #680]	; (10000d50 <drawShip+0x2e0>)
10000aa6:	0032      	movs	r2, r6
10000aa8:	685c      	ldr	r4, [r3, #4]
10000aaa:	681b      	ldr	r3, [r3, #0]
10000aac:	0025      	movs	r5, r4
10000aae:	001c      	movs	r4, r3
10000ab0:	9010      	str	r0, [sp, #64]	; 0x40
10000ab2:	003b      	movs	r3, r7
10000ab4:	0020      	movs	r0, r4
10000ab6:	9113      	str	r1, [sp, #76]	; 0x4c
10000ab8:	0029      	movs	r1, r5
10000aba:	9406      	str	r4, [sp, #24]
10000abc:	9507      	str	r5, [sp, #28]
10000abe:	f005 fa05 	bl	10005ecc <__wrap___aeabi_dadd>
10000ac2:	0004      	movs	r4, r0
10000ac4:	000d      	movs	r5, r1
10000ac6:	f005 faed 	bl	100060a4 <__wrap_cos>
10000aca:	9002      	str	r0, [sp, #8]
10000acc:	9103      	str	r1, [sp, #12]
10000ace:	0020      	movs	r0, r4
10000ad0:	0029      	movs	r1, r5
10000ad2:	f005 fafd 	bl	100060d0 <__wrap_sin>
10000ad6:	9a06      	ldr	r2, [sp, #24]
10000ad8:	9b07      	ldr	r3, [sp, #28]
10000ada:	9004      	str	r0, [sp, #16]
10000adc:	9105      	str	r1, [sp, #20]
10000ade:	0030      	movs	r0, r6
10000ae0:	0039      	movs	r1, r7
10000ae2:	f005 f9ea 	bl	10005eba <__wrap___aeabi_dsub>
10000ae6:	0004      	movs	r4, r0
10000ae8:	000d      	movs	r5, r1
10000aea:	f005 fadb 	bl	100060a4 <__wrap_cos>
10000aee:	9006      	str	r0, [sp, #24]
10000af0:	9107      	str	r1, [sp, #28]
10000af2:	0020      	movs	r0, r4
10000af4:	0029      	movs	r1, r5
10000af6:	f005 faeb 	bl	100060d0 <__wrap_sin>
10000afa:	4643      	mov	r3, r8
10000afc:	9008      	str	r0, [sp, #32]
10000afe:	9109      	str	r1, [sp, #36]	; 0x24
10000b00:	2b01      	cmp	r3, #1
10000b02:	dd04      	ble.n	10000b0e <drawShip+0x9e>
10000b04:	4b93      	ldr	r3, [pc, #588]	; (10000d54 <drawShip+0x2e4>)
10000b06:	681b      	ldr	r3, [r3, #0]
10000b08:	2b00      	cmp	r3, #0
10000b0a:	d100      	bne.n	10000b0e <drawShip+0x9e>
10000b0c:	e12c      	b.n	10000d68 <drawShip+0x2f8>
10000b0e:	2300      	movs	r3, #0
10000b10:	2400      	movs	r4, #0
10000b12:	930c      	str	r3, [sp, #48]	; 0x30
10000b14:	940d      	str	r4, [sp, #52]	; 0x34
10000b16:	930a      	str	r3, [sp, #40]	; 0x28
10000b18:	940b      	str	r4, [sp, #44]	; 0x2c
10000b1a:	931a      	str	r3, [sp, #104]	; 0x68
10000b1c:	941b      	str	r4, [sp, #108]	; 0x6c
10000b1e:	9318      	str	r3, [sp, #96]	; 0x60
10000b20:	9419      	str	r4, [sp, #100]	; 0x64
10000b22:	9316      	str	r3, [sp, #88]	; 0x58
10000b24:	9417      	str	r4, [sp, #92]	; 0x5c
10000b26:	9314      	str	r3, [sp, #80]	; 0x50
10000b28:	9415      	str	r4, [sp, #84]	; 0x54
10000b2a:	4b8b      	ldr	r3, [pc, #556]	; (10000d58 <drawShip+0x2e8>)
10000b2c:	4658      	mov	r0, fp
10000b2e:	681e      	ldr	r6, [r3, #0]
10000b30:	685f      	ldr	r7, [r3, #4]
10000b32:	f005 fa4d 	bl	10005fd0 <__wrap___aeabi_i2d>
10000b36:	9b0e      	ldr	r3, [sp, #56]	; 0x38
10000b38:	0004      	movs	r4, r0
10000b3a:	000d      	movs	r5, r1
10000b3c:	4652      	mov	r2, sl
10000b3e:	0030      	movs	r0, r6
10000b40:	0039      	movs	r1, r7
10000b42:	f005 f9d5 	bl	10005ef0 <__wrap___aeabi_dmul>
10000b46:	0002      	movs	r2, r0
10000b48:	000b      	movs	r3, r1
10000b4a:	0020      	movs	r0, r4
10000b4c:	0029      	movs	r1, r5
10000b4e:	f005 f9bd 	bl	10005ecc <__wrap___aeabi_dadd>
10000b52:	9a14      	ldr	r2, [sp, #80]	; 0x50
10000b54:	9b15      	ldr	r3, [sp, #84]	; 0x54
10000b56:	0004      	movs	r4, r0
10000b58:	000d      	movs	r5, r1
10000b5a:	f005 f9b7 	bl	10005ecc <__wrap___aeabi_dadd>
10000b5e:	f005 fa4f 	bl	10006000 <__wrap___aeabi_d2iz>
10000b62:	9a16      	ldr	r2, [sp, #88]	; 0x58
10000b64:	9b17      	ldr	r3, [sp, #92]	; 0x5c
10000b66:	4683      	mov	fp, r0
10000b68:	0029      	movs	r1, r5
10000b6a:	0020      	movs	r0, r4
10000b6c:	940e      	str	r4, [sp, #56]	; 0x38
10000b6e:	950f      	str	r5, [sp, #60]	; 0x3c
10000b70:	f005 f9ac 	bl	10005ecc <__wrap___aeabi_dadd>
10000b74:	f005 fa44 	bl	10006000 <__wrap___aeabi_d2iz>
10000b78:	4680      	mov	r8, r0
10000b7a:	4648      	mov	r0, r9
10000b7c:	f005 fa28 	bl	10005fd0 <__wrap___aeabi_i2d>
10000b80:	9a10      	ldr	r2, [sp, #64]	; 0x40
10000b82:	9b13      	ldr	r3, [sp, #76]	; 0x4c
10000b84:	0004      	movs	r4, r0
10000b86:	000d      	movs	r5, r1
10000b88:	0030      	movs	r0, r6
10000b8a:	0039      	movs	r1, r7
10000b8c:	f005 f9b0 	bl	10005ef0 <__wrap___aeabi_dmul>
10000b90:	0002      	movs	r2, r0
10000b92:	000b      	movs	r3, r1
10000b94:	0020      	movs	r0, r4
10000b96:	0029      	movs	r1, r5
10000b98:	f005 f998 	bl	10005ecc <__wrap___aeabi_dadd>
10000b9c:	9a18      	ldr	r2, [sp, #96]	; 0x60
10000b9e:	9b19      	ldr	r3, [sp, #100]	; 0x64
10000ba0:	0004      	movs	r4, r0
10000ba2:	000d      	movs	r5, r1
10000ba4:	f005 f992 	bl	10005ecc <__wrap___aeabi_dadd>
10000ba8:	f005 fa2a 	bl	10006000 <__wrap___aeabi_d2iz>
10000bac:	9a1a      	ldr	r2, [sp, #104]	; 0x68
10000bae:	9b1b      	ldr	r3, [sp, #108]	; 0x6c
10000bb0:	4681      	mov	r9, r0
10000bb2:	0029      	movs	r1, r5
10000bb4:	0020      	movs	r0, r4
10000bb6:	9410      	str	r4, [sp, #64]	; 0x40
10000bb8:	9511      	str	r5, [sp, #68]	; 0x44
10000bba:	f005 f987 	bl	10005ecc <__wrap___aeabi_dadd>
10000bbe:	f005 fa1f 	bl	10006000 <__wrap___aeabi_d2iz>
10000bc2:	4b66      	ldr	r3, [pc, #408]	; (10000d5c <drawShip+0x2ec>)
10000bc4:	4682      	mov	sl, r0
10000bc6:	681e      	ldr	r6, [r3, #0]
10000bc8:	685f      	ldr	r7, [r3, #4]
10000bca:	4658      	mov	r0, fp
10000bcc:	f005 fa00 	bl	10005fd0 <__wrap___aeabi_i2d>
10000bd0:	9a02      	ldr	r2, [sp, #8]
10000bd2:	9b03      	ldr	r3, [sp, #12]
10000bd4:	0004      	movs	r4, r0
10000bd6:	000d      	movs	r5, r1
10000bd8:	0030      	movs	r0, r6
10000bda:	0039      	movs	r1, r7
10000bdc:	f005 f988 	bl	10005ef0 <__wrap___aeabi_dmul>
10000be0:	0002      	movs	r2, r0
10000be2:	000b      	movs	r3, r1
10000be4:	0020      	movs	r0, r4
10000be6:	0029      	movs	r1, r5
10000be8:	f005 f967 	bl	10005eba <__wrap___aeabi_dsub>
10000bec:	f005 fa08 	bl	10006000 <__wrap___aeabi_d2iz>
10000bf0:	9013      	str	r0, [sp, #76]	; 0x4c
10000bf2:	4648      	mov	r0, r9
10000bf4:	f005 f9ec 	bl	10005fd0 <__wrap___aeabi_i2d>
10000bf8:	9a04      	ldr	r2, [sp, #16]
10000bfa:	9b05      	ldr	r3, [sp, #20]
10000bfc:	0004      	movs	r4, r0
10000bfe:	000d      	movs	r5, r1
10000c00:	0030      	movs	r0, r6
10000c02:	0039      	movs	r1, r7
10000c04:	f005 f974 	bl	10005ef0 <__wrap___aeabi_dmul>
10000c08:	0002      	movs	r2, r0
10000c0a:	000b      	movs	r3, r1
10000c0c:	0020      	movs	r0, r4
10000c0e:	0029      	movs	r1, r5
10000c10:	f005 f953 	bl	10005eba <__wrap___aeabi_dsub>
10000c14:	f005 f9f4 	bl	10006000 <__wrap___aeabi_d2iz>
10000c18:	9014      	str	r0, [sp, #80]	; 0x50
10000c1a:	4640      	mov	r0, r8
10000c1c:	f005 f9d8 	bl	10005fd0 <__wrap___aeabi_i2d>
10000c20:	9a06      	ldr	r2, [sp, #24]
10000c22:	9b07      	ldr	r3, [sp, #28]
10000c24:	0004      	movs	r4, r0
10000c26:	000d      	movs	r5, r1
10000c28:	0030      	movs	r0, r6
10000c2a:	0039      	movs	r1, r7
10000c2c:	f005 f960 	bl	10005ef0 <__wrap___aeabi_dmul>
10000c30:	0002      	movs	r2, r0
10000c32:	000b      	movs	r3, r1
10000c34:	0020      	movs	r0, r4
10000c36:	0029      	movs	r1, r5
10000c38:	f005 f93f 	bl	10005eba <__wrap___aeabi_dsub>
10000c3c:	f005 f9e0 	bl	10006000 <__wrap___aeabi_d2iz>
10000c40:	9016      	str	r0, [sp, #88]	; 0x58
10000c42:	4650      	mov	r0, sl
10000c44:	f005 f9c4 	bl	10005fd0 <__wrap___aeabi_i2d>
10000c48:	9a08      	ldr	r2, [sp, #32]
10000c4a:	9b09      	ldr	r3, [sp, #36]	; 0x24
10000c4c:	0004      	movs	r4, r0
10000c4e:	000d      	movs	r5, r1
10000c50:	0030      	movs	r0, r6
10000c52:	0039      	movs	r1, r7
10000c54:	f005 f94c 	bl	10005ef0 <__wrap___aeabi_dmul>
10000c58:	0002      	movs	r2, r0
10000c5a:	000b      	movs	r3, r1
10000c5c:	0020      	movs	r0, r4
10000c5e:	0029      	movs	r1, r5
10000c60:	f005 f92b 	bl	10005eba <__wrap___aeabi_dsub>
10000c64:	f005 f9cc 	bl	10006000 <__wrap___aeabi_d2iz>
10000c68:	4b3d      	ldr	r3, [pc, #244]	; (10000d60 <drawShip+0x2f0>)
10000c6a:	9018      	str	r0, [sp, #96]	; 0x60
10000c6c:	681c      	ldr	r4, [r3, #0]
10000c6e:	685d      	ldr	r5, [r3, #4]
10000c70:	9a02      	ldr	r2, [sp, #8]
10000c72:	9b03      	ldr	r3, [sp, #12]
10000c74:	0020      	movs	r0, r4
10000c76:	0029      	movs	r1, r5
10000c78:	f005 f93a 	bl	10005ef0 <__wrap___aeabi_dmul>
10000c7c:	0002      	movs	r2, r0
10000c7e:	000b      	movs	r3, r1
10000c80:	980e      	ldr	r0, [sp, #56]	; 0x38
10000c82:	990f      	ldr	r1, [sp, #60]	; 0x3c
10000c84:	f005 f919 	bl	10005eba <__wrap___aeabi_dsub>
10000c88:	9a0a      	ldr	r2, [sp, #40]	; 0x28
10000c8a:	9b0b      	ldr	r3, [sp, #44]	; 0x2c
10000c8c:	f005 f91e 	bl	10005ecc <__wrap___aeabi_dadd>
10000c90:	f005 f9b6 	bl	10006000 <__wrap___aeabi_d2iz>
10000c94:	9a04      	ldr	r2, [sp, #16]
10000c96:	9b05      	ldr	r3, [sp, #20]
10000c98:	0006      	movs	r6, r0
10000c9a:	0029      	movs	r1, r5
10000c9c:	0020      	movs	r0, r4
10000c9e:	f005 f927 	bl	10005ef0 <__wrap___aeabi_dmul>
10000ca2:	0002      	movs	r2, r0
10000ca4:	000b      	movs	r3, r1
10000ca6:	9810      	ldr	r0, [sp, #64]	; 0x40
10000ca8:	9911      	ldr	r1, [sp, #68]	; 0x44
10000caa:	f005 f906 	bl	10005eba <__wrap___aeabi_dsub>
10000cae:	9a0c      	ldr	r2, [sp, #48]	; 0x30
10000cb0:	9b0d      	ldr	r3, [sp, #52]	; 0x34
10000cb2:	f005 f90b 	bl	10005ecc <__wrap___aeabi_dadd>
10000cb6:	f005 f9a3 	bl	10006000 <__wrap___aeabi_d2iz>
10000cba:	9a06      	ldr	r2, [sp, #24]
10000cbc:	9b07      	ldr	r3, [sp, #28]
10000cbe:	0007      	movs	r7, r0
10000cc0:	0029      	movs	r1, r5
10000cc2:	0020      	movs	r0, r4
10000cc4:	f005 f914 	bl	10005ef0 <__wrap___aeabi_dmul>
10000cc8:	0002      	movs	r2, r0
10000cca:	000b      	movs	r3, r1
10000ccc:	980e      	ldr	r0, [sp, #56]	; 0x38
10000cce:	990f      	ldr	r1, [sp, #60]	; 0x3c
10000cd0:	f005 f8f3 	bl	10005eba <__wrap___aeabi_dsub>
10000cd4:	9a0a      	ldr	r2, [sp, #40]	; 0x28
10000cd6:	9b0b      	ldr	r3, [sp, #44]	; 0x2c
10000cd8:	f005 f8f8 	bl	10005ecc <__wrap___aeabi_dadd>
10000cdc:	f005 f990 	bl	10006000 <__wrap___aeabi_d2iz>
10000ce0:	9a08      	ldr	r2, [sp, #32]
10000ce2:	9b09      	ldr	r3, [sp, #36]	; 0x24
10000ce4:	0029      	movs	r1, r5
10000ce6:	9002      	str	r0, [sp, #8]
10000ce8:	0020      	movs	r0, r4
10000cea:	f005 f901 	bl	10005ef0 <__wrap___aeabi_dmul>
10000cee:	0002      	movs	r2, r0
10000cf0:	000b      	movs	r3, r1
10000cf2:	9810      	ldr	r0, [sp, #64]	; 0x40
10000cf4:	9911      	ldr	r1, [sp, #68]	; 0x44
10000cf6:	f005 f8e0 	bl	10005eba <__wrap___aeabi_dsub>
10000cfa:	9a0c      	ldr	r2, [sp, #48]	; 0x30
10000cfc:	9b0d      	ldr	r3, [sp, #52]	; 0x34
10000cfe:	f005 f8e5 	bl	10005ecc <__wrap___aeabi_dadd>
10000d02:	f005 f97d 	bl	10006000 <__wrap___aeabi_d2iz>
10000d06:	2501      	movs	r5, #1
10000d08:	0004      	movs	r4, r0
10000d0a:	4649      	mov	r1, r9
10000d0c:	4658      	mov	r0, fp
10000d0e:	9b14      	ldr	r3, [sp, #80]	; 0x50
10000d10:	9a13      	ldr	r2, [sp, #76]	; 0x4c
10000d12:	9500      	str	r5, [sp, #0]
10000d14:	f001 fcde 	bl	100026d4 <drawLine>
10000d18:	4651      	mov	r1, sl
10000d1a:	4640      	mov	r0, r8
10000d1c:	9b18      	ldr	r3, [sp, #96]	; 0x60
10000d1e:	9a16      	ldr	r2, [sp, #88]	; 0x58
10000d20:	9500      	str	r5, [sp, #0]
10000d22:	f001 fcd7 	bl	100026d4 <drawLine>
10000d26:	0023      	movs	r3, r4
10000d28:	0039      	movs	r1, r7
10000d2a:	0030      	movs	r0, r6
10000d2c:	9a02      	ldr	r2, [sp, #8]
10000d2e:	9500      	str	r5, [sp, #0]
10000d30:	f001 fcd0 	bl	100026d4 <drawLine>
10000d34:	4b0b      	ldr	r3, [pc, #44]	; (10000d64 <drawShip+0x2f4>)
10000d36:	681b      	ldr	r3, [r3, #0]
10000d38:	2b00      	cmp	r3, #0
10000d3a:	d000      	beq.n	10000d3e <drawShip+0x2ce>
10000d3c:	e093      	b.n	10000e66 <drawShip+0x3f6>
10000d3e:	b01d      	add	sp, #116	; 0x74
10000d40:	bc3c      	pop	{r2, r3, r4, r5}
10000d42:	4690      	mov	r8, r2
10000d44:	4699      	mov	r9, r3
10000d46:	46a2      	mov	sl, r4
10000d48:	46ab      	mov	fp, r5
10000d4a:	bdf0      	pop	{r4, r5, r6, r7, pc}
10000d4c:	200030f4 	.word	0x200030f4
10000d50:	200001d8 	.word	0x200001d8
10000d54:	20000998 	.word	0x20000998
10000d58:	200001a8 	.word	0x200001a8
10000d5c:	200001a0 	.word	0x200001a0
10000d60:	200001b0 	.word	0x200001b0
10000d64:	20000888 	.word	0x20000888
10000d68:	4643      	mov	r3, r8
10000d6a:	1058      	asrs	r0, r3, #1
10000d6c:	f005 f930 	bl	10005fd0 <__wrap___aeabi_i2d>
10000d70:	4a4c      	ldr	r2, [pc, #304]	; (10000ea4 <drawShip+0x434>)
10000d72:	4b4d      	ldr	r3, [pc, #308]	; (10000ea8 <drawShip+0x438>)
10000d74:	9014      	str	r0, [sp, #80]	; 0x50
10000d76:	9115      	str	r1, [sp, #84]	; 0x54
10000d78:	0030      	movs	r0, r6
10000d7a:	0039      	movs	r1, r7
10000d7c:	f005 f89d 	bl	10005eba <__wrap___aeabi_dsub>
10000d80:	0004      	movs	r4, r0
10000d82:	000d      	movs	r5, r1
10000d84:	f005 f98e 	bl	100060a4 <__wrap_cos>
10000d88:	900a      	str	r0, [sp, #40]	; 0x28
10000d8a:	910b      	str	r1, [sp, #44]	; 0x2c
10000d8c:	0020      	movs	r0, r4
10000d8e:	0029      	movs	r1, r5
10000d90:	f005 f99e 	bl	100060d0 <__wrap_sin>
10000d94:	4a43      	ldr	r2, [pc, #268]	; (10000ea4 <drawShip+0x434>)
10000d96:	4b44      	ldr	r3, [pc, #272]	; (10000ea8 <drawShip+0x438>)
10000d98:	900c      	str	r0, [sp, #48]	; 0x30
10000d9a:	910d      	str	r1, [sp, #52]	; 0x34
10000d9c:	0030      	movs	r0, r6
10000d9e:	0039      	movs	r1, r7
10000da0:	f005 f894 	bl	10005ecc <__wrap___aeabi_dadd>
10000da4:	0004      	movs	r4, r0
10000da6:	000d      	movs	r5, r1
10000da8:	f005 f97c 	bl	100060a4 <__wrap_cos>
10000dac:	9016      	str	r0, [sp, #88]	; 0x58
10000dae:	9117      	str	r1, [sp, #92]	; 0x5c
10000db0:	0020      	movs	r0, r4
10000db2:	0029      	movs	r1, r5
10000db4:	f005 f98c 	bl	100060d0 <__wrap_sin>
10000db8:	9e14      	ldr	r6, [sp, #80]	; 0x50
10000dba:	9f15      	ldr	r7, [sp, #84]	; 0x54
10000dbc:	0004      	movs	r4, r0
10000dbe:	0032      	movs	r2, r6
10000dc0:	003b      	movs	r3, r7
10000dc2:	000d      	movs	r5, r1
10000dc4:	980a      	ldr	r0, [sp, #40]	; 0x28
10000dc6:	990b      	ldr	r1, [sp, #44]	; 0x2c
10000dc8:	f005 f892 	bl	10005ef0 <__wrap___aeabi_dmul>
10000dcc:	f005 f918 	bl	10006000 <__wrap___aeabi_d2iz>
10000dd0:	f005 f8fe 	bl	10005fd0 <__wrap___aeabi_i2d>
10000dd4:	0032      	movs	r2, r6
10000dd6:	003b      	movs	r3, r7
10000dd8:	9014      	str	r0, [sp, #80]	; 0x50
10000dda:	9115      	str	r1, [sp, #84]	; 0x54
10000ddc:	9816      	ldr	r0, [sp, #88]	; 0x58
10000dde:	9917      	ldr	r1, [sp, #92]	; 0x5c
10000de0:	f005 f886 	bl	10005ef0 <__wrap___aeabi_dmul>
10000de4:	f005 f90c 	bl	10006000 <__wrap___aeabi_d2iz>
10000de8:	f005 f8f2 	bl	10005fd0 <__wrap___aeabi_i2d>
10000dec:	0032      	movs	r2, r6
10000dee:	003b      	movs	r3, r7
10000df0:	9016      	str	r0, [sp, #88]	; 0x58
10000df2:	9117      	str	r1, [sp, #92]	; 0x5c
10000df4:	980c      	ldr	r0, [sp, #48]	; 0x30
10000df6:	990d      	ldr	r1, [sp, #52]	; 0x34
10000df8:	f005 f87a 	bl	10005ef0 <__wrap___aeabi_dmul>
10000dfc:	f005 f900 	bl	10006000 <__wrap___aeabi_d2iz>
10000e00:	f005 f8e6 	bl	10005fd0 <__wrap___aeabi_i2d>
10000e04:	0032      	movs	r2, r6
10000e06:	003b      	movs	r3, r7
10000e08:	9018      	str	r0, [sp, #96]	; 0x60
10000e0a:	9119      	str	r1, [sp, #100]	; 0x64
10000e0c:	0020      	movs	r0, r4
10000e0e:	0029      	movs	r1, r5
10000e10:	f005 f86e 	bl	10005ef0 <__wrap___aeabi_dmul>
10000e14:	f005 f8f4 	bl	10006000 <__wrap___aeabi_d2iz>
10000e18:	f005 f8da 	bl	10005fd0 <__wrap___aeabi_i2d>
10000e1c:	003d      	movs	r5, r7
10000e1e:	003b      	movs	r3, r7
10000e20:	2780      	movs	r7, #128	; 0x80
10000e22:	063f      	lsls	r7, r7, #24
10000e24:	46bc      	mov	ip, r7
10000e26:	0032      	movs	r2, r6
10000e28:	0034      	movs	r4, r6
10000e2a:	9e0e      	ldr	r6, [sp, #56]	; 0x38
10000e2c:	901a      	str	r0, [sp, #104]	; 0x68
10000e2e:	911b      	str	r1, [sp, #108]	; 0x6c
10000e30:	4466      	add	r6, ip
10000e32:	4650      	mov	r0, sl
10000e34:	0031      	movs	r1, r6
10000e36:	f005 f85b 	bl	10005ef0 <__wrap___aeabi_dmul>
10000e3a:	f005 f8e1 	bl	10006000 <__wrap___aeabi_d2iz>
10000e3e:	f005 f8c7 	bl	10005fd0 <__wrap___aeabi_i2d>
10000e42:	46bc      	mov	ip, r7
10000e44:	0022      	movs	r2, r4
10000e46:	9c13      	ldr	r4, [sp, #76]	; 0x4c
10000e48:	002b      	movs	r3, r5
10000e4a:	4464      	add	r4, ip
10000e4c:	900a      	str	r0, [sp, #40]	; 0x28
10000e4e:	910b      	str	r1, [sp, #44]	; 0x2c
10000e50:	9810      	ldr	r0, [sp, #64]	; 0x40
10000e52:	0021      	movs	r1, r4
10000e54:	f005 f84c 	bl	10005ef0 <__wrap___aeabi_dmul>
10000e58:	f005 f8d2 	bl	10006000 <__wrap___aeabi_d2iz>
10000e5c:	f005 f8b8 	bl	10005fd0 <__wrap___aeabi_i2d>
10000e60:	900c      	str	r0, [sp, #48]	; 0x30
10000e62:	910d      	str	r1, [sp, #52]	; 0x34
10000e64:	e661      	b.n	10000b2a <drawShip+0xba>
10000e66:	4649      	mov	r1, r9
10000e68:	4658      	mov	r0, fp
10000e6a:	9b14      	ldr	r3, [sp, #80]	; 0x50
10000e6c:	9a13      	ldr	r2, [sp, #76]	; 0x4c
10000e6e:	3301      	adds	r3, #1
10000e70:	3201      	adds	r2, #1
10000e72:	3101      	adds	r1, #1
10000e74:	3001      	adds	r0, #1
10000e76:	9500      	str	r5, [sp, #0]
10000e78:	f001 fc2c 	bl	100026d4 <drawLine>
10000e7c:	4651      	mov	r1, sl
10000e7e:	4640      	mov	r0, r8
10000e80:	9b18      	ldr	r3, [sp, #96]	; 0x60
10000e82:	9a16      	ldr	r2, [sp, #88]	; 0x58
10000e84:	3301      	adds	r3, #1
10000e86:	3201      	adds	r2, #1
10000e88:	3101      	adds	r1, #1
10000e8a:	3001      	adds	r0, #1
10000e8c:	9500      	str	r5, [sp, #0]
10000e8e:	f001 fc21 	bl	100026d4 <drawLine>
10000e92:	9a02      	ldr	r2, [sp, #8]
10000e94:	1c63      	adds	r3, r4, #1
10000e96:	3201      	adds	r2, #1
10000e98:	1c79      	adds	r1, r7, #1
10000e9a:	1c70      	adds	r0, r6, #1
10000e9c:	9500      	str	r5, [sp, #0]
10000e9e:	f001 fc19 	bl	100026d4 <drawLine>
10000ea2:	e74c      	b.n	10000d3e <drawShip+0x2ce>
10000ea4:	e5604189 	.word	0xe5604189
10000ea8:	3ff922d0 	.word	0x3ff922d0

10000eac <splitRoid>:
10000eac:	b5f0      	push	{r4, r5, r6, r7, lr}
10000eae:	4657      	mov	r7, sl
10000eb0:	46de      	mov	lr, fp
10000eb2:	4645      	mov	r5, r8
10000eb4:	464e      	mov	r6, r9
10000eb6:	4bd8      	ldr	r3, [pc, #864]	; (10001218 <splitRoid+0x36c>)
10000eb8:	4682      	mov	sl, r0
10000eba:	469b      	mov	fp, r3
10000ebc:	b5e0      	push	{r5, r6, r7, lr}
10000ebe:	4cd7      	ldr	r4, [pc, #860]	; (1000121c <splitRoid+0x370>)
10000ec0:	0043      	lsls	r3, r0, #1
10000ec2:	44a5      	add	sp, r4
10000ec4:	9307      	str	r3, [sp, #28]
10000ec6:	4453      	add	r3, sl
10000ec8:	009d      	lsls	r5, r3, #2
10000eca:	465b      	mov	r3, fp
10000ecc:	4455      	add	r5, sl
10000ece:	01ad      	lsls	r5, r5, #6
10000ed0:	9101      	str	r1, [sp, #4]
10000ed2:	1959      	adds	r1, r3, r5
10000ed4:	23c8      	movs	r3, #200	; 0xc8
10000ed6:	009b      	lsls	r3, r3, #2
10000ed8:	18cb      	adds	r3, r1, r3
10000eda:	681f      	ldr	r7, [r3, #0]
10000edc:	0014      	movs	r4, r2
10000ede:	2f00      	cmp	r7, #0
10000ee0:	dc00      	bgt.n	10000ee4 <splitRoid+0x38>
10000ee2:	e20b      	b.n	100012fc <splitRoid+0x450>
10000ee4:	00fb      	lsls	r3, r7, #3
10000ee6:	ae0a      	add	r6, sp, #40	; 0x28
10000ee8:	001a      	movs	r2, r3
10000eea:	0030      	movs	r0, r6
10000eec:	4698      	mov	r8, r3
10000eee:	f006 f92f 	bl	10007150 <__wrap___aeabi_memcpy>
10000ef2:	0029      	movs	r1, r5
10000ef4:	3191      	adds	r1, #145	; 0x91
10000ef6:	31ff      	adds	r1, #255	; 0xff
10000ef8:	4642      	mov	r2, r8
10000efa:	4459      	add	r1, fp
10000efc:	a86e      	add	r0, sp, #440	; 0x1b8
10000efe:	f006 f927 	bl	10007150 <__wrap___aeabi_memcpy>
10000f02:	22ce      	movs	r2, #206	; 0xce
10000f04:	0092      	lsls	r2, r2, #2
10000f06:	4694      	mov	ip, r2
10000f08:	9b07      	ldr	r3, [sp, #28]
10000f0a:	4453      	add	r3, sl
10000f0c:	009b      	lsls	r3, r3, #2
10000f0e:	4453      	add	r3, sl
10000f10:	019b      	lsls	r3, r3, #6
10000f12:	445b      	add	r3, fp
10000f14:	4463      	add	r3, ip
10000f16:	681a      	ldr	r2, [r3, #0]
10000f18:	3a01      	subs	r2, #1
10000f1a:	601a      	str	r2, [r3, #0]
10000f1c:	0ffb      	lsrs	r3, r7, #31
10000f1e:	19db      	adds	r3, r3, r7
10000f20:	105b      	asrs	r3, r3, #1
10000f22:	191d      	adds	r5, r3, r4
10000f24:	469c      	mov	ip, r3
10000f26:	42bd      	cmp	r5, r7
10000f28:	db00      	blt.n	10000f2c <splitRoid+0x80>
10000f2a:	1bed      	subs	r5, r5, r7
10000f2c:	2f01      	cmp	r7, #1
10000f2e:	dc00      	bgt.n	10000f32 <splitRoid+0x86>
10000f30:	e1de      	b.n	100012f0 <splitRoid+0x444>
10000f32:	9b01      	ldr	r3, [sp, #4]
10000f34:	2b00      	cmp	r3, #0
10000f36:	da00      	bge.n	10000f3a <splitRoid+0x8e>
10000f38:	e174      	b.n	10001224 <splitRoid+0x378>
10000f3a:	9b07      	ldr	r3, [sp, #28]
10000f3c:	4659      	mov	r1, fp
10000f3e:	4453      	add	r3, sl
10000f40:	009b      	lsls	r3, r3, #2
10000f42:	4453      	add	r3, sl
10000f44:	019b      	lsls	r3, r3, #6
10000f46:	4698      	mov	r8, r3
10000f48:	9300      	str	r3, [sp, #0]
10000f4a:	9b01      	ldr	r3, [sp, #4]
10000f4c:	4441      	add	r1, r8
10000f4e:	9108      	str	r1, [sp, #32]
10000f50:	0599      	lsls	r1, r3, #22
10000f52:	4698      	mov	r8, r3
10000f54:	0058      	lsls	r0, r3, #1
10000f56:	000b      	movs	r3, r1
10000f58:	9901      	ldr	r1, [sp, #4]
10000f5a:	4440      	add	r0, r8
10000f5c:	1a59      	subs	r1, r3, r1
10000f5e:	00cb      	lsls	r3, r1, #3
10000f60:	9901      	ldr	r1, [sp, #4]
10000f62:	0080      	lsls	r0, r0, #2
10000f64:	4689      	mov	r9, r1
10000f66:	4440      	add	r0, r8
10000f68:	4698      	mov	r8, r3
10000f6a:	44c8      	add	r8, r9
10000f6c:	4643      	mov	r3, r8
10000f6e:	005b      	lsls	r3, r3, #1
10000f70:	4698      	mov	r8, r3
10000f72:	44c8      	add	r8, r9
10000f74:	4643      	mov	r3, r8
10000f76:	019b      	lsls	r3, r3, #6
10000f78:	9306      	str	r3, [sp, #24]
10000f7a:	4653      	mov	r3, sl
10000f7c:	4651      	mov	r1, sl
10000f7e:	059b      	lsls	r3, r3, #22
10000f80:	1a5b      	subs	r3, r3, r1
10000f82:	00db      	lsls	r3, r3, #3
10000f84:	4699      	mov	r9, r3
10000f86:	44d1      	add	r9, sl
10000f88:	464b      	mov	r3, r9
10000f8a:	005b      	lsls	r3, r3, #1
10000f8c:	4699      	mov	r9, r3
10000f8e:	44d1      	add	r9, sl
10000f90:	464b      	mov	r3, r9
10000f92:	019b      	lsls	r3, r3, #6
10000f94:	4699      	mov	r9, r3
10000f96:	2300      	movs	r3, #0
10000f98:	4698      	mov	r8, r3
10000f9a:	9b00      	ldr	r3, [sp, #0]
10000f9c:	465a      	mov	r2, fp
10000f9e:	3391      	adds	r3, #145	; 0x91
10000fa0:	33ff      	adds	r3, #255	; 0xff
10000fa2:	9302      	str	r3, [sp, #8]
10000fa4:	003b      	movs	r3, r7
10000fa6:	0180      	lsls	r0, r0, #6
10000fa8:	1812      	adds	r2, r2, r0
10000faa:	9200      	str	r2, [sp, #0]
10000fac:	4652      	mov	r2, sl
10000fae:	4647      	mov	r7, r8
10000fb0:	4698      	mov	r8, r3
10000fb2:	3091      	adds	r0, #145	; 0x91
10000fb4:	30ff      	adds	r0, #255	; 0xff
10000fb6:	9908      	ldr	r1, [sp, #32]
10000fb8:	9004      	str	r0, [sp, #16]
10000fba:	9208      	str	r2, [sp, #32]
10000fbc:	00e3      	lsls	r3, r4, #3
10000fbe:	18f3      	adds	r3, r6, r3
10000fc0:	681a      	ldr	r2, [r3, #0]
10000fc2:	685b      	ldr	r3, [r3, #4]
10000fc4:	9800      	ldr	r0, [sp, #0]
10000fc6:	600a      	str	r2, [r1, #0]
10000fc8:	604b      	str	r3, [r1, #4]
10000fca:	9b06      	ldr	r3, [sp, #24]
10000fcc:	3701      	adds	r7, #1
10000fce:	1818      	adds	r0, r3, r0
10000fd0:	9b02      	ldr	r3, [sp, #8]
10000fd2:	469a      	mov	sl, r3
10000fd4:	0023      	movs	r3, r4
10000fd6:	3332      	adds	r3, #50	; 0x32
10000fd8:	00db      	lsls	r3, r3, #3
10000fda:	4450      	add	r0, sl
10000fdc:	18f3      	adds	r3, r6, r3
10000fde:	681a      	ldr	r2, [r3, #0]
10000fe0:	685b      	ldr	r3, [r3, #4]
10000fe2:	6002      	str	r2, [r0, #0]
10000fe4:	6043      	str	r3, [r0, #4]
10000fe6:	9800      	ldr	r0, [sp, #0]
10000fe8:	00eb      	lsls	r3, r5, #3
10000fea:	18f3      	adds	r3, r6, r3
10000fec:	681a      	ldr	r2, [r3, #0]
10000fee:	685b      	ldr	r3, [r3, #4]
10000ff0:	6002      	str	r2, [r0, #0]
10000ff2:	6043      	str	r3, [r0, #4]
10000ff4:	464b      	mov	r3, r9
10000ff6:	18c8      	adds	r0, r1, r3
10000ff8:	9b04      	ldr	r3, [sp, #16]
10000ffa:	3401      	adds	r4, #1
10000ffc:	469a      	mov	sl, r3
10000ffe:	002b      	movs	r3, r5
10001000:	3332      	adds	r3, #50	; 0x32
10001002:	00db      	lsls	r3, r3, #3
10001004:	4450      	add	r0, sl
10001006:	18f3      	adds	r3, r6, r3
10001008:	681a      	ldr	r2, [r3, #0]
1000100a:	685b      	ldr	r3, [r3, #4]
1000100c:	3501      	adds	r5, #1
1000100e:	6002      	str	r2, [r0, #0]
10001010:	6043      	str	r3, [r0, #4]
10001012:	45a0      	cmp	r8, r4
10001014:	dc00      	bgt.n	10001018 <splitRoid+0x16c>
10001016:	2400      	movs	r4, #0
10001018:	45a8      	cmp	r8, r5
1000101a:	dc00      	bgt.n	1000101e <splitRoid+0x172>
1000101c:	2500      	movs	r5, #0
1000101e:	9b00      	ldr	r3, [sp, #0]
10001020:	3108      	adds	r1, #8
10001022:	3308      	adds	r3, #8
10001024:	9300      	str	r3, [sp, #0]
10001026:	45bc      	cmp	ip, r7
10001028:	dcc8      	bgt.n	10000fbc <splitRoid+0x110>
1000102a:	4647      	mov	r7, r8
1000102c:	9b08      	ldr	r3, [sp, #32]
1000102e:	469a      	mov	sl, r3
10001030:	2300      	movs	r3, #0
10001032:	2f01      	cmp	r7, #1
10001034:	dd00      	ble.n	10001038 <splitRoid+0x18c>
10001036:	e121      	b.n	1000127c <splitRoid+0x3d0>
10001038:	4662      	mov	r2, ip
1000103a:	9200      	str	r2, [sp, #0]
1000103c:	2a00      	cmp	r2, #0
1000103e:	dc01      	bgt.n	10001044 <splitRoid+0x198>
10001040:	2201      	movs	r2, #1
10001042:	9200      	str	r2, [sp, #0]
10001044:	4464      	add	r4, ip
10001046:	0025      	movs	r5, r4
10001048:	42bc      	cmp	r4, r7
1000104a:	db00      	blt.n	1000104e <splitRoid+0x1a2>
1000104c:	e0e2      	b.n	10001214 <splitRoid+0x368>
1000104e:	9a00      	ldr	r2, [sp, #0]
10001050:	3201      	adds	r2, #1
10001052:	9206      	str	r2, [sp, #24]
10001054:	00ea      	lsls	r2, r5, #3
10001056:	18b2      	adds	r2, r6, r2
10001058:	6810      	ldr	r0, [r2, #0]
1000105a:	6851      	ldr	r1, [r2, #4]
1000105c:	4654      	mov	r4, sl
1000105e:	2268      	movs	r2, #104	; 0x68
10001060:	4362      	muls	r2, r4
10001062:	4691      	mov	r9, r2
10001064:	444b      	add	r3, r9
10001066:	001c      	movs	r4, r3
10001068:	00db      	lsls	r3, r3, #3
1000106a:	445b      	add	r3, fp
1000106c:	681a      	ldr	r2, [r3, #0]
1000106e:	685b      	ldr	r3, [r3, #4]
10001070:	9002      	str	r0, [sp, #8]
10001072:	9103      	str	r1, [sp, #12]
10001074:	f004 ff2a 	bl	10005ecc <__wrap___aeabi_dadd>
10001078:	2200      	movs	r2, #0
1000107a:	4b69      	ldr	r3, [pc, #420]	; (10001220 <splitRoid+0x374>)
1000107c:	f004 ff38 	bl	10005ef0 <__wrap___aeabi_dmul>
10001080:	2380      	movs	r3, #128	; 0x80
10001082:	2200      	movs	r2, #0
10001084:	05db      	lsls	r3, r3, #23
10001086:	f004 ff21 	bl	10005ecc <__wrap___aeabi_dadd>
1000108a:	9b00      	ldr	r3, [sp, #0]
1000108c:	000a      	movs	r2, r1
1000108e:	001f      	movs	r7, r3
10001090:	444f      	add	r7, r9
10001092:	00fb      	lsls	r3, r7, #3
10001094:	4698      	mov	r8, r3
10001096:	44d8      	add	r8, fp
10001098:	0001      	movs	r1, r0
1000109a:	4643      	mov	r3, r8
1000109c:	3532      	adds	r5, #50	; 0x32
1000109e:	3432      	adds	r4, #50	; 0x32
100010a0:	00ed      	lsls	r5, r5, #3
100010a2:	00e4      	lsls	r4, r4, #3
100010a4:	445c      	add	r4, fp
100010a6:	1976      	adds	r6, r6, r5
100010a8:	6835      	ldr	r5, [r6, #0]
100010aa:	6876      	ldr	r6, [r6, #4]
100010ac:	9108      	str	r1, [sp, #32]
100010ae:	9209      	str	r2, [sp, #36]	; 0x24
100010b0:	6019      	str	r1, [r3, #0]
100010b2:	605a      	str	r2, [r3, #4]
100010b4:	6822      	ldr	r2, [r4, #0]
100010b6:	6863      	ldr	r3, [r4, #4]
100010b8:	0028      	movs	r0, r5
100010ba:	0031      	movs	r1, r6
100010bc:	9504      	str	r5, [sp, #16]
100010be:	9605      	str	r6, [sp, #20]
100010c0:	f004 ff04 	bl	10005ecc <__wrap___aeabi_dadd>
100010c4:	2200      	movs	r2, #0
100010c6:	4b56      	ldr	r3, [pc, #344]	; (10001220 <splitRoid+0x374>)
100010c8:	f004 ff12 	bl	10005ef0 <__wrap___aeabi_dmul>
100010cc:	2380      	movs	r3, #128	; 0x80
100010ce:	2200      	movs	r2, #0
100010d0:	05db      	lsls	r3, r3, #23
100010d2:	f004 fef2 	bl	10005eba <__wrap___aeabi_dsub>
100010d6:	0004      	movs	r4, r0
100010d8:	000d      	movs	r5, r1
100010da:	3732      	adds	r7, #50	; 0x32
100010dc:	00ff      	lsls	r7, r7, #3
100010de:	9b01      	ldr	r3, [sp, #4]
100010e0:	445f      	add	r7, fp
100010e2:	603c      	str	r4, [r7, #0]
100010e4:	607d      	str	r5, [r7, #4]
100010e6:	2b00      	cmp	r3, #0
100010e8:	da00      	bge.n	100010ec <splitRoid+0x240>
100010ea:	e0ca      	b.n	10001282 <splitRoid+0x3d6>
100010ec:	9808      	ldr	r0, [sp, #32]
100010ee:	9909      	ldr	r1, [sp, #36]	; 0x24
100010f0:	2668      	movs	r6, #104	; 0x68
100010f2:	435e      	muls	r6, r3
100010f4:	9a06      	ldr	r2, [sp, #24]
100010f6:	18b3      	adds	r3, r6, r2
100010f8:	00da      	lsls	r2, r3, #3
100010fa:	445a      	add	r2, fp
100010fc:	6010      	str	r0, [r2, #0]
100010fe:	6051      	str	r1, [r2, #4]
10001100:	4641      	mov	r1, r8
10001102:	3332      	adds	r3, #50	; 0x32
10001104:	00db      	lsls	r3, r3, #3
10001106:	445b      	add	r3, fp
10001108:	601c      	str	r4, [r3, #0]
1000110a:	605d      	str	r5, [r3, #4]
1000110c:	680a      	ldr	r2, [r1, #0]
1000110e:	684b      	ldr	r3, [r1, #4]
10001110:	9802      	ldr	r0, [sp, #8]
10001112:	9903      	ldr	r1, [sp, #12]
10001114:	f004 feda 	bl	10005ecc <__wrap___aeabi_dadd>
10001118:	2200      	movs	r2, #0
1000111a:	4b41      	ldr	r3, [pc, #260]	; (10001220 <splitRoid+0x374>)
1000111c:	f004 fee8 	bl	10005ef0 <__wrap___aeabi_dmul>
10001120:	2380      	movs	r3, #128	; 0x80
10001122:	2200      	movs	r2, #0
10001124:	05db      	lsls	r3, r3, #23
10001126:	f004 fec8 	bl	10005eba <__wrap___aeabi_dsub>
1000112a:	9a06      	ldr	r2, [sp, #24]
1000112c:	000d      	movs	r5, r1
1000112e:	4694      	mov	ip, r2
10001130:	44e1      	add	r9, ip
10001132:	4649      	mov	r1, r9
10001134:	0004      	movs	r4, r0
10001136:	00cb      	lsls	r3, r1, #3
10001138:	445b      	add	r3, fp
1000113a:	601c      	str	r4, [r3, #0]
1000113c:	605d      	str	r5, [r3, #4]
1000113e:	9804      	ldr	r0, [sp, #16]
10001140:	9905      	ldr	r1, [sp, #20]
10001142:	683a      	ldr	r2, [r7, #0]
10001144:	687b      	ldr	r3, [r7, #4]
10001146:	f004 fec1 	bl	10005ecc <__wrap___aeabi_dadd>
1000114a:	2200      	movs	r2, #0
1000114c:	4b34      	ldr	r3, [pc, #208]	; (10001220 <splitRoid+0x374>)
1000114e:	f004 fecf 	bl	10005ef0 <__wrap___aeabi_dmul>
10001152:	2380      	movs	r3, #128	; 0x80
10001154:	2200      	movs	r2, #0
10001156:	05db      	lsls	r3, r3, #23
10001158:	f004 feb8 	bl	10005ecc <__wrap___aeabi_dadd>
1000115c:	464a      	mov	r2, r9
1000115e:	9f00      	ldr	r7, [sp, #0]
10001160:	3232      	adds	r2, #50	; 0x32
10001162:	46bc      	mov	ip, r7
10001164:	00d3      	lsls	r3, r2, #3
10001166:	4466      	add	r6, ip
10001168:	445b      	add	r3, fp
1000116a:	6018      	str	r0, [r3, #0]
1000116c:	6059      	str	r1, [r3, #4]
1000116e:	00f3      	lsls	r3, r6, #3
10001170:	445b      	add	r3, fp
10001172:	601c      	str	r4, [r3, #0]
10001174:	605d      	str	r5, [r3, #4]
10001176:	25c8      	movs	r5, #200	; 0xc8
10001178:	3632      	adds	r6, #50	; 0x32
1000117a:	00f6      	lsls	r6, r6, #3
1000117c:	445e      	add	r6, fp
1000117e:	6030      	str	r0, [r6, #0]
10001180:	6071      	str	r1, [r6, #4]
10001182:	9907      	ldr	r1, [sp, #28]
10001184:	9806      	ldr	r0, [sp, #24]
10001186:	4451      	add	r1, sl
10001188:	008c      	lsls	r4, r1, #2
1000118a:	4454      	add	r4, sl
1000118c:	01a4      	lsls	r4, r4, #6
1000118e:	445c      	add	r4, fp
10001190:	00ad      	lsls	r5, r5, #2
10001192:	1963      	adds	r3, r4, r5
10001194:	6018      	str	r0, [r3, #0]
10001196:	9b01      	ldr	r3, [sp, #4]
10001198:	469c      	mov	ip, r3
1000119a:	0059      	lsls	r1, r3, #1
1000119c:	4461      	add	r1, ip
1000119e:	0089      	lsls	r1, r1, #2
100011a0:	4461      	add	r1, ip
100011a2:	0189      	lsls	r1, r1, #6
100011a4:	4459      	add	r1, fp
100011a6:	194b      	adds	r3, r1, r5
100011a8:	6018      	str	r0, [r3, #0]
100011aa:	20c9      	movs	r0, #201	; 0xc9
100011ac:	0080      	lsls	r0, r0, #2
100011ae:	1823      	adds	r3, r4, r0
100011b0:	681a      	ldr	r2, [r3, #0]
100011b2:	180b      	adds	r3, r1, r0
100011b4:	3004      	adds	r0, #4
100011b6:	601a      	str	r2, [r3, #0]
100011b8:	1823      	adds	r3, r4, r0
100011ba:	681a      	ldr	r2, [r3, #0]
100011bc:	180b      	adds	r3, r1, r0
100011be:	601a      	str	r2, [r3, #0]
100011c0:	23cd      	movs	r3, #205	; 0xcd
100011c2:	2201      	movs	r2, #1
100011c4:	009b      	lsls	r3, r3, #2
100011c6:	18cb      	adds	r3, r1, r3
100011c8:	601a      	str	r2, [r3, #0]
100011ca:	23cb      	movs	r3, #203	; 0xcb
100011cc:	009b      	lsls	r3, r3, #2
100011ce:	18e6      	adds	r6, r4, r3
100011d0:	6832      	ldr	r2, [r6, #0]
100011d2:	18cb      	adds	r3, r1, r3
100011d4:	601a      	str	r2, [r3, #0]
100011d6:	23cc      	movs	r3, #204	; 0xcc
100011d8:	009b      	lsls	r3, r3, #2
100011da:	469c      	mov	ip, r3
100011dc:	18cd      	adds	r5, r1, r3
100011de:	21fc      	movs	r1, #252	; 0xfc
100011e0:	4464      	add	r4, ip
100011e2:	6820      	ldr	r0, [r4, #0]
100011e4:	0589      	lsls	r1, r1, #22
100011e6:	f005 fe8d 	bl	10006f04 <__wrap___aeabi_fadd>
100011ea:	2100      	movs	r1, #0
100011ec:	6028      	str	r0, [r5, #0]
100011ee:	6830      	ldr	r0, [r6, #0]
100011f0:	f005 fe88 	bl	10006f04 <__wrap___aeabi_fadd>
100011f4:	21fc      	movs	r1, #252	; 0xfc
100011f6:	6030      	str	r0, [r6, #0]
100011f8:	0589      	lsls	r1, r1, #22
100011fa:	6820      	ldr	r0, [r4, #0]
100011fc:	f005 fe7f 	bl	10006efe <__wrap___aeabi_fsub>
10001200:	6020      	str	r0, [r4, #0]
10001202:	23db      	movs	r3, #219	; 0xdb
10001204:	009b      	lsls	r3, r3, #2
10001206:	449d      	add	sp, r3
10001208:	bc3c      	pop	{r2, r3, r4, r5}
1000120a:	4690      	mov	r8, r2
1000120c:	4699      	mov	r9, r3
1000120e:	46a2      	mov	sl, r4
10001210:	46ab      	mov	fp, r5
10001212:	bdf0      	pop	{r4, r5, r6, r7, pc}
10001214:	1be5      	subs	r5, r4, r7
10001216:	e71a      	b.n	1000104e <splitRoid+0x1a2>
10001218:	200009a0 	.word	0x200009a0
1000121c:	fffffc94 	.word	0xfffffc94
10001220:	3fe00000 	.word	0x3fe00000
10001224:	9b07      	ldr	r3, [sp, #28]
10001226:	2100      	movs	r1, #0
10001228:	4453      	add	r3, sl
1000122a:	009a      	lsls	r2, r3, #2
1000122c:	465b      	mov	r3, fp
1000122e:	4452      	add	r2, sl
10001230:	0192      	lsls	r2, r2, #6
10001232:	1898      	adds	r0, r3, r2
10001234:	3291      	adds	r2, #145	; 0x91
10001236:	32ff      	adds	r2, #255	; 0xff
10001238:	445a      	add	r2, fp
1000123a:	4690      	mov	r8, r2
1000123c:	46e1      	mov	r9, ip
1000123e:	00e3      	lsls	r3, r4, #3
10001240:	18f3      	adds	r3, r6, r3
10001242:	681a      	ldr	r2, [r3, #0]
10001244:	685b      	ldr	r3, [r3, #4]
10001246:	6002      	str	r2, [r0, #0]
10001248:	6043      	str	r3, [r0, #4]
1000124a:	0023      	movs	r3, r4
1000124c:	4645      	mov	r5, r8
1000124e:	3332      	adds	r3, #50	; 0x32
10001250:	00db      	lsls	r3, r3, #3
10001252:	18f3      	adds	r3, r6, r3
10001254:	3401      	adds	r4, #1
10001256:	681a      	ldr	r2, [r3, #0]
10001258:	685b      	ldr	r3, [r3, #4]
1000125a:	3101      	adds	r1, #1
1000125c:	602a      	str	r2, [r5, #0]
1000125e:	606b      	str	r3, [r5, #4]
10001260:	42a7      	cmp	r7, r4
10001262:	dc00      	bgt.n	10001266 <splitRoid+0x3ba>
10001264:	2400      	movs	r4, #0
10001266:	2308      	movs	r3, #8
10001268:	469c      	mov	ip, r3
1000126a:	3008      	adds	r0, #8
1000126c:	44e0      	add	r8, ip
1000126e:	4589      	cmp	r9, r1
10001270:	dce5      	bgt.n	1000123e <splitRoid+0x392>
10001272:	46cc      	mov	ip, r9
10001274:	2300      	movs	r3, #0
10001276:	2f01      	cmp	r7, #1
10001278:	dc00      	bgt.n	1000127c <splitRoid+0x3d0>
1000127a:	e6dd      	b.n	10001038 <splitRoid+0x18c>
1000127c:	4663      	mov	r3, ip
1000127e:	3b01      	subs	r3, #1
10001280:	e6da      	b.n	10001038 <splitRoid+0x18c>
10001282:	9b06      	ldr	r3, [sp, #24]
10001284:	9802      	ldr	r0, [sp, #8]
10001286:	9903      	ldr	r1, [sp, #12]
10001288:	001e      	movs	r6, r3
1000128a:	9a08      	ldr	r2, [sp, #32]
1000128c:	9b09      	ldr	r3, [sp, #36]	; 0x24
1000128e:	f004 fe1d 	bl	10005ecc <__wrap___aeabi_dadd>
10001292:	2200      	movs	r2, #0
10001294:	4b1a      	ldr	r3, [pc, #104]	; (10001300 <splitRoid+0x454>)
10001296:	f004 fe2b 	bl	10005ef0 <__wrap___aeabi_dmul>
1000129a:	2380      	movs	r3, #128	; 0x80
1000129c:	2200      	movs	r2, #0
1000129e:	05db      	lsls	r3, r3, #23
100012a0:	f004 fe0b 	bl	10005eba <__wrap___aeabi_dsub>
100012a4:	444e      	add	r6, r9
100012a6:	00f7      	lsls	r7, r6, #3
100012a8:	445f      	add	r7, fp
100012aa:	0022      	movs	r2, r4
100012ac:	002b      	movs	r3, r5
100012ae:	6038      	str	r0, [r7, #0]
100012b0:	6079      	str	r1, [r7, #4]
100012b2:	9804      	ldr	r0, [sp, #16]
100012b4:	9905      	ldr	r1, [sp, #20]
100012b6:	f004 fe09 	bl	10005ecc <__wrap___aeabi_dadd>
100012ba:	2200      	movs	r2, #0
100012bc:	4b10      	ldr	r3, [pc, #64]	; (10001300 <splitRoid+0x454>)
100012be:	f004 fe17 	bl	10005ef0 <__wrap___aeabi_dmul>
100012c2:	2380      	movs	r3, #128	; 0x80
100012c4:	2200      	movs	r2, #0
100012c6:	05db      	lsls	r3, r3, #23
100012c8:	f004 fe00 	bl	10005ecc <__wrap___aeabi_dadd>
100012cc:	3632      	adds	r6, #50	; 0x32
100012ce:	00f6      	lsls	r6, r6, #3
100012d0:	445e      	add	r6, fp
100012d2:	6030      	str	r0, [r6, #0]
100012d4:	6071      	str	r1, [r6, #4]
100012d6:	9907      	ldr	r1, [sp, #28]
100012d8:	9a06      	ldr	r2, [sp, #24]
100012da:	4451      	add	r1, sl
100012dc:	008b      	lsls	r3, r1, #2
100012de:	21c8      	movs	r1, #200	; 0xc8
100012e0:	0089      	lsls	r1, r1, #2
100012e2:	468c      	mov	ip, r1
100012e4:	4453      	add	r3, sl
100012e6:	019b      	lsls	r3, r3, #6
100012e8:	445b      	add	r3, fp
100012ea:	4463      	add	r3, ip
100012ec:	601a      	str	r2, [r3, #0]
100012ee:	e788      	b.n	10001202 <splitRoid+0x356>
100012f0:	2301      	movs	r3, #1
100012f2:	2200      	movs	r2, #0
100012f4:	9306      	str	r3, [sp, #24]
100012f6:	9200      	str	r2, [sp, #0]
100012f8:	3b02      	subs	r3, #2
100012fa:	e6ab      	b.n	10001054 <splitRoid+0x1a8>
100012fc:	ae0a      	add	r6, sp, #40	; 0x28
100012fe:	e600      	b.n	10000f02 <splitRoid+0x56>
10001300:	3fe00000 	.word	0x3fe00000

10001304 <respawnRoids>:
10001304:	b5f0      	push	{r4, r5, r6, r7, lr}
10001306:	46de      	mov	lr, fp
10001308:	4657      	mov	r7, sl
1000130a:	464e      	mov	r6, r9
1000130c:	4645      	mov	r5, r8
1000130e:	b5e0      	push	{r5, r6, r7, lr}
10001310:	4b83      	ldr	r3, [pc, #524]	; (10001520 <respawnRoids+0x21c>)
10001312:	b089      	sub	sp, #36	; 0x24
10001314:	681a      	ldr	r2, [r3, #0]
10001316:	2a08      	cmp	r2, #8
10001318:	dc05      	bgt.n	10001326 <respawnRoids+0x22>
1000131a:	0019      	movs	r1, r3
1000131c:	1c53      	adds	r3, r2, #1
1000131e:	600b      	str	r3, [r1, #0]
10001320:	2b00      	cmp	r3, #0
10001322:	dc00      	bgt.n	10001326 <respawnRoids+0x22>
10001324:	e1fc      	b.n	10001720 <respawnRoids+0x41c>
10001326:	4b7f      	ldr	r3, [pc, #508]	; (10001524 <respawnRoids+0x220>)
10001328:	469b      	mov	fp, r3
1000132a:	2300      	movs	r3, #0
1000132c:	9306      	str	r3, [sp, #24]
1000132e:	f006 f963 	bl	100075f8 <rand>
10001332:	f005 fe2f 	bl	10006f94 <__wrap___aeabi_i2f>
10001336:	497c      	ldr	r1, [pc, #496]	; (10001528 <respawnRoids+0x224>)
10001338:	f005 fdea 	bl	10006f10 <__wrap___aeabi_fmul>
1000133c:	21c0      	movs	r1, #192	; 0xc0
1000133e:	0589      	lsls	r1, r1, #22
10001340:	f005 fde6 	bl	10006f10 <__wrap___aeabi_fmul>
10001344:	465b      	mov	r3, fp
10001346:	4979      	ldr	r1, [pc, #484]	; (1000152c <respawnRoids+0x228>)
10001348:	6058      	str	r0, [r3, #4]
1000134a:	1c04      	adds	r4, r0, #0
1000134c:	f005 fe1c 	bl	10006f88 <__wrap___aeabi_fcmpgt>
10001350:	2800      	cmp	r0, #0
10001352:	d00d      	beq.n	10001370 <respawnRoids+0x6c>
10001354:	2185      	movs	r1, #133	; 0x85
10001356:	1c20      	adds	r0, r4, #0
10001358:	05c9      	lsls	r1, r1, #23
1000135a:	f005 fe0f 	bl	10006f7c <__wrap___aeabi_fcmplt>
1000135e:	2800      	cmp	r0, #0
10001360:	d006      	beq.n	10001370 <respawnRoids+0x6c>
10001362:	1c20      	adds	r0, r4, #0
10001364:	4971      	ldr	r1, [pc, #452]	; (1000152c <respawnRoids+0x228>)
10001366:	f005 fdca 	bl	10006efe <__wrap___aeabi_fsub>
1000136a:	465b      	mov	r3, fp
1000136c:	1c04      	adds	r4, r0, #0
1000136e:	6058      	str	r0, [r3, #4]
10001370:	2185      	movs	r1, #133	; 0x85
10001372:	1c20      	adds	r0, r4, #0
10001374:	05c9      	lsls	r1, r1, #23
10001376:	f005 fe07 	bl	10006f88 <__wrap___aeabi_fcmpgt>
1000137a:	2800      	cmp	r0, #0
1000137c:	d00b      	beq.n	10001396 <respawnRoids+0x92>
1000137e:	496c      	ldr	r1, [pc, #432]	; (10001530 <respawnRoids+0x22c>)
10001380:	1c20      	adds	r0, r4, #0
10001382:	f005 fdfb 	bl	10006f7c <__wrap___aeabi_fcmplt>
10001386:	2800      	cmp	r0, #0
10001388:	d005      	beq.n	10001396 <respawnRoids+0x92>
1000138a:	4968      	ldr	r1, [pc, #416]	; (1000152c <respawnRoids+0x228>)
1000138c:	1c20      	adds	r0, r4, #0
1000138e:	f005 fdb9 	bl	10006f04 <__wrap___aeabi_fadd>
10001392:	465b      	mov	r3, fp
10001394:	6058      	str	r0, [r3, #4]
10001396:	f006 f92f 	bl	100075f8 <rand>
1000139a:	f005 fdfb 	bl	10006f94 <__wrap___aeabi_i2f>
1000139e:	4962      	ldr	r1, [pc, #392]	; (10001528 <respawnRoids+0x224>)
100013a0:	f005 fdb6 	bl	10006f10 <__wrap___aeabi_fmul>
100013a4:	21c0      	movs	r1, #192	; 0xc0
100013a6:	0589      	lsls	r1, r1, #22
100013a8:	f005 fdb2 	bl	10006f10 <__wrap___aeabi_fmul>
100013ac:	465b      	mov	r3, fp
100013ae:	495f      	ldr	r1, [pc, #380]	; (1000152c <respawnRoids+0x228>)
100013b0:	6098      	str	r0, [r3, #8]
100013b2:	1c04      	adds	r4, r0, #0
100013b4:	f005 fde8 	bl	10006f88 <__wrap___aeabi_fcmpgt>
100013b8:	2800      	cmp	r0, #0
100013ba:	d00d      	beq.n	100013d8 <respawnRoids+0xd4>
100013bc:	2185      	movs	r1, #133	; 0x85
100013be:	1c20      	adds	r0, r4, #0
100013c0:	05c9      	lsls	r1, r1, #23
100013c2:	f005 fddb 	bl	10006f7c <__wrap___aeabi_fcmplt>
100013c6:	2800      	cmp	r0, #0
100013c8:	d006      	beq.n	100013d8 <respawnRoids+0xd4>
100013ca:	1c20      	adds	r0, r4, #0
100013cc:	4957      	ldr	r1, [pc, #348]	; (1000152c <respawnRoids+0x228>)
100013ce:	f005 fd96 	bl	10006efe <__wrap___aeabi_fsub>
100013d2:	465b      	mov	r3, fp
100013d4:	1c04      	adds	r4, r0, #0
100013d6:	6098      	str	r0, [r3, #8]
100013d8:	2185      	movs	r1, #133	; 0x85
100013da:	1c20      	adds	r0, r4, #0
100013dc:	05c9      	lsls	r1, r1, #23
100013de:	f005 fdd3 	bl	10006f88 <__wrap___aeabi_fcmpgt>
100013e2:	2800      	cmp	r0, #0
100013e4:	d00b      	beq.n	100013fe <respawnRoids+0xfa>
100013e6:	4952      	ldr	r1, [pc, #328]	; (10001530 <respawnRoids+0x22c>)
100013e8:	1c20      	adds	r0, r4, #0
100013ea:	f005 fdc7 	bl	10006f7c <__wrap___aeabi_fcmplt>
100013ee:	2800      	cmp	r0, #0
100013f0:	d005      	beq.n	100013fe <respawnRoids+0xfa>
100013f2:	494e      	ldr	r1, [pc, #312]	; (1000152c <respawnRoids+0x228>)
100013f4:	1c20      	adds	r0, r4, #0
100013f6:	f005 fd85 	bl	10006f04 <__wrap___aeabi_fadd>
100013fa:	465b      	mov	r3, fp
100013fc:	6098      	str	r0, [r3, #8]
100013fe:	f006 f8fb 	bl	100075f8 <rand>
10001402:	f005 fdc7 	bl	10006f94 <__wrap___aeabi_i2f>
10001406:	2186      	movs	r1, #134	; 0x86
10001408:	05c9      	lsls	r1, r1, #23
1000140a:	f005 fd81 	bl	10006f10 <__wrap___aeabi_fmul>
1000140e:	21c0      	movs	r1, #192	; 0xc0
10001410:	0589      	lsls	r1, r1, #22
10001412:	f005 fd7d 	bl	10006f10 <__wrap___aeabi_fmul>
10001416:	465b      	mov	r3, fp
10001418:	465a      	mov	r2, fp
1000141a:	6098      	str	r0, [r3, #8]
1000141c:	2301      	movs	r3, #1
1000141e:	2003      	movs	r0, #3
10001420:	6153      	str	r3, [r2, #20]
10001422:	9b06      	ldr	r3, [sp, #24]
10001424:	4018      	ands	r0, r3
10001426:	3001      	adds	r0, #1
10001428:	f005 fdb4 	bl	10006f94 <__wrap___aeabi_i2f>
1000142c:	1c05      	adds	r5, r0, #0
1000142e:	9007      	str	r0, [sp, #28]
10001430:	f005 fdd2 	bl	10006fd8 <__wrap___aeabi_f2iz>
10001434:	465b      	mov	r3, fp
10001436:	0044      	lsls	r4, r0, #1
10001438:	1824      	adds	r4, r4, r0
1000143a:	00a4      	lsls	r4, r4, #2
1000143c:	6198      	str	r0, [r3, #24]
1000143e:	601c      	str	r4, [r3, #0]
10001440:	0020      	movs	r0, r4
10001442:	f004 fdc5 	bl	10005fd0 <__wrap___aeabi_i2d>
10001446:	0002      	movs	r2, r0
10001448:	000b      	movs	r3, r1
1000144a:	483a      	ldr	r0, [pc, #232]	; (10001534 <respawnRoids+0x230>)
1000144c:	493a      	ldr	r1, [pc, #232]	; (10001538 <respawnRoids+0x234>)
1000144e:	f004 fd46 	bl	10005ede <__wrap___aeabi_ddiv>
10001452:	9004      	str	r0, [sp, #16]
10001454:	9105      	str	r1, [sp, #20]
10001456:	4939      	ldr	r1, [pc, #228]	; (1000153c <respawnRoids+0x238>)
10001458:	1c28      	adds	r0, r5, #0
1000145a:	f005 fd59 	bl	10006f10 <__wrap___aeabi_fmul>
1000145e:	f005 fdf3 	bl	10007048 <__wrap___aeabi_f2d>
10001462:	0006      	movs	r6, r0
10001464:	000f      	movs	r7, r1
10001466:	2c00      	cmp	r4, #0
10001468:	dc00      	bgt.n	1000146c <respawnRoids+0x168>
1000146a:	e156      	b.n	1000171a <respawnRoids+0x416>
1000146c:	2200      	movs	r2, #0
1000146e:	4b34      	ldr	r3, [pc, #208]	; (10001540 <respawnRoids+0x23c>)
10001470:	2400      	movs	r4, #0
10001472:	445b      	add	r3, fp
10001474:	469a      	mov	sl, r3
10001476:	4b33      	ldr	r3, [pc, #204]	; (10001544 <respawnRoids+0x240>)
10001478:	2500      	movs	r5, #0
1000147a:	445b      	add	r3, fp
1000147c:	4699      	mov	r9, r3
1000147e:	4b32      	ldr	r3, [pc, #200]	; (10001548 <respawnRoids+0x244>)
10001480:	9400      	str	r4, [sp, #0]
10001482:	9501      	str	r5, [sp, #4]
10001484:	9202      	str	r2, [sp, #8]
10001486:	9303      	str	r3, [sp, #12]
10001488:	2300      	movs	r3, #0
1000148a:	4698      	mov	r8, r3
1000148c:	e009      	b.n	100014a2 <respawnRoids+0x19e>
1000148e:	f004 fe09 	bl	100060a4 <__wrap_cos>
10001492:	9002      	str	r0, [sp, #8]
10001494:	9103      	str	r1, [sp, #12]
10001496:	0020      	movs	r0, r4
10001498:	0029      	movs	r1, r5
1000149a:	f004 fe19 	bl	100060d0 <__wrap_sin>
1000149e:	9000      	str	r0, [sp, #0]
100014a0:	9101      	str	r1, [sp, #4]
100014a2:	9802      	ldr	r0, [sp, #8]
100014a4:	9903      	ldr	r1, [sp, #12]
100014a6:	0032      	movs	r2, r6
100014a8:	003b      	movs	r3, r7
100014aa:	f004 fd21 	bl	10005ef0 <__wrap___aeabi_dmul>
100014ae:	4653      	mov	r3, sl
100014b0:	c303      	stmia	r3!, {r0, r1}
100014b2:	9800      	ldr	r0, [sp, #0]
100014b4:	9901      	ldr	r1, [sp, #4]
100014b6:	0032      	movs	r2, r6
100014b8:	469a      	mov	sl, r3
100014ba:	003b      	movs	r3, r7
100014bc:	f004 fd18 	bl	10005ef0 <__wrap___aeabi_dmul>
100014c0:	464b      	mov	r3, r9
100014c2:	c303      	stmia	r3!, {r0, r1}
100014c4:	4699      	mov	r9, r3
100014c6:	f006 f897 	bl	100075f8 <rand>
100014ca:	f005 fd63 	bl	10006f94 <__wrap___aeabi_i2f>
100014ce:	2181      	movs	r1, #129	; 0x81
100014d0:	05c9      	lsls	r1, r1, #23
100014d2:	f005 fd1d 	bl	10006f10 <__wrap___aeabi_fmul>
100014d6:	21c0      	movs	r1, #192	; 0xc0
100014d8:	0589      	lsls	r1, r1, #22
100014da:	f005 fd19 	bl	10006f10 <__wrap___aeabi_fmul>
100014de:	1c01      	adds	r1, r0, #0
100014e0:	2080      	movs	r0, #128	; 0x80
100014e2:	05c0      	lsls	r0, r0, #23
100014e4:	f005 fd0b 	bl	10006efe <__wrap___aeabi_fsub>
100014e8:	f005 fdae 	bl	10007048 <__wrap___aeabi_f2d>
100014ec:	0002      	movs	r2, r0
100014ee:	000b      	movs	r3, r1
100014f0:	0030      	movs	r0, r6
100014f2:	0039      	movs	r1, r7
100014f4:	f004 fcea 	bl	10005ecc <__wrap___aeabi_dadd>
100014f8:	9a04      	ldr	r2, [sp, #16]
100014fa:	9b05      	ldr	r3, [sp, #20]
100014fc:	0006      	movs	r6, r0
100014fe:	000f      	movs	r7, r1
10001500:	0020      	movs	r0, r4
10001502:	0029      	movs	r1, r5
10001504:	f004 fce2 	bl	10005ecc <__wrap___aeabi_dadd>
10001508:	2301      	movs	r3, #1
1000150a:	469c      	mov	ip, r3
1000150c:	465b      	mov	r3, fp
1000150e:	681b      	ldr	r3, [r3, #0]
10001510:	44e0      	add	r8, ip
10001512:	0004      	movs	r4, r0
10001514:	000d      	movs	r5, r1
10001516:	4543      	cmp	r3, r8
10001518:	dcb9      	bgt.n	1000148e <respawnRoids+0x18a>
1000151a:	465d      	mov	r5, fp
1000151c:	9e07      	ldr	r6, [sp, #28]
1000151e:	e01b      	b.n	10001558 <respawnRoids+0x254>
10001520:	200030f0 	.word	0x200030f0
10001524:	20000cc0 	.word	0x20000cc0
10001528:	42dc0000 	.word	0x42dc0000
1000152c:	41f00000 	.word	0x41f00000
10001530:	42a00000 	.word	0x42a00000
10001534:	f01b866e 	.word	0xf01b866e
10001538:	401921f9 	.word	0x401921f9
1000153c:	40a00000 	.word	0x40a00000
10001540:	fffffce0 	.word	0xfffffce0
10001544:	fffffe70 	.word	0xfffffe70
10001548:	3ff00000 	.word	0x3ff00000
1000154c:	2100      	movs	r1, #0
1000154e:	1c20      	adds	r0, r4, #0
10001550:	f005 fd0c 	bl	10006f6c <__wrap___aeabi_fcmpeq>
10001554:	2800      	cmp	r0, #0
10001556:	d038      	beq.n	100015ca <respawnRoids+0x2c6>
10001558:	f006 f84e 	bl	100075f8 <rand>
1000155c:	21fe      	movs	r1, #254	; 0xfe
1000155e:	0007      	movs	r7, r0
10001560:	0589      	lsls	r1, r1, #22
10001562:	1c30      	adds	r0, r6, #0
10001564:	f005 fcce 	bl	10006f04 <__wrap___aeabi_fadd>
10001568:	1c04      	adds	r4, r0, #0
1000156a:	0038      	movs	r0, r7
1000156c:	f005 fd12 	bl	10006f94 <__wrap___aeabi_i2f>
10001570:	2181      	movs	r1, #129	; 0x81
10001572:	05c9      	lsls	r1, r1, #23
10001574:	f005 fccc 	bl	10006f10 <__wrap___aeabi_fmul>
10001578:	21c0      	movs	r1, #192	; 0xc0
1000157a:	0589      	lsls	r1, r1, #22
1000157c:	f005 fcc8 	bl	10006f10 <__wrap___aeabi_fmul>
10001580:	1c01      	adds	r1, r0, #0
10001582:	2080      	movs	r0, #128	; 0x80
10001584:	05c0      	lsls	r0, r0, #23
10001586:	f005 fcba 	bl	10006efe <__wrap___aeabi_fsub>
1000158a:	1c21      	adds	r1, r4, #0
1000158c:	f005 fcbd 	bl	10006f0a <__wrap___aeabi_fdiv>
10001590:	60e8      	str	r0, [r5, #12]
10001592:	f006 f831 	bl	100075f8 <rand>
10001596:	f005 fcfd 	bl	10006f94 <__wrap___aeabi_i2f>
1000159a:	2181      	movs	r1, #129	; 0x81
1000159c:	05c9      	lsls	r1, r1, #23
1000159e:	f005 fcb7 	bl	10006f10 <__wrap___aeabi_fmul>
100015a2:	21c0      	movs	r1, #192	; 0xc0
100015a4:	0589      	lsls	r1, r1, #22
100015a6:	f005 fcb3 	bl	10006f10 <__wrap___aeabi_fmul>
100015aa:	1c01      	adds	r1, r0, #0
100015ac:	2080      	movs	r0, #128	; 0x80
100015ae:	05c0      	lsls	r0, r0, #23
100015b0:	f005 fca5 	bl	10006efe <__wrap___aeabi_fsub>
100015b4:	1c21      	adds	r1, r4, #0
100015b6:	f005 fca8 	bl	10006f0a <__wrap___aeabi_fdiv>
100015ba:	2100      	movs	r1, #0
100015bc:	1c04      	adds	r4, r0, #0
100015be:	6128      	str	r0, [r5, #16]
100015c0:	68e8      	ldr	r0, [r5, #12]
100015c2:	f005 fcd3 	bl	10006f6c <__wrap___aeabi_fcmpeq>
100015c6:	2800      	cmp	r0, #0
100015c8:	d1c0      	bne.n	1000154c <respawnRoids+0x248>
100015ca:	21d0      	movs	r1, #208	; 0xd0
100015cc:	0089      	lsls	r1, r1, #2
100015ce:	46ab      	mov	fp, r5
100015d0:	468c      	mov	ip, r1
100015d2:	4b5b      	ldr	r3, [pc, #364]	; (10001740 <respawnRoids+0x43c>)
100015d4:	9a06      	ldr	r2, [sp, #24]
100015d6:	681b      	ldr	r3, [r3, #0]
100015d8:	3201      	adds	r2, #1
100015da:	9206      	str	r2, [sp, #24]
100015dc:	44e3      	add	fp, ip
100015de:	4293      	cmp	r3, r2
100015e0:	dd00      	ble.n	100015e4 <respawnRoids+0x2e0>
100015e2:	e6a4      	b.n	1000132e <respawnRoids+0x2a>
100015e4:	2b0b      	cmp	r3, #11
100015e6:	dd00      	ble.n	100015ea <respawnRoids+0x2e6>
100015e8:	e08d      	b.n	10001706 <respawnRoids+0x402>
100015ea:	20cd      	movs	r0, #205	; 0xcd
100015ec:	0080      	lsls	r0, r0, #2
100015ee:	4684      	mov	ip, r0
100015f0:	2000      	movs	r0, #0
100015f2:	005a      	lsls	r2, r3, #1
100015f4:	18d2      	adds	r2, r2, r3
100015f6:	0092      	lsls	r2, r2, #2
100015f8:	4952      	ldr	r1, [pc, #328]	; (10001744 <respawnRoids+0x440>)
100015fa:	18d2      	adds	r2, r2, r3
100015fc:	0192      	lsls	r2, r2, #6
100015fe:	188a      	adds	r2, r1, r2
10001600:	4462      	add	r2, ip
10001602:	6010      	str	r0, [r2, #0]
10001604:	1c5a      	adds	r2, r3, #1
10001606:	2b0b      	cmp	r3, #11
10001608:	d07d      	beq.n	10001706 <respawnRoids+0x402>
1000160a:	20cd      	movs	r0, #205	; 0xcd
1000160c:	0080      	lsls	r0, r0, #2
1000160e:	4684      	mov	ip, r0
10001610:	2000      	movs	r0, #0
10001612:	0053      	lsls	r3, r2, #1
10001614:	189b      	adds	r3, r3, r2
10001616:	009b      	lsls	r3, r3, #2
10001618:	189b      	adds	r3, r3, r2
1000161a:	019b      	lsls	r3, r3, #6
1000161c:	18cb      	adds	r3, r1, r3
1000161e:	4463      	add	r3, ip
10001620:	6018      	str	r0, [r3, #0]
10001622:	1c54      	adds	r4, r2, #1
10001624:	2a0b      	cmp	r2, #11
10001626:	d06e      	beq.n	10001706 <respawnRoids+0x402>
10001628:	0063      	lsls	r3, r4, #1
1000162a:	191b      	adds	r3, r3, r4
1000162c:	009b      	lsls	r3, r3, #2
1000162e:	191b      	adds	r3, r3, r4
10001630:	019b      	lsls	r3, r3, #6
10001632:	18cb      	adds	r3, r1, r3
10001634:	4463      	add	r3, ip
10001636:	6018      	str	r0, [r3, #0]
10001638:	1c94      	adds	r4, r2, #2
1000163a:	2a0a      	cmp	r2, #10
1000163c:	d063      	beq.n	10001706 <respawnRoids+0x402>
1000163e:	0063      	lsls	r3, r4, #1
10001640:	191b      	adds	r3, r3, r4
10001642:	009b      	lsls	r3, r3, #2
10001644:	191b      	adds	r3, r3, r4
10001646:	019b      	lsls	r3, r3, #6
10001648:	18cb      	adds	r3, r1, r3
1000164a:	4463      	add	r3, ip
1000164c:	6018      	str	r0, [r3, #0]
1000164e:	1cd4      	adds	r4, r2, #3
10001650:	2a09      	cmp	r2, #9
10001652:	d058      	beq.n	10001706 <respawnRoids+0x402>
10001654:	0063      	lsls	r3, r4, #1
10001656:	191b      	adds	r3, r3, r4
10001658:	009b      	lsls	r3, r3, #2
1000165a:	191b      	adds	r3, r3, r4
1000165c:	019b      	lsls	r3, r3, #6
1000165e:	18cb      	adds	r3, r1, r3
10001660:	4463      	add	r3, ip
10001662:	6018      	str	r0, [r3, #0]
10001664:	1d14      	adds	r4, r2, #4
10001666:	2a08      	cmp	r2, #8
10001668:	d04d      	beq.n	10001706 <respawnRoids+0x402>
1000166a:	0063      	lsls	r3, r4, #1
1000166c:	191b      	adds	r3, r3, r4
1000166e:	009b      	lsls	r3, r3, #2
10001670:	191b      	adds	r3, r3, r4
10001672:	019b      	lsls	r3, r3, #6
10001674:	18cb      	adds	r3, r1, r3
10001676:	4463      	add	r3, ip
10001678:	6018      	str	r0, [r3, #0]
1000167a:	1d54      	adds	r4, r2, #5
1000167c:	2a07      	cmp	r2, #7
1000167e:	d042      	beq.n	10001706 <respawnRoids+0x402>
10001680:	0063      	lsls	r3, r4, #1
10001682:	191b      	adds	r3, r3, r4
10001684:	009b      	lsls	r3, r3, #2
10001686:	191b      	adds	r3, r3, r4
10001688:	019b      	lsls	r3, r3, #6
1000168a:	18cb      	adds	r3, r1, r3
1000168c:	4463      	add	r3, ip
1000168e:	6018      	str	r0, [r3, #0]
10001690:	1d94      	adds	r4, r2, #6
10001692:	2a06      	cmp	r2, #6
10001694:	d037      	beq.n	10001706 <respawnRoids+0x402>
10001696:	0063      	lsls	r3, r4, #1
10001698:	191b      	adds	r3, r3, r4
1000169a:	009b      	lsls	r3, r3, #2
1000169c:	191b      	adds	r3, r3, r4
1000169e:	019b      	lsls	r3, r3, #6
100016a0:	18cb      	adds	r3, r1, r3
100016a2:	4463      	add	r3, ip
100016a4:	6018      	str	r0, [r3, #0]
100016a6:	1dd4      	adds	r4, r2, #7
100016a8:	2a05      	cmp	r2, #5
100016aa:	d02c      	beq.n	10001706 <respawnRoids+0x402>
100016ac:	0063      	lsls	r3, r4, #1
100016ae:	191b      	adds	r3, r3, r4
100016b0:	009b      	lsls	r3, r3, #2
100016b2:	191b      	adds	r3, r3, r4
100016b4:	0014      	movs	r4, r2
100016b6:	019b      	lsls	r3, r3, #6
100016b8:	18cb      	adds	r3, r1, r3
100016ba:	4463      	add	r3, ip
100016bc:	6018      	str	r0, [r3, #0]
100016be:	3408      	adds	r4, #8
100016c0:	2a04      	cmp	r2, #4
100016c2:	d020      	beq.n	10001706 <respawnRoids+0x402>
100016c4:	0063      	lsls	r3, r4, #1
100016c6:	191b      	adds	r3, r3, r4
100016c8:	009b      	lsls	r3, r3, #2
100016ca:	191b      	adds	r3, r3, r4
100016cc:	0014      	movs	r4, r2
100016ce:	019b      	lsls	r3, r3, #6
100016d0:	18cb      	adds	r3, r1, r3
100016d2:	4463      	add	r3, ip
100016d4:	6018      	str	r0, [r3, #0]
100016d6:	3409      	adds	r4, #9
100016d8:	2a03      	cmp	r2, #3
100016da:	d014      	beq.n	10001706 <respawnRoids+0x402>
100016dc:	0063      	lsls	r3, r4, #1
100016de:	191b      	adds	r3, r3, r4
100016e0:	009b      	lsls	r3, r3, #2
100016e2:	191b      	adds	r3, r3, r4
100016e4:	019b      	lsls	r3, r3, #6
100016e6:	18cb      	adds	r3, r1, r3
100016e8:	4463      	add	r3, ip
100016ea:	6018      	str	r0, [r3, #0]
100016ec:	0010      	movs	r0, r2
100016ee:	300a      	adds	r0, #10
100016f0:	2a02      	cmp	r2, #2
100016f2:	d008      	beq.n	10001706 <respawnRoids+0x402>
100016f4:	0043      	lsls	r3, r0, #1
100016f6:	181b      	adds	r3, r3, r0
100016f8:	009b      	lsls	r3, r3, #2
100016fa:	181b      	adds	r3, r3, r0
100016fc:	019b      	lsls	r3, r3, #6
100016fe:	18c9      	adds	r1, r1, r3
10001700:	2300      	movs	r3, #0
10001702:	4461      	add	r1, ip
10001704:	600b      	str	r3, [r1, #0]
10001706:	2264      	movs	r2, #100	; 0x64
10001708:	4b0f      	ldr	r3, [pc, #60]	; (10001748 <respawnRoids+0x444>)
1000170a:	601a      	str	r2, [r3, #0]
1000170c:	b009      	add	sp, #36	; 0x24
1000170e:	bc3c      	pop	{r2, r3, r4, r5}
10001710:	4690      	mov	r8, r2
10001712:	4699      	mov	r9, r3
10001714:	46a2      	mov	sl, r4
10001716:	46ab      	mov	fp, r5
10001718:	bdf0      	pop	{r4, r5, r6, r7, pc}
1000171a:	1c2e      	adds	r6, r5, #0
1000171c:	465d      	mov	r5, fp
1000171e:	e71b      	b.n	10001558 <respawnRoids+0x254>
10001720:	0058      	lsls	r0, r3, #1
10001722:	18c0      	adds	r0, r0, r3
10001724:	0080      	lsls	r0, r0, #2
10001726:	18c3      	adds	r3, r0, r3
10001728:	20cd      	movs	r0, #205	; 0xcd
1000172a:	0080      	lsls	r0, r0, #2
1000172c:	4684      	mov	ip, r0
1000172e:	2000      	movs	r0, #0
10001730:	4904      	ldr	r1, [pc, #16]	; (10001744 <respawnRoids+0x440>)
10001732:	019b      	lsls	r3, r3, #6
10001734:	18cb      	adds	r3, r1, r3
10001736:	4463      	add	r3, ip
10001738:	6018      	str	r0, [r3, #0]
1000173a:	3202      	adds	r2, #2
1000173c:	e765      	b.n	1000160a <respawnRoids+0x306>
1000173e:	46c0      	nop			; (mov r8, r8)
10001740:	200030f0 	.word	0x200030f0
10001744:	200009a0 	.word	0x200009a0
10001748:	20000888 	.word	0x20000888

1000174c <movePhoton>:
1000174c:	b5f0      	push	{r4, r5, r6, r7, lr}
1000174e:	46de      	mov	lr, fp
10001750:	4657      	mov	r7, sl
10001752:	464e      	mov	r6, r9
10001754:	4645      	mov	r5, r8
10001756:	b5e0      	push	{r5, r6, r7, lr}
10001758:	4be6      	ldr	r3, [pc, #920]	; (10001af4 <movePhoton+0x3a8>)
1000175a:	b09b      	sub	sp, #108	; 0x6c
1000175c:	9313      	str	r3, [sp, #76]	; 0x4c
1000175e:	2300      	movs	r3, #0
10001760:	9315      	str	r3, [sp, #84]	; 0x54
10001762:	9a13      	ldr	r2, [sp, #76]	; 0x4c
10001764:	6813      	ldr	r3, [r2, #0]
10001766:	2b00      	cmp	r3, #0
10001768:	dc00      	bgt.n	1000176c <movePhoton+0x20>
1000176a:	e1ff      	b.n	10001b6c <movePhoton+0x420>
1000176c:	3b01      	subs	r3, #1
1000176e:	6013      	str	r3, [r2, #0]
10001770:	2b00      	cmp	r3, #0
10001772:	d100      	bne.n	10001776 <movePhoton+0x2a>
10001774:	e1fa      	b.n	10001b6c <movePhoton+0x420>
10001776:	9b15      	ldr	r3, [sp, #84]	; 0x54
10001778:	4adf      	ldr	r2, [pc, #892]	; (10001af8 <movePhoton+0x3ac>)
1000177a:	49e0      	ldr	r1, [pc, #896]	; (10001afc <movePhoton+0x3b0>)
1000177c:	58d2      	ldr	r2, [r2, r3]
1000177e:	4de0      	ldr	r5, [pc, #896]	; (10001b00 <movePhoton+0x3b4>)
10001780:	58ce      	ldr	r6, [r1, r3]
10001782:	005c      	lsls	r4, r3, #1
10001784:	1965      	adds	r5, r4, r5
10001786:	0010      	movs	r0, r2
10001788:	9218      	str	r2, [sp, #96]	; 0x60
1000178a:	9619      	str	r6, [sp, #100]	; 0x64
1000178c:	f004 fc20 	bl	10005fd0 <__wrap___aeabi_i2d>
10001790:	682a      	ldr	r2, [r5, #0]
10001792:	686b      	ldr	r3, [r5, #4]
10001794:	f004 fb9a 	bl	10005ecc <__wrap___aeabi_dadd>
10001798:	f004 fc32 	bl	10006000 <__wrap___aeabi_d2iz>
1000179c:	4bd9      	ldr	r3, [pc, #868]	; (10001b04 <movePhoton+0x3b8>)
1000179e:	0005      	movs	r5, r0
100017a0:	9017      	str	r0, [sp, #92]	; 0x5c
100017a2:	18e4      	adds	r4, r4, r3
100017a4:	0030      	movs	r0, r6
100017a6:	f004 fc13 	bl	10005fd0 <__wrap___aeabi_i2d>
100017aa:	6822      	ldr	r2, [r4, #0]
100017ac:	6863      	ldr	r3, [r4, #4]
100017ae:	f004 fb8d 	bl	10005ecc <__wrap___aeabi_dadd>
100017b2:	f004 fc25 	bl	10006000 <__wrap___aeabi_d2iz>
100017b6:	002b      	movs	r3, r5
100017b8:	9016      	str	r0, [sp, #88]	; 0x58
100017ba:	2d7f      	cmp	r5, #127	; 0x7f
100017bc:	dc00      	bgt.n	100017c0 <movePhoton+0x74>
100017be:	e25c      	b.n	10001c7a <movePhoton+0x52e>
100017c0:	3b80      	subs	r3, #128	; 0x80
100017c2:	9317      	str	r3, [sp, #92]	; 0x5c
100017c4:	0003      	movs	r3, r0
100017c6:	287f      	cmp	r0, #127	; 0x7f
100017c8:	dc00      	bgt.n	100017cc <movePhoton+0x80>
100017ca:	e262      	b.n	10001c92 <movePhoton+0x546>
100017cc:	3b80      	subs	r3, #128	; 0x80
100017ce:	9316      	str	r3, [sp, #88]	; 0x58
100017d0:	4bcd      	ldr	r3, [pc, #820]	; (10001b08 <movePhoton+0x3bc>)
100017d2:	469b      	mov	fp, r3
100017d4:	2300      	movs	r3, #0
100017d6:	930c      	str	r3, [sp, #48]	; 0x30
100017d8:	465b      	mov	r3, fp
100017da:	695b      	ldr	r3, [r3, #20]
100017dc:	2b00      	cmp	r3, #0
100017de:	d10d      	bne.n	100017fc <movePhoton+0xb0>
100017e0:	9b0c      	ldr	r3, [sp, #48]	; 0x30
100017e2:	3301      	adds	r3, #1
100017e4:	930c      	str	r3, [sp, #48]	; 0x30
100017e6:	2b0c      	cmp	r3, #12
100017e8:	d100      	bne.n	100017ec <movePhoton+0xa0>
100017ea:	e229      	b.n	10001c40 <movePhoton+0x4f4>
100017ec:	23d0      	movs	r3, #208	; 0xd0
100017ee:	009b      	lsls	r3, r3, #2
100017f0:	469c      	mov	ip, r3
100017f2:	44e3      	add	fp, ip
100017f4:	465b      	mov	r3, fp
100017f6:	695b      	ldr	r3, [r3, #20]
100017f8:	2b00      	cmp	r3, #0
100017fa:	d0f1      	beq.n	100017e0 <movePhoton+0x94>
100017fc:	465b      	mov	r3, fp
100017fe:	6858      	ldr	r0, [r3, #4]
10001800:	f005 fbea 	bl	10006fd8 <__wrap___aeabi_f2iz>
10001804:	465b      	mov	r3, fp
10001806:	0005      	movs	r5, r0
10001808:	6898      	ldr	r0, [r3, #8]
1000180a:	f005 fbe5 	bl	10006fd8 <__wrap___aeabi_f2iz>
1000180e:	465b      	mov	r3, fp
10001810:	681b      	ldr	r3, [r3, #0]
10001812:	0004      	movs	r4, r0
10001814:	930d      	str	r3, [sp, #52]	; 0x34
10001816:	2b00      	cmp	r3, #0
10001818:	dde2      	ble.n	100017e0 <movePhoton+0x94>
1000181a:	9818      	ldr	r0, [sp, #96]	; 0x60
1000181c:	f005 fbba 	bl	10006f94 <__wrap___aeabi_i2f>
10001820:	1c07      	adds	r7, r0, #0
10001822:	900f      	str	r0, [sp, #60]	; 0x3c
10001824:	9819      	ldr	r0, [sp, #100]	; 0x64
10001826:	f005 fbb5 	bl	10006f94 <__wrap___aeabi_i2f>
1000182a:	4681      	mov	r9, r0
1000182c:	9010      	str	r0, [sp, #64]	; 0x40
1000182e:	9817      	ldr	r0, [sp, #92]	; 0x5c
10001830:	f005 fbb0 	bl	10006f94 <__wrap___aeabi_i2f>
10001834:	4682      	mov	sl, r0
10001836:	9011      	str	r0, [sp, #68]	; 0x44
10001838:	9816      	ldr	r0, [sp, #88]	; 0x58
1000183a:	f005 fbab 	bl	10006f94 <__wrap___aeabi_i2f>
1000183e:	4651      	mov	r1, sl
10001840:	4680      	mov	r8, r0
10001842:	9012      	str	r0, [sp, #72]	; 0x48
10001844:	4648      	mov	r0, r9
10001846:	f005 fb63 	bl	10006f10 <__wrap___aeabi_fmul>
1000184a:	4641      	mov	r1, r8
1000184c:	1c06      	adds	r6, r0, #0
1000184e:	1c38      	adds	r0, r7, #0
10001850:	f005 fb5e 	bl	10006f10 <__wrap___aeabi_fmul>
10001854:	1c01      	adds	r1, r0, #0
10001856:	1c30      	adds	r0, r6, #0
10001858:	f005 fb51 	bl	10006efe <__wrap___aeabi_fsub>
1000185c:	9007      	str	r0, [sp, #28]
1000185e:	0028      	movs	r0, r5
10001860:	f004 fbb6 	bl	10005fd0 <__wrap___aeabi_i2d>
10001864:	9008      	str	r0, [sp, #32]
10001866:	9109      	str	r1, [sp, #36]	; 0x24
10001868:	0020      	movs	r0, r4
1000186a:	f004 fbb1 	bl	10005fd0 <__wrap___aeabi_i2d>
1000186e:	900a      	str	r0, [sp, #40]	; 0x28
10001870:	910b      	str	r1, [sp, #44]	; 0x2c
10001872:	4649      	mov	r1, r9
10001874:	4640      	mov	r0, r8
10001876:	f005 fb42 	bl	10006efe <__wrap___aeabi_fsub>
1000187a:	4651      	mov	r1, sl
1000187c:	1c05      	adds	r5, r0, #0
1000187e:	1c38      	adds	r0, r7, #0
10001880:	f005 fb3d 	bl	10006efe <__wrap___aeabi_fsub>
10001884:	465b      	mov	r3, fp
10001886:	3b91      	subs	r3, #145	; 0x91
10001888:	3bff      	subs	r3, #255	; 0xff
1000188a:	685c      	ldr	r4, [r3, #4]
1000188c:	681b      	ldr	r3, [r3, #0]
1000188e:	9302      	str	r3, [sp, #8]
10001890:	9403      	str	r4, [sp, #12]
10001892:	4b9e      	ldr	r3, [pc, #632]	; (10001b0c <movePhoton+0x3c0>)
10001894:	4682      	mov	sl, r0
10001896:	445b      	add	r3, fp
10001898:	6819      	ldr	r1, [r3, #0]
1000189a:	685a      	ldr	r2, [r3, #4]
1000189c:	9306      	str	r3, [sp, #24]
1000189e:	4b9c      	ldr	r3, [pc, #624]	; (10001b10 <movePhoton+0x3c4>)
100018a0:	9100      	str	r1, [sp, #0]
100018a2:	9201      	str	r2, [sp, #4]
100018a4:	445b      	add	r3, fp
100018a6:	9305      	str	r3, [sp, #20]
100018a8:	2300      	movs	r3, #0
100018aa:	9304      	str	r3, [sp, #16]
100018ac:	465b      	mov	r3, fp
100018ae:	46ab      	mov	fp, r5
100018b0:	9314      	str	r3, [sp, #80]	; 0x50
100018b2:	9a08      	ldr	r2, [sp, #32]
100018b4:	9b09      	ldr	r3, [sp, #36]	; 0x24
100018b6:	9800      	ldr	r0, [sp, #0]
100018b8:	9901      	ldr	r1, [sp, #4]
100018ba:	f004 fb07 	bl	10005ecc <__wrap___aeabi_dadd>
100018be:	f004 fb9f 	bl	10006000 <__wrap___aeabi_d2iz>
100018c2:	9a0a      	ldr	r2, [sp, #40]	; 0x28
100018c4:	9b0b      	ldr	r3, [sp, #44]	; 0x2c
100018c6:	0004      	movs	r4, r0
100018c8:	9802      	ldr	r0, [sp, #8]
100018ca:	9903      	ldr	r1, [sp, #12]
100018cc:	f004 fafe 	bl	10005ecc <__wrap___aeabi_dadd>
100018d0:	f004 fb96 	bl	10006000 <__wrap___aeabi_d2iz>
100018d4:	9b04      	ldr	r3, [sp, #16]
100018d6:	0005      	movs	r5, r0
100018d8:	930e      	str	r3, [sp, #56]	; 0x38
100018da:	3301      	adds	r3, #1
100018dc:	9304      	str	r3, [sp, #16]
100018de:	9b06      	ldr	r3, [sp, #24]
100018e0:	0020      	movs	r0, r4
100018e2:	6899      	ldr	r1, [r3, #8]
100018e4:	68da      	ldr	r2, [r3, #12]
100018e6:	9b05      	ldr	r3, [sp, #20]
100018e8:	9100      	str	r1, [sp, #0]
100018ea:	9201      	str	r2, [sp, #4]
100018ec:	681e      	ldr	r6, [r3, #0]
100018ee:	685f      	ldr	r7, [r3, #4]
100018f0:	9602      	str	r6, [sp, #8]
100018f2:	9703      	str	r7, [sp, #12]
100018f4:	f005 fb4e 	bl	10006f94 <__wrap___aeabi_i2f>
100018f8:	1c04      	adds	r4, r0, #0
100018fa:	0028      	movs	r0, r5
100018fc:	f005 fb4a 	bl	10006f94 <__wrap___aeabi_i2f>
10001900:	9a08      	ldr	r2, [sp, #32]
10001902:	9b09      	ldr	r3, [sp, #36]	; 0x24
10001904:	1c06      	adds	r6, r0, #0
10001906:	9800      	ldr	r0, [sp, #0]
10001908:	9901      	ldr	r1, [sp, #4]
1000190a:	f004 fadf 	bl	10005ecc <__wrap___aeabi_dadd>
1000190e:	f004 fb77 	bl	10006000 <__wrap___aeabi_d2iz>
10001912:	f005 fb3f 	bl	10006f94 <__wrap___aeabi_i2f>
10001916:	9a0a      	ldr	r2, [sp, #40]	; 0x28
10001918:	9b0b      	ldr	r3, [sp, #44]	; 0x2c
1000191a:	1c07      	adds	r7, r0, #0
1000191c:	9802      	ldr	r0, [sp, #8]
1000191e:	9903      	ldr	r1, [sp, #12]
10001920:	f004 fad4 	bl	10005ecc <__wrap___aeabi_dadd>
10001924:	f004 fb6c 	bl	10006000 <__wrap___aeabi_d2iz>
10001928:	f005 fb34 	bl	10006f94 <__wrap___aeabi_i2f>
1000192c:	4659      	mov	r1, fp
1000192e:	1c05      	adds	r5, r0, #0
10001930:	1c20      	adds	r0, r4, #0
10001932:	f005 faed 	bl	10006f10 <__wrap___aeabi_fmul>
10001936:	4651      	mov	r1, sl
10001938:	4680      	mov	r8, r0
1000193a:	1c30      	adds	r0, r6, #0
1000193c:	f005 fae8 	bl	10006f10 <__wrap___aeabi_fmul>
10001940:	1c01      	adds	r1, r0, #0
10001942:	4640      	mov	r0, r8
10001944:	f005 fade 	bl	10006f04 <__wrap___aeabi_fadd>
10001948:	9907      	ldr	r1, [sp, #28]
1000194a:	f005 fadb 	bl	10006f04 <__wrap___aeabi_fadd>
1000194e:	4659      	mov	r1, fp
10001950:	4680      	mov	r8, r0
10001952:	1c38      	adds	r0, r7, #0
10001954:	f005 fadc 	bl	10006f10 <__wrap___aeabi_fmul>
10001958:	4651      	mov	r1, sl
1000195a:	4681      	mov	r9, r0
1000195c:	1c28      	adds	r0, r5, #0
1000195e:	f005 fad7 	bl	10006f10 <__wrap___aeabi_fmul>
10001962:	1c01      	adds	r1, r0, #0
10001964:	4648      	mov	r0, r9
10001966:	f005 facd 	bl	10006f04 <__wrap___aeabi_fadd>
1000196a:	9907      	ldr	r1, [sp, #28]
1000196c:	f005 faca 	bl	10006f04 <__wrap___aeabi_fadd>
10001970:	2100      	movs	r1, #0
10001972:	4681      	mov	r9, r0
10001974:	4640      	mov	r0, r8
10001976:	f005 fb07 	bl	10006f88 <__wrap___aeabi_fcmpgt>
1000197a:	2800      	cmp	r0, #0
1000197c:	d006      	beq.n	1000198c <movePhoton+0x240>
1000197e:	2100      	movs	r1, #0
10001980:	4648      	mov	r0, r9
10001982:	f005 fb01 	bl	10006f88 <__wrap___aeabi_fcmpgt>
10001986:	2800      	cmp	r0, #0
10001988:	d000      	beq.n	1000198c <movePhoton+0x240>
1000198a:	e146      	b.n	10001c1a <movePhoton+0x4ce>
1000198c:	2100      	movs	r1, #0
1000198e:	4640      	mov	r0, r8
10001990:	f005 faf4 	bl	10006f7c <__wrap___aeabi_fcmplt>
10001994:	2800      	cmp	r0, #0
10001996:	d000      	beq.n	1000199a <movePhoton+0x24e>
10001998:	e167      	b.n	10001c6a <movePhoton+0x51e>
1000199a:	1c31      	adds	r1, r6, #0
1000199c:	1c28      	adds	r0, r5, #0
1000199e:	f005 faae 	bl	10006efe <__wrap___aeabi_fsub>
100019a2:	1c39      	adds	r1, r7, #0
100019a4:	4680      	mov	r8, r0
100019a6:	1c20      	adds	r0, r4, #0
100019a8:	f005 faa9 	bl	10006efe <__wrap___aeabi_fsub>
100019ac:	1c39      	adds	r1, r7, #0
100019ae:	4681      	mov	r9, r0
100019b0:	1c30      	adds	r0, r6, #0
100019b2:	f005 faad 	bl	10006f10 <__wrap___aeabi_fmul>
100019b6:	1c29      	adds	r1, r5, #0
100019b8:	1c06      	adds	r6, r0, #0
100019ba:	1c20      	adds	r0, r4, #0
100019bc:	f005 faa8 	bl	10006f10 <__wrap___aeabi_fmul>
100019c0:	1c01      	adds	r1, r0, #0
100019c2:	1c30      	adds	r0, r6, #0
100019c4:	f005 fa9b 	bl	10006efe <__wrap___aeabi_fsub>
100019c8:	4641      	mov	r1, r8
100019ca:	1c04      	adds	r4, r0, #0
100019cc:	980f      	ldr	r0, [sp, #60]	; 0x3c
100019ce:	f005 fa9f 	bl	10006f10 <__wrap___aeabi_fmul>
100019d2:	4649      	mov	r1, r9
100019d4:	1c05      	adds	r5, r0, #0
100019d6:	9810      	ldr	r0, [sp, #64]	; 0x40
100019d8:	f005 fa9a 	bl	10006f10 <__wrap___aeabi_fmul>
100019dc:	1c01      	adds	r1, r0, #0
100019de:	1c28      	adds	r0, r5, #0
100019e0:	f005 fa90 	bl	10006f04 <__wrap___aeabi_fadd>
100019e4:	1c21      	adds	r1, r4, #0
100019e6:	f005 fa8d 	bl	10006f04 <__wrap___aeabi_fadd>
100019ea:	4641      	mov	r1, r8
100019ec:	1c05      	adds	r5, r0, #0
100019ee:	9811      	ldr	r0, [sp, #68]	; 0x44
100019f0:	f005 fa8e 	bl	10006f10 <__wrap___aeabi_fmul>
100019f4:	4649      	mov	r1, r9
100019f6:	1c06      	adds	r6, r0, #0
100019f8:	9812      	ldr	r0, [sp, #72]	; 0x48
100019fa:	f005 fa89 	bl	10006f10 <__wrap___aeabi_fmul>
100019fe:	1c01      	adds	r1, r0, #0
10001a00:	1c30      	adds	r0, r6, #0
10001a02:	f005 fa7f 	bl	10006f04 <__wrap___aeabi_fadd>
10001a06:	1c21      	adds	r1, r4, #0
10001a08:	f005 fa7c 	bl	10006f04 <__wrap___aeabi_fadd>
10001a0c:	2100      	movs	r1, #0
10001a0e:	1c04      	adds	r4, r0, #0
10001a10:	1c28      	adds	r0, r5, #0
10001a12:	f005 fab9 	bl	10006f88 <__wrap___aeabi_fcmpgt>
10001a16:	2800      	cmp	r0, #0
10001a18:	d006      	beq.n	10001a28 <movePhoton+0x2dc>
10001a1a:	2100      	movs	r1, #0
10001a1c:	1c20      	adds	r0, r4, #0
10001a1e:	f005 fab3 	bl	10006f88 <__wrap___aeabi_fcmpgt>
10001a22:	2800      	cmp	r0, #0
10001a24:	d000      	beq.n	10001a28 <movePhoton+0x2dc>
10001a26:	e0f8      	b.n	10001c1a <movePhoton+0x4ce>
10001a28:	2100      	movs	r1, #0
10001a2a:	1c28      	adds	r0, r5, #0
10001a2c:	f005 faa6 	bl	10006f7c <__wrap___aeabi_fcmplt>
10001a30:	2800      	cmp	r0, #0
10001a32:	d000      	beq.n	10001a36 <movePhoton+0x2ea>
10001a34:	e0ea      	b.n	10001c0c <movePhoton+0x4c0>
10001a36:	4659      	mov	r1, fp
10001a38:	4648      	mov	r0, r9
10001a3a:	f005 fa69 	bl	10006f10 <__wrap___aeabi_fmul>
10001a3e:	4651      	mov	r1, sl
10001a40:	1c04      	adds	r4, r0, #0
10001a42:	4640      	mov	r0, r8
10001a44:	f005 fa64 	bl	10006f10 <__wrap___aeabi_fmul>
10001a48:	1c01      	adds	r1, r0, #0
10001a4a:	1c20      	adds	r0, r4, #0
10001a4c:	f005 fa57 	bl	10006efe <__wrap___aeabi_fsub>
10001a50:	2100      	movs	r1, #0
10001a52:	f005 fa8b 	bl	10006f6c <__wrap___aeabi_fcmpeq>
10001a56:	2800      	cmp	r0, #0
10001a58:	d000      	beq.n	10001a5c <movePhoton+0x310>
10001a5a:	e0de      	b.n	10001c1a <movePhoton+0x4ce>
10001a5c:	9b14      	ldr	r3, [sp, #80]	; 0x50
10001a5e:	990c      	ldr	r1, [sp, #48]	; 0x30
10001a60:	469b      	mov	fp, r3
10001a62:	4680      	mov	r8, r0
10001a64:	482b      	ldr	r0, [pc, #172]	; (10001b14 <movePhoton+0x3c8>)
10001a66:	f005 fd17 	bl	10007498 <__wrap_printf>
10001a6a:	465b      	mov	r3, fp
10001a6c:	492a      	ldr	r1, [pc, #168]	; (10001b18 <movePhoton+0x3cc>)
10001a6e:	699a      	ldr	r2, [r3, #24]
10001a70:	6808      	ldr	r0, [r1, #0]
10001a72:	0093      	lsls	r3, r2, #2
10001a74:	4684      	mov	ip, r0
10001a76:	425b      	negs	r3, r3
10001a78:	1a9b      	subs	r3, r3, r2
10001a7a:	3319      	adds	r3, #25
10001a7c:	4463      	add	r3, ip
10001a7e:	600b      	str	r3, [r1, #0]
10001a80:	2a01      	cmp	r2, #1
10001a82:	dc00      	bgt.n	10001a86 <movePhoton+0x33a>
10001a84:	e10f      	b.n	10001ca6 <movePhoton+0x55a>
10001a86:	22cd      	movs	r2, #205	; 0xcd
10001a88:	4b24      	ldr	r3, [pc, #144]	; (10001b1c <movePhoton+0x3d0>)
10001a8a:	0092      	lsls	r2, r2, #2
10001a8c:	5899      	ldr	r1, [r3, r2]
10001a8e:	2900      	cmp	r1, #0
10001a90:	d065      	beq.n	10001b5e <movePhoton+0x412>
10001a92:	4a23      	ldr	r2, [pc, #140]	; (10001b20 <movePhoton+0x3d4>)
10001a94:	589a      	ldr	r2, [r3, r2]
10001a96:	2a00      	cmp	r2, #0
10001a98:	d100      	bne.n	10001a9c <movePhoton+0x350>
10001a9a:	e174      	b.n	10001d86 <movePhoton+0x63a>
10001a9c:	4a21      	ldr	r2, [pc, #132]	; (10001b24 <movePhoton+0x3d8>)
10001a9e:	589a      	ldr	r2, [r3, r2]
10001aa0:	2a00      	cmp	r2, #0
10001aa2:	d100      	bne.n	10001aa6 <movePhoton+0x35a>
10001aa4:	e171      	b.n	10001d8a <movePhoton+0x63e>
10001aa6:	4a20      	ldr	r2, [pc, #128]	; (10001b28 <movePhoton+0x3dc>)
10001aa8:	589a      	ldr	r2, [r3, r2]
10001aaa:	2a00      	cmp	r2, #0
10001aac:	d100      	bne.n	10001ab0 <movePhoton+0x364>
10001aae:	e16e      	b.n	10001d8e <movePhoton+0x642>
10001ab0:	4a1e      	ldr	r2, [pc, #120]	; (10001b2c <movePhoton+0x3e0>)
10001ab2:	589a      	ldr	r2, [r3, r2]
10001ab4:	2a00      	cmp	r2, #0
10001ab6:	d100      	bne.n	10001aba <movePhoton+0x36e>
10001ab8:	e16b      	b.n	10001d92 <movePhoton+0x646>
10001aba:	4a1d      	ldr	r2, [pc, #116]	; (10001b30 <movePhoton+0x3e4>)
10001abc:	589a      	ldr	r2, [r3, r2]
10001abe:	2a00      	cmp	r2, #0
10001ac0:	d100      	bne.n	10001ac4 <movePhoton+0x378>
10001ac2:	e16a      	b.n	10001d9a <movePhoton+0x64e>
10001ac4:	4a1b      	ldr	r2, [pc, #108]	; (10001b34 <movePhoton+0x3e8>)
10001ac6:	589a      	ldr	r2, [r3, r2]
10001ac8:	2a00      	cmp	r2, #0
10001aca:	d100      	bne.n	10001ace <movePhoton+0x382>
10001acc:	e163      	b.n	10001d96 <movePhoton+0x64a>
10001ace:	4a1a      	ldr	r2, [pc, #104]	; (10001b38 <movePhoton+0x3ec>)
10001ad0:	589a      	ldr	r2, [r3, r2]
10001ad2:	2a00      	cmp	r2, #0
10001ad4:	d100      	bne.n	10001ad8 <movePhoton+0x38c>
10001ad6:	e162      	b.n	10001d9e <movePhoton+0x652>
10001ad8:	4a18      	ldr	r2, [pc, #96]	; (10001b3c <movePhoton+0x3f0>)
10001ada:	589a      	ldr	r2, [r3, r2]
10001adc:	2a00      	cmp	r2, #0
10001ade:	d100      	bne.n	10001ae2 <movePhoton+0x396>
10001ae0:	e15f      	b.n	10001da2 <movePhoton+0x656>
10001ae2:	4a17      	ldr	r2, [pc, #92]	; (10001b40 <movePhoton+0x3f4>)
10001ae4:	589a      	ldr	r2, [r3, r2]
10001ae6:	2a00      	cmp	r2, #0
10001ae8:	d100      	bne.n	10001aec <movePhoton+0x3a0>
10001aea:	e15c      	b.n	10001da6 <movePhoton+0x65a>
10001aec:	4a15      	ldr	r2, [pc, #84]	; (10001b44 <movePhoton+0x3f8>)
10001aee:	589a      	ldr	r2, [r3, r2]
10001af0:	e02a      	b.n	10001b48 <movePhoton+0x3fc>
10001af2:	46c0      	nop			; (mov r8, r8)
10001af4:	200008f8 	.word	0x200008f8
10001af8:	200008d0 	.word	0x200008d0
10001afc:	20000970 	.word	0x20000970
10001b00:	20000920 	.word	0x20000920
10001b04:	200030a0 	.word	0x200030a0
10001b08:	20000cc0 	.word	0x20000cc0
10001b0c:	fffffce0 	.word	0xfffffce0
10001b10:	fffffe78 	.word	0xfffffe78
10001b14:	100076e0 	.word	0x100076e0
10001b18:	200008a8 	.word	0x200008a8
10001b1c:	200009a0 	.word	0x200009a0
10001b20:	00000674 	.word	0x00000674
10001b24:	000009b4 	.word	0x000009b4
10001b28:	00000cf4 	.word	0x00000cf4
10001b2c:	00001034 	.word	0x00001034
10001b30:	00001374 	.word	0x00001374
10001b34:	000016b4 	.word	0x000016b4
10001b38:	000019f4 	.word	0x000019f4
10001b3c:	00001d34 	.word	0x00001d34
10001b40:	00002074 	.word	0x00002074
10001b44:	000023b4 	.word	0x000023b4
10001b48:	2a00      	cmp	r2, #0
10001b4a:	d100      	bne.n	10001b4e <movePhoton+0x402>
10001b4c:	e12d      	b.n	10001daa <movePhoton+0x65e>
10001b4e:	4a98      	ldr	r2, [pc, #608]	; (10001db0 <movePhoton+0x664>)
10001b50:	5899      	ldr	r1, [r3, r2]
10001b52:	424b      	negs	r3, r1
10001b54:	4159      	adcs	r1, r3
10001b56:	424b      	negs	r3, r1
10001b58:	210c      	movs	r1, #12
10001b5a:	4019      	ands	r1, r3
10001b5c:	3901      	subs	r1, #1
10001b5e:	9a0e      	ldr	r2, [sp, #56]	; 0x38
10001b60:	980c      	ldr	r0, [sp, #48]	; 0x30
10001b62:	f7ff f9a3 	bl	10000eac <splitRoid>
10001b66:	2300      	movs	r3, #0
10001b68:	9a13      	ldr	r2, [sp, #76]	; 0x4c
10001b6a:	6013      	str	r3, [r2, #0]
10001b6c:	9b13      	ldr	r3, [sp, #76]	; 0x4c
10001b6e:	3304      	adds	r3, #4
10001b70:	9313      	str	r3, [sp, #76]	; 0x4c
10001b72:	9b15      	ldr	r3, [sp, #84]	; 0x54
10001b74:	3304      	adds	r3, #4
10001b76:	9315      	str	r3, [sp, #84]	; 0x54
10001b78:	2b28      	cmp	r3, #40	; 0x28
10001b7a:	d000      	beq.n	10001b7e <movePhoton+0x432>
10001b7c:	e5f1      	b.n	10001762 <movePhoton+0x16>
10001b7e:	4a8d      	ldr	r2, [pc, #564]	; (10001db4 <movePhoton+0x668>)
10001b80:	6813      	ldr	r3, [r2, #0]
10001b82:	2b00      	cmp	r3, #0
10001b84:	dd3b      	ble.n	10001bfe <movePhoton+0x4b2>
10001b86:	3b01      	subs	r3, #1
10001b88:	6013      	str	r3, [r2, #0]
10001b8a:	2b00      	cmp	r3, #0
10001b8c:	d037      	beq.n	10001bfe <movePhoton+0x4b2>
10001b8e:	4b8a      	ldr	r3, [pc, #552]	; (10001db8 <movePhoton+0x66c>)
10001b90:	4f8a      	ldr	r7, [pc, #552]	; (10001dbc <movePhoton+0x670>)
10001b92:	6819      	ldr	r1, [r3, #0]
10001b94:	6838      	ldr	r0, [r7, #0]
10001b96:	f005 f9b5 	bl	10006f04 <__wrap___aeabi_fadd>
10001b9a:	4e89      	ldr	r6, [pc, #548]	; (10001dc0 <movePhoton+0x674>)
10001b9c:	4b89      	ldr	r3, [pc, #548]	; (10001dc4 <movePhoton+0x678>)
10001b9e:	1c05      	adds	r5, r0, #0
10001ba0:	6819      	ldr	r1, [r3, #0]
10001ba2:	6038      	str	r0, [r7, #0]
10001ba4:	6830      	ldr	r0, [r6, #0]
10001ba6:	f005 f9ad 	bl	10006f04 <__wrap___aeabi_fadd>
10001baa:	4987      	ldr	r1, [pc, #540]	; (10001dc8 <movePhoton+0x67c>)
10001bac:	1c04      	adds	r4, r0, #0
10001bae:	6030      	str	r0, [r6, #0]
10001bb0:	1c28      	adds	r0, r5, #0
10001bb2:	f005 f9e9 	bl	10006f88 <__wrap___aeabi_fcmpgt>
10001bb6:	2800      	cmp	r0, #0
10001bb8:	d006      	beq.n	10001bc8 <movePhoton+0x47c>
10001bba:	2186      	movs	r1, #134	; 0x86
10001bbc:	1c28      	adds	r0, r5, #0
10001bbe:	05c9      	lsls	r1, r1, #23
10001bc0:	f005 f99d 	bl	10006efe <__wrap___aeabi_fsub>
10001bc4:	1c05      	adds	r5, r0, #0
10001bc6:	6038      	str	r0, [r7, #0]
10001bc8:	497f      	ldr	r1, [pc, #508]	; (10001dc8 <movePhoton+0x67c>)
10001bca:	1c20      	adds	r0, r4, #0
10001bcc:	f005 f9dc 	bl	10006f88 <__wrap___aeabi_fcmpgt>
10001bd0:	2800      	cmp	r0, #0
10001bd2:	d006      	beq.n	10001be2 <movePhoton+0x496>
10001bd4:	2186      	movs	r1, #134	; 0x86
10001bd6:	1c20      	adds	r0, r4, #0
10001bd8:	05c9      	lsls	r1, r1, #23
10001bda:	f005 f990 	bl	10006efe <__wrap___aeabi_fsub>
10001bde:	1c04      	adds	r4, r0, #0
10001be0:	6030      	str	r0, [r6, #0]
10001be2:	2100      	movs	r1, #0
10001be4:	1c28      	adds	r0, r5, #0
10001be6:	f005 f9c9 	bl	10006f7c <__wrap___aeabi_fcmplt>
10001bea:	2800      	cmp	r0, #0
10001bec:	d000      	beq.n	10001bf0 <movePhoton+0x4a4>
10001bee:	e0bc      	b.n	10001d6a <movePhoton+0x61e>
10001bf0:	2100      	movs	r1, #0
10001bf2:	1c20      	adds	r0, r4, #0
10001bf4:	f005 f9c2 	bl	10006f7c <__wrap___aeabi_fcmplt>
10001bf8:	2800      	cmp	r0, #0
10001bfa:	d000      	beq.n	10001bfe <movePhoton+0x4b2>
10001bfc:	e0ae      	b.n	10001d5c <movePhoton+0x610>
10001bfe:	b01b      	add	sp, #108	; 0x6c
10001c00:	bc3c      	pop	{r2, r3, r4, r5}
10001c02:	4690      	mov	r8, r2
10001c04:	4699      	mov	r9, r3
10001c06:	46a2      	mov	sl, r4
10001c08:	46ab      	mov	fp, r5
10001c0a:	bdf0      	pop	{r4, r5, r6, r7, pc}
10001c0c:	2100      	movs	r1, #0
10001c0e:	1c20      	adds	r0, r4, #0
10001c10:	f005 f9b4 	bl	10006f7c <__wrap___aeabi_fcmplt>
10001c14:	2800      	cmp	r0, #0
10001c16:	d100      	bne.n	10001c1a <movePhoton+0x4ce>
10001c18:	e70d      	b.n	10001a36 <movePhoton+0x2ea>
10001c1a:	9b06      	ldr	r3, [sp, #24]
10001c1c:	9a0d      	ldr	r2, [sp, #52]	; 0x34
10001c1e:	3308      	adds	r3, #8
10001c20:	9306      	str	r3, [sp, #24]
10001c22:	9b05      	ldr	r3, [sp, #20]
10001c24:	3308      	adds	r3, #8
10001c26:	9305      	str	r3, [sp, #20]
10001c28:	9b04      	ldr	r3, [sp, #16]
10001c2a:	4293      	cmp	r3, r2
10001c2c:	d000      	beq.n	10001c30 <movePhoton+0x4e4>
10001c2e:	e640      	b.n	100018b2 <movePhoton+0x166>
10001c30:	9b14      	ldr	r3, [sp, #80]	; 0x50
10001c32:	469b      	mov	fp, r3
10001c34:	9b0c      	ldr	r3, [sp, #48]	; 0x30
10001c36:	3301      	adds	r3, #1
10001c38:	930c      	str	r3, [sp, #48]	; 0x30
10001c3a:	2b0c      	cmp	r3, #12
10001c3c:	d000      	beq.n	10001c40 <movePhoton+0x4f4>
10001c3e:	e5d5      	b.n	100017ec <movePhoton+0xa0>
10001c40:	4962      	ldr	r1, [pc, #392]	; (10001dcc <movePhoton+0x680>)
10001c42:	9a17      	ldr	r2, [sp, #92]	; 0x5c
10001c44:	680b      	ldr	r3, [r1, #0]
10001c46:	9816      	ldr	r0, [sp, #88]	; 0x58
10001c48:	1a9b      	subs	r3, r3, r2
10001c4a:	4a61      	ldr	r2, [pc, #388]	; (10001dd0 <movePhoton+0x684>)
10001c4c:	435b      	muls	r3, r3
10001c4e:	6812      	ldr	r2, [r2, #0]
10001c50:	1a12      	subs	r2, r2, r0
10001c52:	4352      	muls	r2, r2
10001c54:	189b      	adds	r3, r3, r2
10001c56:	2b1d      	cmp	r3, #29
10001c58:	dd61      	ble.n	10001d1e <movePhoton+0x5d2>
10001c5a:	4a5e      	ldr	r2, [pc, #376]	; (10001dd4 <movePhoton+0x688>)
10001c5c:	9b15      	ldr	r3, [sp, #84]	; 0x54
10001c5e:	9917      	ldr	r1, [sp, #92]	; 0x5c
10001c60:	50d1      	str	r1, [r2, r3]
10001c62:	4a5d      	ldr	r2, [pc, #372]	; (10001dd8 <movePhoton+0x68c>)
10001c64:	9916      	ldr	r1, [sp, #88]	; 0x58
10001c66:	50d1      	str	r1, [r2, r3]
10001c68:	e780      	b.n	10001b6c <movePhoton+0x420>
10001c6a:	2100      	movs	r1, #0
10001c6c:	4648      	mov	r0, r9
10001c6e:	f005 f985 	bl	10006f7c <__wrap___aeabi_fcmplt>
10001c72:	2800      	cmp	r0, #0
10001c74:	d100      	bne.n	10001c78 <movePhoton+0x52c>
10001c76:	e690      	b.n	1000199a <movePhoton+0x24e>
10001c78:	e7cf      	b.n	10001c1a <movePhoton+0x4ce>
10001c7a:	0003      	movs	r3, r0
10001c7c:	287f      	cmp	r0, #127	; 0x7f
10001c7e:	dd0f      	ble.n	10001ca0 <movePhoton+0x554>
10001c80:	3b80      	subs	r3, #128	; 0x80
10001c82:	9316      	str	r3, [sp, #88]	; 0x58
10001c84:	9b17      	ldr	r3, [sp, #92]	; 0x5c
10001c86:	2b00      	cmp	r3, #0
10001c88:	db00      	blt.n	10001c8c <movePhoton+0x540>
10001c8a:	e5a1      	b.n	100017d0 <movePhoton+0x84>
10001c8c:	9b16      	ldr	r3, [sp, #88]	; 0x58
10001c8e:	3380      	adds	r3, #128	; 0x80
10001c90:	9316      	str	r3, [sp, #88]	; 0x58
10001c92:	9b16      	ldr	r3, [sp, #88]	; 0x58
10001c94:	2b00      	cmp	r3, #0
10001c96:	db00      	blt.n	10001c9a <movePhoton+0x54e>
10001c98:	e59a      	b.n	100017d0 <movePhoton+0x84>
10001c9a:	3380      	adds	r3, #128	; 0x80
10001c9c:	9316      	str	r3, [sp, #88]	; 0x58
10001c9e:	e597      	b.n	100017d0 <movePhoton+0x84>
10001ca0:	2d00      	cmp	r5, #0
10001ca2:	dbf3      	blt.n	10001c8c <movePhoton+0x540>
10001ca4:	e7f5      	b.n	10001c92 <movePhoton+0x546>
10001ca6:	484d      	ldr	r0, [pc, #308]	; (10001ddc <movePhoton+0x690>)
10001ca8:	f005 fb64 	bl	10007374 <__wrap_puts>
10001cac:	465b      	mov	r3, fp
10001cae:	4642      	mov	r2, r8
10001cb0:	615a      	str	r2, [r3, #20]
10001cb2:	22cd      	movs	r2, #205	; 0xcd
10001cb4:	4b4a      	ldr	r3, [pc, #296]	; (10001de0 <movePhoton+0x694>)
10001cb6:	0092      	lsls	r2, r2, #2
10001cb8:	589c      	ldr	r4, [r3, r2]
10001cba:	4a4a      	ldr	r2, [pc, #296]	; (10001de4 <movePhoton+0x698>)
10001cbc:	484a      	ldr	r0, [pc, #296]	; (10001de8 <movePhoton+0x69c>)
10001cbe:	589a      	ldr	r2, [r3, r2]
10001cc0:	18a4      	adds	r4, r4, r2
10001cc2:	4a4a      	ldr	r2, [pc, #296]	; (10001dec <movePhoton+0x6a0>)
10001cc4:	589a      	ldr	r2, [r3, r2]
10001cc6:	18a4      	adds	r4, r4, r2
10001cc8:	4a49      	ldr	r2, [pc, #292]	; (10001df0 <movePhoton+0x6a4>)
10001cca:	589a      	ldr	r2, [r3, r2]
10001ccc:	18a4      	adds	r4, r4, r2
10001cce:	4a49      	ldr	r2, [pc, #292]	; (10001df4 <movePhoton+0x6a8>)
10001cd0:	589a      	ldr	r2, [r3, r2]
10001cd2:	18a4      	adds	r4, r4, r2
10001cd4:	4a48      	ldr	r2, [pc, #288]	; (10001df8 <movePhoton+0x6ac>)
10001cd6:	589a      	ldr	r2, [r3, r2]
10001cd8:	18a4      	adds	r4, r4, r2
10001cda:	4a48      	ldr	r2, [pc, #288]	; (10001dfc <movePhoton+0x6b0>)
10001cdc:	589a      	ldr	r2, [r3, r2]
10001cde:	18a4      	adds	r4, r4, r2
10001ce0:	4a47      	ldr	r2, [pc, #284]	; (10001e00 <movePhoton+0x6b4>)
10001ce2:	589a      	ldr	r2, [r3, r2]
10001ce4:	18a4      	adds	r4, r4, r2
10001ce6:	4a47      	ldr	r2, [pc, #284]	; (10001e04 <movePhoton+0x6b8>)
10001ce8:	589a      	ldr	r2, [r3, r2]
10001cea:	18a4      	adds	r4, r4, r2
10001cec:	4a46      	ldr	r2, [pc, #280]	; (10001e08 <movePhoton+0x6bc>)
10001cee:	589a      	ldr	r2, [r3, r2]
10001cf0:	18a4      	adds	r4, r4, r2
10001cf2:	4a46      	ldr	r2, [pc, #280]	; (10001e0c <movePhoton+0x6c0>)
10001cf4:	589a      	ldr	r2, [r3, r2]
10001cf6:	18a4      	adds	r4, r4, r2
10001cf8:	4a2d      	ldr	r2, [pc, #180]	; (10001db0 <movePhoton+0x664>)
10001cfa:	589b      	ldr	r3, [r3, r2]
10001cfc:	18e4      	adds	r4, r4, r3
10001cfe:	0021      	movs	r1, r4
10001d00:	f005 fbca 	bl	10007498 <__wrap_printf>
10001d04:	2c00      	cmp	r4, #0
10001d06:	d000      	beq.n	10001d0a <movePhoton+0x5be>
10001d08:	e72d      	b.n	10001b66 <movePhoton+0x41a>
10001d0a:	4a41      	ldr	r2, [pc, #260]	; (10001e10 <movePhoton+0x6c4>)
10001d0c:	6813      	ldr	r3, [r2, #0]
10001d0e:	3301      	adds	r3, #1
10001d10:	6013      	str	r3, [r2, #0]
10001d12:	f7ff faf7 	bl	10001304 <respawnRoids>
10001d16:	483f      	ldr	r0, [pc, #252]	; (10001e14 <movePhoton+0x6c8>)
10001d18:	f005 fb2c 	bl	10007374 <__wrap_puts>
10001d1c:	e723      	b.n	10001b66 <movePhoton+0x41a>
10001d1e:	2400      	movs	r4, #0
10001d20:	4b3d      	ldr	r3, [pc, #244]	; (10001e18 <movePhoton+0x6cc>)
10001d22:	601c      	str	r4, [r3, #0]
10001d24:	231e      	movs	r3, #30
10001d26:	425b      	negs	r3, r3
10001d28:	600b      	str	r3, [r1, #0]
10001d2a:	f005 fc65 	bl	100075f8 <rand>
10001d2e:	f005 f931 	bl	10006f94 <__wrap___aeabi_i2f>
10001d32:	493a      	ldr	r1, [pc, #232]	; (10001e1c <movePhoton+0x6d0>)
10001d34:	f005 f8ec 	bl	10006f10 <__wrap___aeabi_fmul>
10001d38:	21c0      	movs	r1, #192	; 0xc0
10001d3a:	0589      	lsls	r1, r1, #22
10001d3c:	f005 f8e8 	bl	10006f10 <__wrap___aeabi_fmul>
10001d40:	4937      	ldr	r1, [pc, #220]	; (10001e20 <movePhoton+0x6d4>)
10001d42:	f005 f8df 	bl	10006f04 <__wrap___aeabi_fadd>
10001d46:	f005 f947 	bl	10006fd8 <__wrap___aeabi_f2iz>
10001d4a:	4b36      	ldr	r3, [pc, #216]	; (10001e24 <movePhoton+0x6d8>)
10001d4c:	4a36      	ldr	r2, [pc, #216]	; (10001e28 <movePhoton+0x6dc>)
10001d4e:	6018      	str	r0, [r3, #0]
10001d50:	6813      	ldr	r3, [r2, #0]
10001d52:	3332      	adds	r3, #50	; 0x32
10001d54:	6013      	str	r3, [r2, #0]
10001d56:	9b13      	ldr	r3, [sp, #76]	; 0x4c
10001d58:	601c      	str	r4, [r3, #0]
10001d5a:	e707      	b.n	10001b6c <movePhoton+0x420>
10001d5c:	2186      	movs	r1, #134	; 0x86
10001d5e:	1c20      	adds	r0, r4, #0
10001d60:	05c9      	lsls	r1, r1, #23
10001d62:	f005 f8cf 	bl	10006f04 <__wrap___aeabi_fadd>
10001d66:	6030      	str	r0, [r6, #0]
10001d68:	e749      	b.n	10001bfe <movePhoton+0x4b2>
10001d6a:	2186      	movs	r1, #134	; 0x86
10001d6c:	1c28      	adds	r0, r5, #0
10001d6e:	05c9      	lsls	r1, r1, #23
10001d70:	f005 f8c8 	bl	10006f04 <__wrap___aeabi_fadd>
10001d74:	2100      	movs	r1, #0
10001d76:	6038      	str	r0, [r7, #0]
10001d78:	1c20      	adds	r0, r4, #0
10001d7a:	f005 f8ff 	bl	10006f7c <__wrap___aeabi_fcmplt>
10001d7e:	2800      	cmp	r0, #0
10001d80:	d100      	bne.n	10001d84 <movePhoton+0x638>
10001d82:	e73c      	b.n	10001bfe <movePhoton+0x4b2>
10001d84:	e7ea      	b.n	10001d5c <movePhoton+0x610>
10001d86:	2101      	movs	r1, #1
10001d88:	e6e9      	b.n	10001b5e <movePhoton+0x412>
10001d8a:	2102      	movs	r1, #2
10001d8c:	e6e7      	b.n	10001b5e <movePhoton+0x412>
10001d8e:	2103      	movs	r1, #3
10001d90:	e6e5      	b.n	10001b5e <movePhoton+0x412>
10001d92:	2104      	movs	r1, #4
10001d94:	e6e3      	b.n	10001b5e <movePhoton+0x412>
10001d96:	2106      	movs	r1, #6
10001d98:	e6e1      	b.n	10001b5e <movePhoton+0x412>
10001d9a:	2105      	movs	r1, #5
10001d9c:	e6df      	b.n	10001b5e <movePhoton+0x412>
10001d9e:	2107      	movs	r1, #7
10001da0:	e6dd      	b.n	10001b5e <movePhoton+0x412>
10001da2:	2108      	movs	r1, #8
10001da4:	e6db      	b.n	10001b5e <movePhoton+0x412>
10001da6:	2109      	movs	r1, #9
10001da8:	e6d9      	b.n	10001b5e <movePhoton+0x412>
10001daa:	210a      	movs	r1, #10
10001dac:	e6d7      	b.n	10001b5e <movePhoton+0x412>
10001dae:	46c0      	nop			; (mov r8, r8)
10001db0:	000026f4 	.word	0x000026f4
10001db4:	20000804 	.word	0x20000804
10001db8:	20000808 	.word	0x20000808
10001dbc:	20000810 	.word	0x20000810
10001dc0:	20000814 	.word	0x20000814
10001dc4:	2000080c 	.word	0x2000080c
10001dc8:	42fe0000 	.word	0x42fe0000
10001dcc:	200001c0 	.word	0x200001c0
10001dd0:	200001c4 	.word	0x200001c4
10001dd4:	200008d0 	.word	0x200008d0
10001dd8:	20000970 	.word	0x20000970
10001ddc:	100076f0 	.word	0x100076f0
10001de0:	200009a0 	.word	0x200009a0
10001de4:	00000674 	.word	0x00000674
10001de8:	100076fc 	.word	0x100076fc
10001dec:	000009b4 	.word	0x000009b4
10001df0:	00000cf4 	.word	0x00000cf4
10001df4:	00001034 	.word	0x00001034
10001df8:	00001374 	.word	0x00001374
10001dfc:	000016b4 	.word	0x000016b4
10001e00:	000019f4 	.word	0x000019f4
10001e04:	00001d34 	.word	0x00001d34
10001e08:	00002074 	.word	0x00002074
10001e0c:	000023b4 	.word	0x000023b4
10001e10:	200001b8 	.word	0x200001b8
10001e14:	1000770c 	.word	0x1000770c
10001e18:	200008ac 	.word	0x200008ac
10001e1c:	43480000 	.word	0x43480000
10001e20:	42c80000 	.word	0x42c80000
10001e24:	200008b0 	.word	0x200008b0
10001e28:	200008a8 	.word	0x200008a8

10001e2c <mainLoop>:
10001e2c:	b5f0      	push	{r4, r5, r6, r7, lr}
10001e2e:	46de      	mov	lr, fp
10001e30:	464e      	mov	r6, r9
10001e32:	4645      	mov	r5, r8
10001e34:	4657      	mov	r7, sl
10001e36:	b5e0      	push	{r5, r6, r7, lr}
10001e38:	b09b      	sub	sp, #108	; 0x6c
10001e3a:	f005 fbdd 	bl	100075f8 <rand>
10001e3e:	f005 f8a9 	bl	10006f94 <__wrap___aeabi_i2f>
10001e42:	49b0      	ldr	r1, [pc, #704]	; (10002104 <mainLoop+0x2d8>)
10001e44:	f005 f864 	bl	10006f10 <__wrap___aeabi_fmul>
10001e48:	21c0      	movs	r1, #192	; 0xc0
10001e4a:	0589      	lsls	r1, r1, #22
10001e4c:	f005 f860 	bl	10006f10 <__wrap___aeabi_fmul>
10001e50:	49ad      	ldr	r1, [pc, #692]	; (10002108 <mainLoop+0x2dc>)
10001e52:	f005 f857 	bl	10006f04 <__wrap___aeabi_fadd>
10001e56:	f005 f8bf 	bl	10006fd8 <__wrap___aeabi_f2iz>
10001e5a:	2505      	movs	r5, #5
10001e5c:	4bab      	ldr	r3, [pc, #684]	; (1000210c <mainLoop+0x2e0>)
10001e5e:	6018      	str	r0, [r3, #0]
10001e60:	2005      	movs	r0, #5
10001e62:	f000 ff8f 	bl	10002d84 <setTextSize>
10001e66:	4eaa      	ldr	r6, [pc, #680]	; (10002110 <mainLoop+0x2e4>)
10001e68:	002a      	movs	r2, r5
10001e6a:	0031      	movs	r1, r6
10001e6c:	a807      	add	r0, sp, #28
10001e6e:	f003 fd35 	bl	100058dc <__wrap_sprintf>
10001e72:	2478      	movs	r4, #120	; 0x78
10001e74:	f000 fbd0 	bl	10002618 <clearDisplay>
10001e78:	2128      	movs	r1, #40	; 0x28
10001e7a:	b220      	sxth	r0, r4
10001e7c:	f000 ff78 	bl	10002d70 <setCursor>
10001e80:	3c05      	subs	r4, #5
10001e82:	a807      	add	r0, sp, #28
10001e84:	f000 ff0a 	bl	10002c9c <print>
10001e88:	f000 fb66 	bl	10002558 <display>
10001e8c:	2c32      	cmp	r4, #50	; 0x32
10001e8e:	d1f1      	bne.n	10001e74 <mainLoop+0x48>
10001e90:	2096      	movs	r0, #150	; 0x96
10001e92:	0040      	lsls	r0, r0, #1
10001e94:	f001 fa70 	bl	10003378 <sleep_ms>
10001e98:	f000 fbbe 	bl	10002618 <clearDisplay>
10001e9c:	2128      	movs	r1, #40	; 0x28
10001e9e:	b220      	sxth	r0, r4
10001ea0:	f000 ff66 	bl	10002d70 <setCursor>
10001ea4:	3c05      	subs	r4, #5
10001ea6:	a807      	add	r0, sp, #28
10001ea8:	f000 fef8 	bl	10002c9c <print>
10001eac:	f000 fb54 	bl	10002558 <display>
10001eb0:	0023      	movs	r3, r4
10001eb2:	3314      	adds	r3, #20
10001eb4:	d1f0      	bne.n	10001e98 <mainLoop+0x6c>
10001eb6:	f000 fbaf 	bl	10002618 <clearDisplay>
10001eba:	3d01      	subs	r5, #1
10001ebc:	f000 fb4c 	bl	10002558 <display>
10001ec0:	20c8      	movs	r0, #200	; 0xc8
10001ec2:	f001 fa59 	bl	10003378 <sleep_ms>
10001ec6:	2d00      	cmp	r5, #0
10001ec8:	d1ce      	bne.n	10001e68 <mainLoop+0x3c>
10001eca:	2102      	movs	r1, #2
10001ecc:	200a      	movs	r0, #10
10001ece:	f000 ff4f 	bl	10002d70 <setCursor>
10001ed2:	2001      	movs	r0, #1
10001ed4:	f000 ff56 	bl	10002d84 <setTextSize>
10001ed8:	2001      	movs	r0, #1
10001eda:	f000 ff5d 	bl	10002d98 <setTextColor>
10001ede:	2200      	movs	r2, #0
10001ee0:	2300      	movs	r3, #0
10001ee2:	920a      	str	r2, [sp, #40]	; 0x28
10001ee4:	930b      	str	r3, [sp, #44]	; 0x2c
10001ee6:	2201      	movs	r2, #1
10001ee8:	4b8a      	ldr	r3, [pc, #552]	; (10002114 <mainLoop+0x2e8>)
10001eea:	498b      	ldr	r1, [pc, #556]	; (10002118 <mainLoop+0x2ec>)
10001eec:	601a      	str	r2, [r3, #0]
10001eee:	2303      	movs	r3, #3
10001ef0:	600b      	str	r3, [r1, #0]
10001ef2:	498a      	ldr	r1, [pc, #552]	; (1000211c <mainLoop+0x2f0>)
10001ef4:	9508      	str	r5, [sp, #32]
10001ef6:	600d      	str	r5, [r1, #0]
10001ef8:	4989      	ldr	r1, [pc, #548]	; (10002120 <mainLoop+0x2f4>)
10001efa:	9509      	str	r5, [sp, #36]	; 0x24
10001efc:	600a      	str	r2, [r1, #0]
10001efe:	4a89      	ldr	r2, [pc, #548]	; (10002124 <mainLoop+0x2f8>)
10001f00:	6013      	str	r3, [r2, #0]
10001f02:	f7ff f9ff 	bl	10001304 <respawnRoids>
10001f06:	2228      	movs	r2, #40	; 0x28
10001f08:	2100      	movs	r1, #0
10001f0a:	4887      	ldr	r0, [pc, #540]	; (10002128 <mainLoop+0x2fc>)
10001f0c:	f005 f91a 	bl	10007144 <__wrap_memset>
10001f10:	2340      	movs	r3, #64	; 0x40
10001f12:	9303      	str	r3, [sp, #12]
10001f14:	9304      	str	r3, [sp, #16]
10001f16:	9b03      	ldr	r3, [sp, #12]
10001f18:	aa09      	add	r2, sp, #36	; 0x24
10001f1a:	9300      	str	r3, [sp, #0]
10001f1c:	a908      	add	r1, sp, #32
10001f1e:	9b04      	ldr	r3, [sp, #16]
10001f20:	a80a      	add	r0, sp, #40	; 0x28
10001f22:	f7fe fc2f 	bl	10000784 <processInput>
10001f26:	4683      	mov	fp, r0
10001f28:	2800      	cmp	r0, #0
10001f2a:	d000      	beq.n	10001f2e <mainLoop+0x102>
10001f2c:	e213      	b.n	10002356 <mainLoop+0x52a>
10001f2e:	4b7f      	ldr	r3, [pc, #508]	; (1000212c <mainLoop+0x300>)
10001f30:	681b      	ldr	r3, [r3, #0]
10001f32:	2b00      	cmp	r3, #0
10001f34:	d100      	bne.n	10001f38 <mainLoop+0x10c>
10001f36:	e113      	b.n	10002160 <mainLoop+0x334>
10001f38:	4e7d      	ldr	r6, [pc, #500]	; (10002130 <mainLoop+0x304>)
10001f3a:	4b76      	ldr	r3, [pc, #472]	; (10002114 <mainLoop+0x2e8>)
10001f3c:	4d7d      	ldr	r5, [pc, #500]	; (10002134 <mainLoop+0x308>)
10001f3e:	681b      	ldr	r3, [r3, #0]
10001f40:	682c      	ldr	r4, [r5, #0]
10001f42:	9302      	str	r3, [sp, #8]
10001f44:	2b00      	cmp	r3, #0
10001f46:	d100      	bne.n	10001f4a <mainLoop+0x11e>
10001f48:	e0d3      	b.n	100020f2 <mainLoop+0x2c6>
10001f4a:	2c00      	cmp	r4, #0
10001f4c:	d000      	beq.n	10001f50 <mainLoop+0x124>
10001f4e:	e0d0      	b.n	100020f2 <mainLoop+0x2c6>
10001f50:	9903      	ldr	r1, [sp, #12]
10001f52:	9804      	ldr	r0, [sp, #16]
10001f54:	f7fe faa8 	bl	100004a8 <checkShipCollision.part.0>
10001f58:	2800      	cmp	r0, #0
10001f5a:	d00c      	beq.n	10001f76 <mainLoop+0x14a>
10001f5c:	2264      	movs	r2, #100	; 0x64
10001f5e:	4b6d      	ldr	r3, [pc, #436]	; (10002114 <mainLoop+0x2e8>)
10001f60:	9408      	str	r4, [sp, #32]
10001f62:	601c      	str	r4, [r3, #0]
10001f64:	4b74      	ldr	r3, [pc, #464]	; (10002138 <mainLoop+0x30c>)
10001f66:	9409      	str	r4, [sp, #36]	; 0x24
10001f68:	601a      	str	r2, [r3, #0]
10001f6a:	4b6e      	ldr	r3, [pc, #440]	; (10002124 <mainLoop+0x2f8>)
10001f6c:	4a6d      	ldr	r2, [pc, #436]	; (10002124 <mainLoop+0x2f8>)
10001f6e:	681b      	ldr	r3, [r3, #0]
10001f70:	9302      	str	r3, [sp, #8]
10001f72:	3b01      	subs	r3, #1
10001f74:	6013      	str	r3, [r2, #0]
10001f76:	f000 fb4f 	bl	10002618 <clearDisplay>
10001f7a:	9a0a      	ldr	r2, [sp, #40]	; 0x28
10001f7c:	9b0b      	ldr	r3, [sp, #44]	; 0x2c
10001f7e:	9903      	ldr	r1, [sp, #12]
10001f80:	9804      	ldr	r0, [sp, #16]
10001f82:	f7fe fd75 	bl	10000a70 <drawShip>
10001f86:	6833      	ldr	r3, [r6, #0]
10001f88:	2b00      	cmp	r3, #0
10001f8a:	d000      	beq.n	10001f8e <mainLoop+0x162>
10001f8c:	e0b7      	b.n	100020fe <mainLoop+0x2d2>
10001f8e:	4b61      	ldr	r3, [pc, #388]	; (10002114 <mainLoop+0x2e8>)
10001f90:	681b      	ldr	r3, [r3, #0]
10001f92:	9302      	str	r3, [sp, #8]
10001f94:	2b00      	cmp	r3, #0
10001f96:	d106      	bne.n	10001fa6 <mainLoop+0x17a>
10001f98:	4a67      	ldr	r2, [pc, #412]	; (10002138 <mainLoop+0x30c>)
10001f9a:	6813      	ldr	r3, [r2, #0]
10001f9c:	3b01      	subs	r3, #1
10001f9e:	6013      	str	r3, [r2, #0]
10001fa0:	2b00      	cmp	r3, #0
10001fa2:	dc00      	bgt.n	10001fa6 <mainLoop+0x17a>
10001fa4:	e172      	b.n	1000228c <mainLoop+0x460>
10001fa6:	239c      	movs	r3, #156	; 0x9c
10001fa8:	4c64      	ldr	r4, [pc, #400]	; (1000213c <mainLoop+0x310>)
10001faa:	019b      	lsls	r3, r3, #6
10001fac:	18e5      	adds	r5, r4, r3
10001fae:	6823      	ldr	r3, [r4, #0]
10001fb0:	2b00      	cmp	r3, #0
10001fb2:	d003      	beq.n	10001fbc <mainLoop+0x190>
10001fb4:	4b62      	ldr	r3, [pc, #392]	; (10002140 <mainLoop+0x314>)
10001fb6:	18e0      	adds	r0, r4, r3
10001fb8:	f7fe f9a8 	bl	1000030c <drawRoid.part.0>
10001fbc:	23d0      	movs	r3, #208	; 0xd0
10001fbe:	009b      	lsls	r3, r3, #2
10001fc0:	469c      	mov	ip, r3
10001fc2:	4464      	add	r4, ip
10001fc4:	42ac      	cmp	r4, r5
10001fc6:	d1f2      	bne.n	10001fae <mainLoop+0x182>
10001fc8:	2400      	movs	r4, #0
10001fca:	2701      	movs	r7, #1
10001fcc:	4b56      	ldr	r3, [pc, #344]	; (10002128 <mainLoop+0x2fc>)
10001fce:	591b      	ldr	r3, [r3, r4]
10001fd0:	9302      	str	r3, [sp, #8]
10001fd2:	2b00      	cmp	r3, #0
10001fd4:	dd2a      	ble.n	1000202c <mainLoop+0x200>
10001fd6:	4b5b      	ldr	r3, [pc, #364]	; (10002144 <mainLoop+0x318>)
10001fd8:	591d      	ldr	r5, [r3, r4]
10001fda:	4b5b      	ldr	r3, [pc, #364]	; (10002148 <mainLoop+0x31c>)
10001fdc:	002a      	movs	r2, r5
10001fde:	591e      	ldr	r6, [r3, r4]
10001fe0:	1e6b      	subs	r3, r5, #1
10001fe2:	4698      	mov	r8, r3
10001fe4:	0031      	movs	r1, r6
10001fe6:	4640      	mov	r0, r8
10001fe8:	1e73      	subs	r3, r6, #1
10001fea:	9700      	str	r7, [sp, #0]
10001fec:	469a      	mov	sl, r3
10001fee:	f000 fb71 	bl	100026d4 <drawLine>
10001ff2:	4640      	mov	r0, r8
10001ff4:	1c73      	adds	r3, r6, #1
10001ff6:	002a      	movs	r2, r5
10001ff8:	0031      	movs	r1, r6
10001ffa:	9700      	str	r7, [sp, #0]
10001ffc:	4699      	mov	r9, r3
10001ffe:	f000 fb69 	bl	100026d4 <drawLine>
10002002:	1c6b      	adds	r3, r5, #1
10002004:	4698      	mov	r8, r3
10002006:	002a      	movs	r2, r5
10002008:	4653      	mov	r3, sl
1000200a:	0031      	movs	r1, r6
1000200c:	4640      	mov	r0, r8
1000200e:	9700      	str	r7, [sp, #0]
10002010:	f000 fb60 	bl	100026d4 <drawLine>
10002014:	002a      	movs	r2, r5
10002016:	0031      	movs	r1, r6
10002018:	4640      	mov	r0, r8
1000201a:	464b      	mov	r3, r9
1000201c:	9700      	str	r7, [sp, #0]
1000201e:	f000 fb59 	bl	100026d4 <drawLine>
10002022:	2201      	movs	r2, #1
10002024:	0031      	movs	r1, r6
10002026:	0028      	movs	r0, r5
10002028:	f000 fb36 	bl	10002698 <drawPixel>
1000202c:	3404      	adds	r4, #4
1000202e:	2c28      	cmp	r4, #40	; 0x28
10002030:	d1cc      	bne.n	10001fcc <mainLoop+0x1a0>
10002032:	4b46      	ldr	r3, [pc, #280]	; (1000214c <mainLoop+0x320>)
10002034:	681b      	ldr	r3, [r3, #0]
10002036:	2b00      	cmp	r3, #0
10002038:	dd2f      	ble.n	1000209a <mainLoop+0x26e>
1000203a:	4b45      	ldr	r3, [pc, #276]	; (10002150 <mainLoop+0x324>)
1000203c:	2601      	movs	r6, #1
1000203e:	6818      	ldr	r0, [r3, #0]
10002040:	f004 ffca 	bl	10006fd8 <__wrap___aeabi_f2iz>
10002044:	4b43      	ldr	r3, [pc, #268]	; (10002154 <mainLoop+0x328>)
10002046:	0004      	movs	r4, r0
10002048:	6818      	ldr	r0, [r3, #0]
1000204a:	f004 ffc5 	bl	10006fd8 <__wrap___aeabi_f2iz>
1000204e:	0005      	movs	r5, r0
10002050:	1e67      	subs	r7, r4, #1
10002052:	1e43      	subs	r3, r0, #1
10002054:	0001      	movs	r1, r0
10002056:	0022      	movs	r2, r4
10002058:	0038      	movs	r0, r7
1000205a:	9600      	str	r6, [sp, #0]
1000205c:	4699      	mov	r9, r3
1000205e:	f000 fb39 	bl	100026d4 <drawLine>
10002062:	1c6b      	adds	r3, r5, #1
10002064:	4698      	mov	r8, r3
10002066:	0038      	movs	r0, r7
10002068:	0022      	movs	r2, r4
1000206a:	0029      	movs	r1, r5
1000206c:	1c67      	adds	r7, r4, #1
1000206e:	9600      	str	r6, [sp, #0]
10002070:	f000 fb30 	bl	100026d4 <drawLine>
10002074:	464b      	mov	r3, r9
10002076:	0022      	movs	r2, r4
10002078:	0029      	movs	r1, r5
1000207a:	0038      	movs	r0, r7
1000207c:	9600      	str	r6, [sp, #0]
1000207e:	f000 fb29 	bl	100026d4 <drawLine>
10002082:	0022      	movs	r2, r4
10002084:	0029      	movs	r1, r5
10002086:	0038      	movs	r0, r7
10002088:	4643      	mov	r3, r8
1000208a:	9600      	str	r6, [sp, #0]
1000208c:	f000 fb22 	bl	100026d4 <drawLine>
10002090:	2201      	movs	r2, #1
10002092:	0029      	movs	r1, r5
10002094:	0020      	movs	r0, r4
10002096:	f000 faff 	bl	10002698 <drawPixel>
1000209a:	4b21      	ldr	r3, [pc, #132]	; (10002120 <mainLoop+0x2f4>)
1000209c:	492e      	ldr	r1, [pc, #184]	; (10002158 <mainLoop+0x32c>)
1000209e:	681b      	ldr	r3, [r3, #0]
100020a0:	a80d      	add	r0, sp, #52	; 0x34
100020a2:	9302      	str	r3, [sp, #8]
100020a4:	4b1d      	ldr	r3, [pc, #116]	; (1000211c <mainLoop+0x2f0>)
100020a6:	681b      	ldr	r3, [r3, #0]
100020a8:	9305      	str	r3, [sp, #20]
100020aa:	9a05      	ldr	r2, [sp, #20]
100020ac:	9b02      	ldr	r3, [sp, #8]
100020ae:	f003 fc15 	bl	100058dc <__wrap_sprintf>
100020b2:	4b1c      	ldr	r3, [pc, #112]	; (10002124 <mainLoop+0x2f8>)
100020b4:	681c      	ldr	r4, [r3, #0]
100020b6:	2c00      	cmp	r4, #0
100020b8:	dd0e      	ble.n	100020d8 <mainLoop+0x2ac>
100020ba:	465e      	mov	r6, fp
100020bc:	4d27      	ldr	r5, [pc, #156]	; (1000215c <mainLoop+0x330>)
100020be:	a80d      	add	r0, sp, #52	; 0x34
100020c0:	f005 fab4 	bl	1000762c <strlen>
100020c4:	ab0d      	add	r3, sp, #52	; 0x34
100020c6:	469c      	mov	ip, r3
100020c8:	2202      	movs	r2, #2
100020ca:	0029      	movs	r1, r5
100020cc:	4460      	add	r0, ip
100020ce:	3601      	adds	r6, #1
100020d0:	f005 f83e 	bl	10007150 <__wrap___aeabi_memcpy>
100020d4:	42a6      	cmp	r6, r4
100020d6:	d1f2      	bne.n	100020be <mainLoop+0x292>
100020d8:	2101      	movs	r1, #1
100020da:	2001      	movs	r0, #1
100020dc:	f000 fe48 	bl	10002d70 <setCursor>
100020e0:	a80d      	add	r0, sp, #52	; 0x34
100020e2:	f000 fddb 	bl	10002c9c <print>
100020e6:	f000 fa37 	bl	10002558 <display>
100020ea:	2014      	movs	r0, #20
100020ec:	f001 f944 	bl	10003378 <sleep_ms>
100020f0:	e711      	b.n	10001f16 <mainLoop+0xea>
100020f2:	2c00      	cmp	r4, #0
100020f4:	dc00      	bgt.n	100020f8 <mainLoop+0x2cc>
100020f6:	e73e      	b.n	10001f76 <mainLoop+0x14a>
100020f8:	3c01      	subs	r4, #1
100020fa:	602c      	str	r4, [r5, #0]
100020fc:	e73b      	b.n	10001f76 <mainLoop+0x14a>
100020fe:	f7fe fad3 	bl	100006a8 <drawMothership.part.0>
10002102:	e744      	b.n	10001f8e <mainLoop+0x162>
10002104:	43480000 	.word	0x43480000
10002108:	42c80000 	.word	0x42c80000
1000210c:	200008b0 	.word	0x200008b0
10002110:	10007718 	.word	0x10007718
10002114:	20000998 	.word	0x20000998
10002118:	200030f0 	.word	0x200030f0
1000211c:	200008a8 	.word	0x200008a8
10002120:	200001b8 	.word	0x200001b8
10002124:	200001bc 	.word	0x200001bc
10002128:	200008f8 	.word	0x200008f8
1000212c:	20000894 	.word	0x20000894
10002130:	200008ac 	.word	0x200008ac
10002134:	20000888 	.word	0x20000888
10002138:	200030f4 	.word	0x200030f4
1000213c:	20000cd4 	.word	0x20000cd4
10002140:	fffffccc 	.word	0xfffffccc
10002144:	200008d0 	.word	0x200008d0
10002148:	20000970 	.word	0x20000970
1000214c:	20000804 	.word	0x20000804
10002150:	20000810 	.word	0x20000810
10002154:	20000814 	.word	0x20000814
10002158:	1000771c 	.word	0x1000771c
1000215c:	10007730 	.word	0x10007730
10002160:	4b93      	ldr	r3, [pc, #588]	; (100023b0 <mainLoop+0x584>)
10002162:	681b      	ldr	r3, [r3, #0]
10002164:	9302      	str	r3, [sp, #8]
10002166:	2b00      	cmp	r3, #0
10002168:	d000      	beq.n	1000216c <mainLoop+0x340>
1000216a:	e0dc      	b.n	10002326 <mainLoop+0x4fa>
1000216c:	4b91      	ldr	r3, [pc, #580]	; (100023b4 <mainLoop+0x588>)
1000216e:	681e      	ldr	r6, [r3, #0]
10002170:	685f      	ldr	r7, [r3, #4]
10002172:	4b91      	ldr	r3, [pc, #580]	; (100023b8 <mainLoop+0x58c>)
10002174:	4698      	mov	r8, r3
10002176:	239c      	movs	r3, #156	; 0x9c
10002178:	019b      	lsls	r3, r3, #6
1000217a:	4443      	add	r3, r8
1000217c:	469a      	mov	sl, r3
1000217e:	4643      	mov	r3, r8
10002180:	691b      	ldr	r3, [r3, #16]
10002182:	2b00      	cmp	r3, #0
10002184:	d066      	beq.n	10002254 <mainLoop+0x428>
10002186:	4643      	mov	r3, r8
10002188:	6898      	ldr	r0, [r3, #8]
1000218a:	f004 ff5d 	bl	10007048 <__wrap___aeabi_f2d>
1000218e:	0032      	movs	r2, r6
10002190:	003b      	movs	r3, r7
10002192:	f003 fead 	bl	10005ef0 <__wrap___aeabi_dmul>
10002196:	4643      	mov	r3, r8
10002198:	0004      	movs	r4, r0
1000219a:	6818      	ldr	r0, [r3, #0]
1000219c:	000d      	movs	r5, r1
1000219e:	f004 ff53 	bl	10007048 <__wrap___aeabi_f2d>
100021a2:	0002      	movs	r2, r0
100021a4:	000b      	movs	r3, r1
100021a6:	0020      	movs	r0, r4
100021a8:	0029      	movs	r1, r5
100021aa:	f003 fe8f 	bl	10005ecc <__wrap___aeabi_dadd>
100021ae:	f003 ff63 	bl	10006078 <__wrap___aeabi_d2f>
100021b2:	4643      	mov	r3, r8
100021b4:	4681      	mov	r9, r0
100021b6:	6018      	str	r0, [r3, #0]
100021b8:	68d8      	ldr	r0, [r3, #12]
100021ba:	f004 ff45 	bl	10007048 <__wrap___aeabi_f2d>
100021be:	0032      	movs	r2, r6
100021c0:	003b      	movs	r3, r7
100021c2:	f003 fe95 	bl	10005ef0 <__wrap___aeabi_dmul>
100021c6:	4643      	mov	r3, r8
100021c8:	0004      	movs	r4, r0
100021ca:	6858      	ldr	r0, [r3, #4]
100021cc:	000d      	movs	r5, r1
100021ce:	f004 ff3b 	bl	10007048 <__wrap___aeabi_f2d>
100021d2:	000b      	movs	r3, r1
100021d4:	0002      	movs	r2, r0
100021d6:	0029      	movs	r1, r5
100021d8:	0020      	movs	r0, r4
100021da:	f003 fe77 	bl	10005ecc <__wrap___aeabi_dadd>
100021de:	f003 ff4b 	bl	10006078 <__wrap___aeabi_d2f>
100021e2:	4643      	mov	r3, r8
100021e4:	1c04      	adds	r4, r0, #0
100021e6:	6058      	str	r0, [r3, #4]
100021e8:	2100      	movs	r1, #0
100021ea:	4648      	mov	r0, r9
100021ec:	f004 fec6 	bl	10006f7c <__wrap___aeabi_fcmplt>
100021f0:	2800      	cmp	r0, #0
100021f2:	d007      	beq.n	10002204 <mainLoop+0x3d8>
100021f4:	2186      	movs	r1, #134	; 0x86
100021f6:	4648      	mov	r0, r9
100021f8:	05c9      	lsls	r1, r1, #23
100021fa:	f004 fe83 	bl	10006f04 <__wrap___aeabi_fadd>
100021fe:	4643      	mov	r3, r8
10002200:	4681      	mov	r9, r0
10002202:	6018      	str	r0, [r3, #0]
10002204:	4648      	mov	r0, r9
10002206:	496d      	ldr	r1, [pc, #436]	; (100023bc <mainLoop+0x590>)
10002208:	f004 febe 	bl	10006f88 <__wrap___aeabi_fcmpgt>
1000220c:	2800      	cmp	r0, #0
1000220e:	d006      	beq.n	1000221e <mainLoop+0x3f2>
10002210:	2186      	movs	r1, #134	; 0x86
10002212:	4648      	mov	r0, r9
10002214:	05c9      	lsls	r1, r1, #23
10002216:	f004 fe72 	bl	10006efe <__wrap___aeabi_fsub>
1000221a:	4643      	mov	r3, r8
1000221c:	6018      	str	r0, [r3, #0]
1000221e:	2100      	movs	r1, #0
10002220:	1c20      	adds	r0, r4, #0
10002222:	f004 feab 	bl	10006f7c <__wrap___aeabi_fcmplt>
10002226:	2800      	cmp	r0, #0
10002228:	d007      	beq.n	1000223a <mainLoop+0x40e>
1000222a:	2186      	movs	r1, #134	; 0x86
1000222c:	1c20      	adds	r0, r4, #0
1000222e:	05c9      	lsls	r1, r1, #23
10002230:	f004 fe68 	bl	10006f04 <__wrap___aeabi_fadd>
10002234:	4643      	mov	r3, r8
10002236:	1c04      	adds	r4, r0, #0
10002238:	6058      	str	r0, [r3, #4]
1000223a:	4960      	ldr	r1, [pc, #384]	; (100023bc <mainLoop+0x590>)
1000223c:	1c20      	adds	r0, r4, #0
1000223e:	f004 fea3 	bl	10006f88 <__wrap___aeabi_fcmpgt>
10002242:	2800      	cmp	r0, #0
10002244:	d006      	beq.n	10002254 <mainLoop+0x428>
10002246:	2186      	movs	r1, #134	; 0x86
10002248:	1c20      	adds	r0, r4, #0
1000224a:	05c9      	lsls	r1, r1, #23
1000224c:	f004 fe57 	bl	10006efe <__wrap___aeabi_fsub>
10002250:	4643      	mov	r3, r8
10002252:	6058      	str	r0, [r3, #4]
10002254:	23d0      	movs	r3, #208	; 0xd0
10002256:	009b      	lsls	r3, r3, #2
10002258:	469c      	mov	ip, r3
1000225a:	44e0      	add	r8, ip
1000225c:	45d0      	cmp	r8, sl
1000225e:	d18e      	bne.n	1000217e <mainLoop+0x352>
10002260:	f7ff fa74 	bl	1000174c <movePhoton>
10002264:	4e56      	ldr	r6, [pc, #344]	; (100023c0 <mainLoop+0x594>)
10002266:	6833      	ldr	r3, [r6, #0]
10002268:	2b00      	cmp	r3, #0
1000226a:	d11a      	bne.n	100022a2 <mainLoop+0x476>
1000226c:	4b55      	ldr	r3, [pc, #340]	; (100023c4 <mainLoop+0x598>)
1000226e:	4a55      	ldr	r2, [pc, #340]	; (100023c4 <mainLoop+0x598>)
10002270:	681b      	ldr	r3, [r3, #0]
10002272:	9302      	str	r3, [sp, #8]
10002274:	3b01      	subs	r3, #1
10002276:	6013      	str	r3, [r2, #0]
10002278:	2b00      	cmp	r3, #0
1000227a:	dd00      	ble.n	1000227e <mainLoop+0x452>
1000227c:	e65d      	b.n	10001f3a <mainLoop+0x10e>
1000227e:	221e      	movs	r2, #30
10002280:	4b51      	ldr	r3, [pc, #324]	; (100023c8 <mainLoop+0x59c>)
10002282:	4252      	negs	r2, r2
10002284:	601a      	str	r2, [r3, #0]
10002286:	2301      	movs	r3, #1
10002288:	6033      	str	r3, [r6, #0]
1000228a:	e656      	b.n	10001f3a <mainLoop+0x10e>
1000228c:	4b4f      	ldr	r3, [pc, #316]	; (100023cc <mainLoop+0x5a0>)
1000228e:	681b      	ldr	r3, [r3, #0]
10002290:	9302      	str	r3, [sp, #8]
10002292:	2b00      	cmp	r3, #0
10002294:	d05f      	beq.n	10002356 <mainLoop+0x52a>
10002296:	2301      	movs	r3, #1
10002298:	4a45      	ldr	r2, [pc, #276]	; (100023b0 <mainLoop+0x584>)
1000229a:	6013      	str	r3, [r2, #0]
1000229c:	3363      	adds	r3, #99	; 0x63
1000229e:	602b      	str	r3, [r5, #0]
100022a0:	e681      	b.n	10001fa6 <mainLoop+0x17a>
100022a2:	4c49      	ldr	r4, [pc, #292]	; (100023c8 <mainLoop+0x59c>)
100022a4:	6823      	ldr	r3, [r4, #0]
100022a6:	2b7f      	cmp	r3, #127	; 0x7f
100022a8:	dc5c      	bgt.n	10002364 <mainLoop+0x538>
100022aa:	3301      	adds	r3, #1
100022ac:	6023      	str	r3, [r4, #0]
100022ae:	4d48      	ldr	r5, [pc, #288]	; (100023d0 <mainLoop+0x5a4>)
100022b0:	682b      	ldr	r3, [r5, #0]
100022b2:	2b00      	cmp	r3, #0
100022b4:	d000      	beq.n	100022b8 <mainLoop+0x48c>
100022b6:	e640      	b.n	10001f3a <mainLoop+0x10e>
100022b8:	6823      	ldr	r3, [r4, #0]
100022ba:	2b00      	cmp	r3, #0
100022bc:	dc00      	bgt.n	100022c0 <mainLoop+0x494>
100022be:	e63c      	b.n	10001f3a <mainLoop+0x10e>
100022c0:	f005 f99a 	bl	100075f8 <rand>
100022c4:	f004 fe66 	bl	10006f94 <__wrap___aeabi_i2f>
100022c8:	4942      	ldr	r1, [pc, #264]	; (100023d4 <mainLoop+0x5a8>)
100022ca:	f004 fe21 	bl	10006f10 <__wrap___aeabi_fmul>
100022ce:	21c0      	movs	r1, #192	; 0xc0
100022d0:	0589      	lsls	r1, r1, #22
100022d2:	f004 fe1d 	bl	10006f10 <__wrap___aeabi_fmul>
100022d6:	4940      	ldr	r1, [pc, #256]	; (100023d8 <mainLoop+0x5ac>)
100022d8:	f004 fe56 	bl	10006f88 <__wrap___aeabi_fcmpgt>
100022dc:	2800      	cmp	r0, #0
100022de:	d100      	bne.n	100022e2 <mainLoop+0x4b6>
100022e0:	e62b      	b.n	10001f3a <mainLoop+0x10e>
100022e2:	237d      	movs	r3, #125	; 0x7d
100022e4:	6820      	ldr	r0, [r4, #0]
100022e6:	602b      	str	r3, [r5, #0]
100022e8:	300f      	adds	r0, #15
100022ea:	f004 fe53 	bl	10006f94 <__wrap___aeabi_i2f>
100022ee:	4b3b      	ldr	r3, [pc, #236]	; (100023dc <mainLoop+0x5b0>)
100022f0:	1c04      	adds	r4, r0, #0
100022f2:	6018      	str	r0, [r3, #0]
100022f4:	4b3a      	ldr	r3, [pc, #232]	; (100023e0 <mainLoop+0x5b4>)
100022f6:	6818      	ldr	r0, [r3, #0]
100022f8:	300c      	adds	r0, #12
100022fa:	f004 fe4b 	bl	10006f94 <__wrap___aeabi_i2f>
100022fe:	4b39      	ldr	r3, [pc, #228]	; (100023e4 <mainLoop+0x5b8>)
10002300:	6018      	str	r0, [r3, #0]
10002302:	9804      	ldr	r0, [sp, #16]
10002304:	f004 fe46 	bl	10006f94 <__wrap___aeabi_i2f>
10002308:	1c01      	adds	r1, r0, #0
1000230a:	1c20      	adds	r0, r4, #0
1000230c:	f004 fe3c 	bl	10006f88 <__wrap___aeabi_fcmpgt>
10002310:	2800      	cmp	r0, #0
10002312:	d14b      	bne.n	100023ac <mainLoop+0x580>
10002314:	23fe      	movs	r3, #254	; 0xfe
10002316:	059b      	lsls	r3, r3, #22
10002318:	4a33      	ldr	r2, [pc, #204]	; (100023e8 <mainLoop+0x5bc>)
1000231a:	6013      	str	r3, [r2, #0]
1000231c:	22fe      	movs	r2, #254	; 0xfe
1000231e:	4b33      	ldr	r3, [pc, #204]	; (100023ec <mainLoop+0x5c0>)
10002320:	0592      	lsls	r2, r2, #22
10002322:	601a      	str	r2, [r3, #0]
10002324:	e609      	b.n	10001f3a <mainLoop+0x10e>
10002326:	9a09      	ldr	r2, [sp, #36]	; 0x24
10002328:	9b03      	ldr	r3, [sp, #12]
1000232a:	4694      	mov	ip, r2
1000232c:	4463      	add	r3, ip
1000232e:	9303      	str	r3, [sp, #12]
10002330:	9a08      	ldr	r2, [sp, #32]
10002332:	9b04      	ldr	r3, [sp, #16]
10002334:	189b      	adds	r3, r3, r2
10002336:	9304      	str	r3, [sp, #16]
10002338:	d42f      	bmi.n	1000239a <mainLoop+0x56e>
1000233a:	9b04      	ldr	r3, [sp, #16]
1000233c:	2b7f      	cmp	r3, #127	; 0x7f
1000233e:	dd01      	ble.n	10002344 <mainLoop+0x518>
10002340:	3b80      	subs	r3, #128	; 0x80
10002342:	9304      	str	r3, [sp, #16]
10002344:	9b03      	ldr	r3, [sp, #12]
10002346:	2b00      	cmp	r3, #0
10002348:	db2d      	blt.n	100023a6 <mainLoop+0x57a>
1000234a:	2b7f      	cmp	r3, #127	; 0x7f
1000234c:	dc00      	bgt.n	10002350 <mainLoop+0x524>
1000234e:	e70d      	b.n	1000216c <mainLoop+0x340>
10002350:	3b80      	subs	r3, #128	; 0x80
10002352:	9303      	str	r3, [sp, #12]
10002354:	e70a      	b.n	1000216c <mainLoop+0x340>
10002356:	b01b      	add	sp, #108	; 0x6c
10002358:	bc3c      	pop	{r2, r3, r4, r5}
1000235a:	4690      	mov	r8, r2
1000235c:	4699      	mov	r9, r3
1000235e:	46a2      	mov	sl, r4
10002360:	46ab      	mov	fp, r5
10002362:	bdf0      	pop	{r4, r5, r6, r7, pc}
10002364:	2300      	movs	r3, #0
10002366:	6033      	str	r3, [r6, #0]
10002368:	3b1e      	subs	r3, #30
1000236a:	6023      	str	r3, [r4, #0]
1000236c:	f005 f944 	bl	100075f8 <rand>
10002370:	f004 fe10 	bl	10006f94 <__wrap___aeabi_i2f>
10002374:	491e      	ldr	r1, [pc, #120]	; (100023f0 <mainLoop+0x5c4>)
10002376:	f004 fdcb 	bl	10006f10 <__wrap___aeabi_fmul>
1000237a:	21c0      	movs	r1, #192	; 0xc0
1000237c:	0589      	lsls	r1, r1, #22
1000237e:	f004 fdc7 	bl	10006f10 <__wrap___aeabi_fmul>
10002382:	4914      	ldr	r1, [pc, #80]	; (100023d4 <mainLoop+0x5a8>)
10002384:	f004 fdbe 	bl	10006f04 <__wrap___aeabi_fadd>
10002388:	f004 fe26 	bl	10006fd8 <__wrap___aeabi_f2iz>
1000238c:	4b0d      	ldr	r3, [pc, #52]	; (100023c4 <mainLoop+0x598>)
1000238e:	6018      	str	r0, [r3, #0]
10002390:	6833      	ldr	r3, [r6, #0]
10002392:	2b00      	cmp	r3, #0
10002394:	d000      	beq.n	10002398 <mainLoop+0x56c>
10002396:	e78a      	b.n	100022ae <mainLoop+0x482>
10002398:	e768      	b.n	1000226c <mainLoop+0x440>
1000239a:	9b04      	ldr	r3, [sp, #16]
1000239c:	3380      	adds	r3, #128	; 0x80
1000239e:	9304      	str	r3, [sp, #16]
100023a0:	9b03      	ldr	r3, [sp, #12]
100023a2:	2b00      	cmp	r3, #0
100023a4:	dad1      	bge.n	1000234a <mainLoop+0x51e>
100023a6:	3380      	adds	r3, #128	; 0x80
100023a8:	9303      	str	r3, [sp, #12]
100023aa:	e6df      	b.n	1000216c <mainLoop+0x340>
100023ac:	4b11      	ldr	r3, [pc, #68]	; (100023f4 <mainLoop+0x5c8>)
100023ae:	e7b3      	b.n	10002318 <mainLoop+0x4ec>
100023b0:	20000998 	.word	0x20000998
100023b4:	20000180 	.word	0x20000180
100023b8:	20000cc4 	.word	0x20000cc4
100023bc:	42fe0000 	.word	0x42fe0000
100023c0:	200008ac 	.word	0x200008ac
100023c4:	200008b0 	.word	0x200008b0
100023c8:	200001c0 	.word	0x200001c0
100023cc:	200001bc 	.word	0x200001bc
100023d0:	20000804 	.word	0x20000804
100023d4:	42c80000 	.word	0x42c80000
100023d8:	42be0000 	.word	0x42be0000
100023dc:	20000810 	.word	0x20000810
100023e0:	200001c4 	.word	0x200001c4
100023e4:	20000814 	.word	0x20000814
100023e8:	20000808 	.word	0x20000808
100023ec:	2000080c 	.word	0x2000080c
100023f0:	43480000 	.word	0x43480000
100023f4:	bf800000 	.word	0xbf800000

100023f8 <main>:
100023f8:	b5f0      	push	{r4, r5, r6, r7, lr}
100023fa:	46d6      	mov	lr, sl
100023fc:	464f      	mov	r7, r9
100023fe:	4646      	mov	r6, r8
10002400:	b5c0      	push	{r6, r7, lr}
10002402:	2064      	movs	r0, #100	; 0x64
10002404:	b08e      	sub	sp, #56	; 0x38
10002406:	f000 ffb7 	bl	10003378 <sleep_ms>
1000240a:	4c4a      	ldr	r4, [pc, #296]	; (10002534 <main+0x13c>)
1000240c:	494a      	ldr	r1, [pc, #296]	; (10002538 <main+0x140>)
1000240e:	0020      	movs	r0, r4
10002410:	f005 f84e 	bl	100074b0 <i2c_init>
10002414:	2103      	movs	r1, #3
10002416:	2008      	movs	r0, #8
10002418:	f000 fcc8 	bl	10002dac <gpio_set_function>
1000241c:	2103      	movs	r1, #3
1000241e:	2009      	movs	r0, #9
10002420:	f000 fcc4 	bl	10002dac <gpio_set_function>
10002424:	2200      	movs	r2, #0
10002426:	2101      	movs	r1, #1
10002428:	2008      	movs	r0, #8
1000242a:	f000 fcd7 	bl	10002ddc <gpio_set_pulls>
1000242e:	2200      	movs	r2, #0
10002430:	2101      	movs	r1, #1
10002432:	2009      	movs	r0, #9
10002434:	f000 fcd2 	bl	10002ddc <gpio_set_pulls>
10002438:	0020      	movs	r0, r4
1000243a:	f000 f9ef 	bl	1000281c <initScreen>
1000243e:	4c3f      	ldr	r4, [pc, #252]	; (1000253c <main+0x144>)
10002440:	25d0      	movs	r5, #208	; 0xd0
10002442:	0027      	movs	r7, r4
10002444:	2601      	movs	r6, #1
10002446:	3710      	adds	r7, #16
10002448:	062d      	lsls	r5, r5, #24
1000244a:	6820      	ldr	r0, [r4, #0]
1000244c:	f000 fcde 	bl	10002e0c <gpio_init>
10002450:	0033      	movs	r3, r6
10002452:	cc01      	ldmia	r4!, {r0}
10002454:	2201      	movs	r2, #1
10002456:	4083      	lsls	r3, r0
10002458:	2100      	movs	r1, #0
1000245a:	62ab      	str	r3, [r5, #40]	; 0x28
1000245c:	f000 fcbe 	bl	10002ddc <gpio_set_pulls>
10002460:	42bc      	cmp	r4, r7
10002462:	d1f2      	bne.n	1000244a <main+0x52>
10002464:	2002      	movs	r0, #2
10002466:	f000 fc8d 	bl	10002d84 <setTextSize>
1000246a:	2001      	movs	r0, #1
1000246c:	f000 fc94 	bl	10002d98 <setTextColor>
10002470:	2128      	movs	r1, #40	; 0x28
10002472:	200a      	movs	r0, #10
10002474:	f000 fc7c 	bl	10002d70 <setCursor>
10002478:	4831      	ldr	r0, [pc, #196]	; (10002540 <main+0x148>)
1000247a:	f000 fc0f 	bl	10002c9c <print>
1000247e:	2001      	movs	r0, #1
10002480:	f000 fc80 	bl	10002d84 <setTextSize>
10002484:	213c      	movs	r1, #60	; 0x3c
10002486:	2008      	movs	r0, #8
10002488:	f000 fc72 	bl	10002d70 <setCursor>
1000248c:	4e2d      	ldr	r6, [pc, #180]	; (10002544 <main+0x14c>)
1000248e:	0030      	movs	r0, r6
10002490:	f000 fc04 	bl	10002c9c <print>
10002494:	f000 f860 	bl	10002558 <display>
10002498:	686b      	ldr	r3, [r5, #4]
1000249a:	011b      	lsls	r3, r3, #4
1000249c:	d409      	bmi.n	100024b2 <main+0xba>
1000249e:	25d0      	movs	r5, #208	; 0xd0
100024a0:	2401      	movs	r4, #1
100024a2:	062d      	lsls	r5, r5, #24
100024a4:	2064      	movs	r0, #100	; 0x64
100024a6:	f000 ff67 	bl	10003378 <sleep_ms>
100024aa:	686b      	ldr	r3, [r5, #4]
100024ac:	0edb      	lsrs	r3, r3, #27
100024ae:	421c      	tst	r4, r3
100024b0:	d0f8      	beq.n	100024a4 <main+0xac>
100024b2:	4b25      	ldr	r3, [pc, #148]	; (10002548 <main+0x150>)
100024b4:	25d0      	movs	r5, #208	; 0xd0
100024b6:	469a      	mov	sl, r3
100024b8:	4b24      	ldr	r3, [pc, #144]	; (1000254c <main+0x154>)
100024ba:	2401      	movs	r4, #1
100024bc:	4699      	mov	r9, r3
100024be:	4b24      	ldr	r3, [pc, #144]	; (10002550 <main+0x158>)
100024c0:	4f24      	ldr	r7, [pc, #144]	; (10002554 <main+0x15c>)
100024c2:	4698      	mov	r8, r3
100024c4:	062d      	lsls	r5, r5, #24
100024c6:	f7ff fcb1 	bl	10001e2c <mainLoop>
100024ca:	f000 f8a5 	bl	10002618 <clearDisplay>
100024ce:	4653      	mov	r3, sl
100024d0:	464a      	mov	r2, r9
100024d2:	681b      	ldr	r3, [r3, #0]
100024d4:	6812      	ldr	r2, [r2, #0]
100024d6:	4641      	mov	r1, r8
100024d8:	a801      	add	r0, sp, #4
100024da:	f003 f9ff 	bl	100058dc <__wrap_sprintf>
100024de:	2114      	movs	r1, #20
100024e0:	2008      	movs	r0, #8
100024e2:	f000 fc45 	bl	10002d70 <setCursor>
100024e6:	a801      	add	r0, sp, #4
100024e8:	f000 fbd8 	bl	10002c9c <print>
100024ec:	2128      	movs	r1, #40	; 0x28
100024ee:	200a      	movs	r0, #10
100024f0:	f000 fc3e 	bl	10002d70 <setCursor>
100024f4:	0038      	movs	r0, r7
100024f6:	f000 fbd1 	bl	10002c9c <print>
100024fa:	213c      	movs	r1, #60	; 0x3c
100024fc:	2008      	movs	r0, #8
100024fe:	f000 fc37 	bl	10002d70 <setCursor>
10002502:	0030      	movs	r0, r6
10002504:	f000 fbca 	bl	10002c9c <print>
10002508:	f000 f826 	bl	10002558 <display>
1000250c:	686b      	ldr	r3, [r5, #4]
1000250e:	0edb      	lsrs	r3, r3, #27
10002510:	421c      	tst	r4, r3
10002512:	d1d8      	bne.n	100024c6 <main+0xce>
10002514:	2064      	movs	r0, #100	; 0x64
10002516:	f000 ff2f 	bl	10003378 <sleep_ms>
1000251a:	686b      	ldr	r3, [r5, #4]
1000251c:	0edb      	lsrs	r3, r3, #27
1000251e:	421c      	tst	r4, r3
10002520:	d1d1      	bne.n	100024c6 <main+0xce>
10002522:	2064      	movs	r0, #100	; 0x64
10002524:	f000 ff28 	bl	10003378 <sleep_ms>
10002528:	686b      	ldr	r3, [r5, #4]
1000252a:	0edb      	lsrs	r3, r3, #27
1000252c:	421c      	tst	r4, r3
1000252e:	d1ca      	bne.n	100024c6 <main+0xce>
10002530:	e7f0      	b.n	10002514 <main+0x11c>
10002532:	46c0      	nop			; (mov r8, r8)
10002534:	20000280 	.word	0x20000280
10002538:	00186a00 	.word	0x00186a00
1000253c:	20000190 	.word	0x20000190
10002540:	10007734 	.word	0x10007734
10002544:	10007740 	.word	0x10007740
10002548:	200001b8 	.word	0x200001b8
1000254c:	200008a8 	.word	0x200008a8
10002550:	10007754 	.word	0x10007754
10002554:	1000776c 	.word	0x1000776c

10002558 <display>:
10002558:	b5f0      	push	{r4, r5, r6, r7, lr}
1000255a:	46d6      	mov	lr, sl
1000255c:	464f      	mov	r7, r9
1000255e:	4646      	mov	r6, r8
10002560:	2500      	movs	r5, #0
10002562:	b5c0      	push	{r6, r7, lr}
10002564:	4e2a      	ldr	r6, [pc, #168]	; (10002610 <display+0xb8>)
10002566:	b084      	sub	sp, #16
10002568:	ac03      	add	r4, sp, #12
1000256a:	2302      	movs	r3, #2
1000256c:	0022      	movs	r2, r4
1000256e:	213c      	movs	r1, #60	; 0x3c
10002570:	8025      	strh	r5, [r4, #0]
10002572:	0030      	movs	r0, r6
10002574:	9500      	str	r5, [sp, #0]
10002576:	f004 ffef 	bl	10007558 <i2c_write_blocking>
1000257a:	2380      	movs	r3, #128	; 0x80
1000257c:	015b      	lsls	r3, r3, #5
1000257e:	8023      	strh	r3, [r4, #0]
10002580:	0022      	movs	r2, r4
10002582:	213c      	movs	r1, #60	; 0x3c
10002584:	4699      	mov	r9, r3
10002586:	0030      	movs	r0, r6
10002588:	2302      	movs	r3, #2
1000258a:	9500      	str	r5, [sp, #0]
1000258c:	f004 ffe4 	bl	10007558 <i2c_write_blocking>
10002590:	2380      	movs	r3, #128	; 0x80
10002592:	01db      	lsls	r3, r3, #7
10002594:	8023      	strh	r3, [r4, #0]
10002596:	0022      	movs	r2, r4
10002598:	2302      	movs	r3, #2
1000259a:	213c      	movs	r1, #60	; 0x3c
1000259c:	0030      	movs	r0, r6
1000259e:	9500      	str	r5, [sp, #0]
100025a0:	f004 ffda 	bl	10007558 <i2c_write_blocking>
100025a4:	4b1b      	ldr	r3, [pc, #108]	; (10002614 <display+0xbc>)
100025a6:	2700      	movs	r7, #0
100025a8:	4698      	mov	r8, r3
100025aa:	2350      	movs	r3, #80	; 0x50
100025ac:	425b      	negs	r3, r3
100025ae:	469a      	mov	sl, r3
100025b0:	4653      	mov	r3, sl
100025b2:	433b      	orrs	r3, r7
100025b4:	7063      	strb	r3, [r4, #1]
100025b6:	0022      	movs	r2, r4
100025b8:	2302      	movs	r3, #2
100025ba:	213c      	movs	r1, #60	; 0x3c
100025bc:	7025      	strb	r5, [r4, #0]
100025be:	0030      	movs	r0, r6
100025c0:	9500      	str	r5, [sp, #0]
100025c2:	f004 ffc9 	bl	10007558 <i2c_write_blocking>
100025c6:	2302      	movs	r3, #2
100025c8:	0022      	movs	r2, r4
100025ca:	213c      	movs	r1, #60	; 0x3c
100025cc:	8025      	strh	r5, [r4, #0]
100025ce:	0030      	movs	r0, r6
100025d0:	9500      	str	r5, [sp, #0]
100025d2:	f004 ffc1 	bl	10007558 <i2c_write_blocking>
100025d6:	464b      	mov	r3, r9
100025d8:	0022      	movs	r2, r4
100025da:	8023      	strh	r3, [r4, #0]
100025dc:	213c      	movs	r1, #60	; 0x3c
100025de:	2302      	movs	r3, #2
100025e0:	0030      	movs	r0, r6
100025e2:	9500      	str	r5, [sp, #0]
100025e4:	f004 ffb8 	bl	10007558 <i2c_write_blocking>
100025e8:	2381      	movs	r3, #129	; 0x81
100025ea:	4642      	mov	r2, r8
100025ec:	213c      	movs	r1, #60	; 0x3c
100025ee:	0030      	movs	r0, r6
100025f0:	9500      	str	r5, [sp, #0]
100025f2:	f004 ffb1 	bl	10007558 <i2c_write_blocking>
100025f6:	2381      	movs	r3, #129	; 0x81
100025f8:	469c      	mov	ip, r3
100025fa:	3701      	adds	r7, #1
100025fc:	44e0      	add	r8, ip
100025fe:	2f10      	cmp	r7, #16
10002600:	d1d6      	bne.n	100025b0 <display+0x58>
10002602:	b004      	add	sp, #16
10002604:	bc1c      	pop	{r2, r3, r4}
10002606:	4690      	mov	r8, r2
10002608:	4699      	mov	r9, r3
1000260a:	46a2      	mov	sl, r4
1000260c:	bdf0      	pop	{r4, r5, r6, r7, pc}
1000260e:	46c0      	nop			; (mov r8, r8)
10002610:	20000280 	.word	0x20000280
10002614:	200030fc 	.word	0x200030fc

10002618 <clearDisplay>:
10002618:	2281      	movs	r2, #129	; 0x81
1000261a:	b510      	push	{r4, lr}
1000261c:	4c13      	ldr	r4, [pc, #76]	; (1000266c <clearDisplay+0x54>)
1000261e:	2100      	movs	r1, #0
10002620:	0020      	movs	r0, r4
10002622:	0112      	lsls	r2, r2, #4
10002624:	f004 fd8e 	bl	10007144 <__wrap_memset>
10002628:	2340      	movs	r3, #64	; 0x40
1000262a:	2281      	movs	r2, #129	; 0x81
1000262c:	54a3      	strb	r3, [r4, r2]
1000262e:	3281      	adds	r2, #129	; 0x81
10002630:	54a3      	strb	r3, [r4, r2]
10002632:	2284      	movs	r2, #132	; 0x84
10002634:	32ff      	adds	r2, #255	; 0xff
10002636:	54a3      	strb	r3, [r4, r2]
10002638:	3281      	adds	r2, #129	; 0x81
1000263a:	54a3      	strb	r3, [r4, r2]
1000263c:	4a0c      	ldr	r2, [pc, #48]	; (10002670 <clearDisplay+0x58>)
1000263e:	54a3      	strb	r3, [r4, r2]
10002640:	4a0c      	ldr	r2, [pc, #48]	; (10002674 <clearDisplay+0x5c>)
10002642:	7023      	strb	r3, [r4, #0]
10002644:	54a3      	strb	r3, [r4, r2]
10002646:	4a0c      	ldr	r2, [pc, #48]	; (10002678 <clearDisplay+0x60>)
10002648:	54a3      	strb	r3, [r4, r2]
1000264a:	3281      	adds	r2, #129	; 0x81
1000264c:	54a3      	strb	r3, [r4, r2]
1000264e:	4a0b      	ldr	r2, [pc, #44]	; (1000267c <clearDisplay+0x64>)
10002650:	54a3      	strb	r3, [r4, r2]
10002652:	4a0b      	ldr	r2, [pc, #44]	; (10002680 <clearDisplay+0x68>)
10002654:	54a3      	strb	r3, [r4, r2]
10002656:	4a0b      	ldr	r2, [pc, #44]	; (10002684 <clearDisplay+0x6c>)
10002658:	54a3      	strb	r3, [r4, r2]
1000265a:	4a0b      	ldr	r2, [pc, #44]	; (10002688 <clearDisplay+0x70>)
1000265c:	54a3      	strb	r3, [r4, r2]
1000265e:	4a0b      	ldr	r2, [pc, #44]	; (1000268c <clearDisplay+0x74>)
10002660:	54a3      	strb	r3, [r4, r2]
10002662:	4a0b      	ldr	r2, [pc, #44]	; (10002690 <clearDisplay+0x78>)
10002664:	54a3      	strb	r3, [r4, r2]
10002666:	4a0b      	ldr	r2, [pc, #44]	; (10002694 <clearDisplay+0x7c>)
10002668:	54a3      	strb	r3, [r4, r2]
1000266a:	bd10      	pop	{r4, pc}
1000266c:	200030fc 	.word	0x200030fc
10002670:	00000285 	.word	0x00000285
10002674:	00000306 	.word	0x00000306
10002678:	00000387 	.word	0x00000387
1000267c:	00000489 	.word	0x00000489
10002680:	0000050a 	.word	0x0000050a
10002684:	0000058b 	.word	0x0000058b
10002688:	0000060c 	.word	0x0000060c
1000268c:	0000068d 	.word	0x0000068d
10002690:	0000070e 	.word	0x0000070e
10002694:	0000078f 	.word	0x0000078f

10002698 <drawPixel>:
10002698:	b510      	push	{r4, lr}
1000269a:	287f      	cmp	r0, #127	; 0x7f
1000269c:	d811      	bhi.n	100026c2 <drawPixel+0x2a>
1000269e:	297f      	cmp	r1, #127	; 0x7f
100026a0:	d80f      	bhi.n	100026c2 <drawPixel+0x2a>
100026a2:	10cc      	asrs	r4, r1, #3
100026a4:	01e3      	lsls	r3, r4, #7
100026a6:	191b      	adds	r3, r3, r4
100026a8:	1818      	adds	r0, r3, r0
100026aa:	4b09      	ldr	r3, [pc, #36]	; (100026d0 <drawPixel+0x38>)
100026ac:	3001      	adds	r0, #1
100026ae:	18c0      	adds	r0, r0, r3
100026b0:	2307      	movs	r3, #7
100026b2:	4019      	ands	r1, r3
100026b4:	2a01      	cmp	r2, #1
100026b6:	d005      	beq.n	100026c4 <drawPixel+0x2c>
100026b8:	2201      	movs	r2, #1
100026ba:	408a      	lsls	r2, r1
100026bc:	7803      	ldrb	r3, [r0, #0]
100026be:	4393      	bics	r3, r2
100026c0:	7003      	strb	r3, [r0, #0]
100026c2:	bd10      	pop	{r4, pc}
100026c4:	408a      	lsls	r2, r1
100026c6:	7803      	ldrb	r3, [r0, #0]
100026c8:	431a      	orrs	r2, r3
100026ca:	7002      	strb	r2, [r0, #0]
100026cc:	e7f9      	b.n	100026c2 <drawPixel+0x2a>
100026ce:	46c0      	nop			; (mov r8, r8)
100026d0:	200030fc 	.word	0x200030fc

100026d4 <drawLine>:
100026d4:	b5f0      	push	{r4, r5, r6, r7, lr}
100026d6:	464e      	mov	r6, r9
100026d8:	4645      	mov	r5, r8
100026da:	46de      	mov	lr, fp
100026dc:	4657      	mov	r7, sl
100026de:	b5e0      	push	{r5, r6, r7, lr}
100026e0:	1a5d      	subs	r5, r3, r1
100026e2:	17ec      	asrs	r4, r5, #31
100026e4:	192d      	adds	r5, r5, r4
100026e6:	1a16      	subs	r6, r2, r0
100026e8:	4065      	eors	r5, r4
100026ea:	17f4      	asrs	r4, r6, #31
100026ec:	1936      	adds	r6, r6, r4
100026ee:	b083      	sub	sp, #12
100026f0:	4066      	eors	r6, r4
100026f2:	42b5      	cmp	r5, r6
100026f4:	dd05      	ble.n	10002702 <drawLine+0x2e>
100026f6:	b204      	sxth	r4, r0
100026f8:	b210      	sxth	r0, r2
100026fa:	001a      	movs	r2, r3
100026fc:	0003      	movs	r3, r0
100026fe:	0008      	movs	r0, r1
10002700:	0021      	movs	r1, r4
10002702:	4290      	cmp	r0, r2
10002704:	dd5f      	ble.n	100027c6 <drawLine+0xf2>
10002706:	b207      	sxth	r7, r0
10002708:	1a80      	subs	r0, r0, r2
1000270a:	b209      	sxth	r1, r1
1000270c:	b284      	uxth	r4, r0
1000270e:	46a0      	mov	r8, r4
10002710:	1acc      	subs	r4, r1, r3
10002712:	468a      	mov	sl, r1
10002714:	17e1      	asrs	r1, r4, #31
10002716:	1864      	adds	r4, r4, r1
10002718:	b200      	sxth	r0, r0
1000271a:	404c      	eors	r4, r1
1000271c:	46a1      	mov	r9, r4
1000271e:	0fc4      	lsrs	r4, r0, #31
10002720:	1824      	adds	r4, r4, r0
10002722:	2001      	movs	r0, #1
10002724:	1064      	asrs	r4, r4, #1
10002726:	4684      	mov	ip, r0
10002728:	4553      	cmp	r3, sl
1000272a:	db02      	blt.n	10002732 <drawLine+0x5e>
1000272c:	2101      	movs	r1, #1
1000272e:	4249      	negs	r1, r1
10002730:	468c      	mov	ip, r1
10002732:	42ba      	cmp	r2, r7
10002734:	dc40      	bgt.n	100027b8 <drawLine+0xe4>
10002736:	4649      	mov	r1, r9
10002738:	b288      	uxth	r0, r1
1000273a:	2107      	movs	r1, #7
1000273c:	4689      	mov	r9, r1
1000273e:	4641      	mov	r1, r8
10002740:	9500      	str	r5, [sp, #0]
10002742:	4680      	mov	r8, r0
10002744:	9101      	str	r1, [sp, #4]
10002746:	e022      	b.n	1000278e <drawLine+0xba>
10002748:	2b7f      	cmp	r3, #127	; 0x7f
1000274a:	d813      	bhi.n	10002774 <drawLine+0xa0>
1000274c:	2a7f      	cmp	r2, #127	; 0x7f
1000274e:	d811      	bhi.n	10002774 <drawLine+0xa0>
10002750:	10d0      	asrs	r0, r2, #3
10002752:	01c1      	lsls	r1, r0, #7
10002754:	1809      	adds	r1, r1, r0
10002756:	4830      	ldr	r0, [pc, #192]	; (10002818 <drawLine+0x144>)
10002758:	18c9      	adds	r1, r1, r3
1000275a:	4682      	mov	sl, r0
1000275c:	980c      	ldr	r0, [sp, #48]	; 0x30
1000275e:	3101      	adds	r1, #1
10002760:	4451      	add	r1, sl
10002762:	2801      	cmp	r0, #1
10002764:	d053      	beq.n	1000280e <drawLine+0x13a>
10002766:	4648      	mov	r0, r9
10002768:	4010      	ands	r0, r2
1000276a:	2501      	movs	r5, #1
1000276c:	4085      	lsls	r5, r0
1000276e:	7808      	ldrb	r0, [r1, #0]
10002770:	43a8      	bics	r0, r5
10002772:	7008      	strb	r0, [r1, #0]
10002774:	4641      	mov	r1, r8
10002776:	1a61      	subs	r1, r4, r1
10002778:	b288      	uxth	r0, r1
1000277a:	b20c      	sxth	r4, r1
1000277c:	0409      	lsls	r1, r1, #16
1000277e:	d503      	bpl.n	10002788 <drawLine+0xb4>
10002780:	9901      	ldr	r1, [sp, #4]
10002782:	4463      	add	r3, ip
10002784:	1844      	adds	r4, r0, r1
10002786:	b224      	sxth	r4, r4
10002788:	3201      	adds	r2, #1
1000278a:	42ba      	cmp	r2, r7
1000278c:	dc14      	bgt.n	100027b8 <drawLine+0xe4>
1000278e:	9900      	ldr	r1, [sp, #0]
10002790:	42b1      	cmp	r1, r6
10002792:	dcd9      	bgt.n	10002748 <drawLine+0x74>
10002794:	2a7f      	cmp	r2, #127	; 0x7f
10002796:	d8ed      	bhi.n	10002774 <drawLine+0xa0>
10002798:	2b7f      	cmp	r3, #127	; 0x7f
1000279a:	d8eb      	bhi.n	10002774 <drawLine+0xa0>
1000279c:	10d8      	asrs	r0, r3, #3
1000279e:	01c1      	lsls	r1, r0, #7
100027a0:	1809      	adds	r1, r1, r0
100027a2:	481d      	ldr	r0, [pc, #116]	; (10002818 <drawLine+0x144>)
100027a4:	1889      	adds	r1, r1, r2
100027a6:	4682      	mov	sl, r0
100027a8:	980c      	ldr	r0, [sp, #48]	; 0x30
100027aa:	3101      	adds	r1, #1
100027ac:	4451      	add	r1, sl
100027ae:	2801      	cmp	r0, #1
100027b0:	d025      	beq.n	100027fe <drawLine+0x12a>
100027b2:	4648      	mov	r0, r9
100027b4:	4018      	ands	r0, r3
100027b6:	e7d8      	b.n	1000276a <drawLine+0x96>
100027b8:	b003      	add	sp, #12
100027ba:	bc3c      	pop	{r2, r3, r4, r5}
100027bc:	4690      	mov	r8, r2
100027be:	4699      	mov	r9, r3
100027c0:	46a2      	mov	sl, r4
100027c2:	46ab      	mov	fp, r5
100027c4:	bdf0      	pop	{r4, r5, r6, r7, pc}
100027c6:	1a14      	subs	r4, r2, r0
100027c8:	46a4      	mov	ip, r4
100027ca:	b2a7      	uxth	r7, r4
100027cc:	46b8      	mov	r8, r7
100027ce:	1a5f      	subs	r7, r3, r1
100027d0:	17fc      	asrs	r4, r7, #31
100027d2:	193f      	adds	r7, r7, r4
100027d4:	4067      	eors	r7, r4
100027d6:	4664      	mov	r4, ip
100027d8:	b224      	sxth	r4, r4
100027da:	46b9      	mov	r9, r7
100027dc:	0fe7      	lsrs	r7, r4, #31
100027de:	193c      	adds	r4, r7, r4
100027e0:	1064      	asrs	r4, r4, #1
100027e2:	0017      	movs	r7, r2
100027e4:	4299      	cmp	r1, r3
100027e6:	da04      	bge.n	100027f2 <drawLine+0x11e>
100027e8:	000b      	movs	r3, r1
100027ea:	2101      	movs	r1, #1
100027ec:	0002      	movs	r2, r0
100027ee:	468c      	mov	ip, r1
100027f0:	e7a1      	b.n	10002736 <drawLine+0x62>
100027f2:	000b      	movs	r3, r1
100027f4:	2101      	movs	r1, #1
100027f6:	4249      	negs	r1, r1
100027f8:	0002      	movs	r2, r0
100027fa:	468c      	mov	ip, r1
100027fc:	e79b      	b.n	10002736 <drawLine+0x62>
100027fe:	0005      	movs	r5, r0
10002800:	4648      	mov	r0, r9
10002802:	4018      	ands	r0, r3
10002804:	4085      	lsls	r5, r0
10002806:	7808      	ldrb	r0, [r1, #0]
10002808:	4328      	orrs	r0, r5
1000280a:	7008      	strb	r0, [r1, #0]
1000280c:	e7b2      	b.n	10002774 <drawLine+0xa0>
1000280e:	0005      	movs	r5, r0
10002810:	4648      	mov	r0, r9
10002812:	4010      	ands	r0, r2
10002814:	e7f6      	b.n	10002804 <drawLine+0x130>
10002816:	46c0      	nop			; (mov r8, r8)
10002818:	200030fc 	.word	0x200030fc

1000281c <initScreen>:
1000281c:	b5f0      	push	{r4, r5, r6, r7, lr}
1000281e:	46c6      	mov	lr, r8
10002820:	2500      	movs	r5, #0
10002822:	b500      	push	{lr}
10002824:	4e93      	ldr	r6, [pc, #588]	; (10002a74 <initScreen+0x258>)
10002826:	b084      	sub	sp, #16
10002828:	4b93      	ldr	r3, [pc, #588]	; (10002a78 <initScreen+0x25c>)
1000282a:	ac03      	add	r4, sp, #12
1000282c:	8023      	strh	r3, [r4, #0]
1000282e:	0022      	movs	r2, r4
10002830:	2302      	movs	r3, #2
10002832:	213c      	movs	r1, #60	; 0x3c
10002834:	0030      	movs	r0, r6
10002836:	9500      	str	r5, [sp, #0]
10002838:	f004 fe8e 	bl	10007558 <i2c_write_blocking>
1000283c:	4b8f      	ldr	r3, [pc, #572]	; (10002a7c <initScreen+0x260>)
1000283e:	0022      	movs	r2, r4
10002840:	8023      	strh	r3, [r4, #0]
10002842:	237f      	movs	r3, #127	; 0x7f
10002844:	213c      	movs	r1, #60	; 0x3c
10002846:	70a3      	strb	r3, [r4, #2]
10002848:	0030      	movs	r0, r6
1000284a:	9500      	str	r5, [sp, #0]
1000284c:	3b7c      	subs	r3, #124	; 0x7c
1000284e:	f004 fe83 	bl	10007558 <i2c_write_blocking>
10002852:	2380      	movs	r3, #128	; 0x80
10002854:	009b      	lsls	r3, r3, #2
10002856:	8023      	strh	r3, [r4, #0]
10002858:	3bff      	subs	r3, #255	; 0xff
1000285a:	0022      	movs	r2, r4
1000285c:	213c      	movs	r1, #60	; 0x3c
1000285e:	0030      	movs	r0, r6
10002860:	9500      	str	r5, [sp, #0]
10002862:	3bff      	subs	r3, #255	; 0xff
10002864:	f004 fe78 	bl	10007558 <i2c_write_blocking>
10002868:	2380      	movs	r3, #128	; 0x80
1000286a:	2780      	movs	r7, #128	; 0x80
1000286c:	015b      	lsls	r3, r3, #5
1000286e:	8023      	strh	r3, [r4, #0]
10002870:	01ff      	lsls	r7, r7, #7
10002872:	4698      	mov	r8, r3
10002874:	0022      	movs	r2, r4
10002876:	2302      	movs	r3, #2
10002878:	213c      	movs	r1, #60	; 0x3c
1000287a:	0030      	movs	r0, r6
1000287c:	9500      	str	r5, [sp, #0]
1000287e:	f004 fe6b 	bl	10007558 <i2c_write_blocking>
10002882:	8027      	strh	r7, [r4, #0]
10002884:	0022      	movs	r2, r4
10002886:	2302      	movs	r3, #2
10002888:	213c      	movs	r1, #60	; 0x3c
1000288a:	0030      	movs	r0, r6
1000288c:	9500      	str	r5, [sp, #0]
1000288e:	f004 fe63 	bl	10007558 <i2c_write_blocking>
10002892:	4b7b      	ldr	r3, [pc, #492]	; (10002a80 <initScreen+0x264>)
10002894:	0022      	movs	r2, r4
10002896:	8023      	strh	r3, [r4, #0]
10002898:	213c      	movs	r1, #60	; 0x3c
1000289a:	2302      	movs	r3, #2
1000289c:	0030      	movs	r0, r6
1000289e:	9500      	str	r5, [sp, #0]
100028a0:	f004 fe5a 	bl	10007558 <i2c_write_blocking>
100028a4:	4b77      	ldr	r3, [pc, #476]	; (10002a84 <initScreen+0x268>)
100028a6:	0022      	movs	r2, r4
100028a8:	8023      	strh	r3, [r4, #0]
100028aa:	213c      	movs	r1, #60	; 0x3c
100028ac:	2302      	movs	r3, #2
100028ae:	0030      	movs	r0, r6
100028b0:	9500      	str	r5, [sp, #0]
100028b2:	f004 fe51 	bl	10007558 <i2c_write_blocking>
100028b6:	4b74      	ldr	r3, [pc, #464]	; (10002a88 <initScreen+0x26c>)
100028b8:	0022      	movs	r2, r4
100028ba:	8023      	strh	r3, [r4, #0]
100028bc:	213c      	movs	r1, #60	; 0x3c
100028be:	2302      	movs	r3, #2
100028c0:	0030      	movs	r0, r6
100028c2:	9500      	str	r5, [sp, #0]
100028c4:	f004 fe48 	bl	10007558 <i2c_write_blocking>
100028c8:	4b70      	ldr	r3, [pc, #448]	; (10002a8c <initScreen+0x270>)
100028ca:	0022      	movs	r2, r4
100028cc:	8023      	strh	r3, [r4, #0]
100028ce:	213c      	movs	r1, #60	; 0x3c
100028d0:	2302      	movs	r3, #2
100028d2:	0030      	movs	r0, r6
100028d4:	9500      	str	r5, [sp, #0]
100028d6:	f004 fe3f 	bl	10007558 <i2c_write_blocking>
100028da:	4b6d      	ldr	r3, [pc, #436]	; (10002a90 <initScreen+0x274>)
100028dc:	0022      	movs	r2, r4
100028de:	8023      	strh	r3, [r4, #0]
100028e0:	213c      	movs	r1, #60	; 0x3c
100028e2:	2302      	movs	r3, #2
100028e4:	0030      	movs	r0, r6
100028e6:	9500      	str	r5, [sp, #0]
100028e8:	f004 fe36 	bl	10007558 <i2c_write_blocking>
100028ec:	23c0      	movs	r3, #192	; 0xc0
100028ee:	019b      	lsls	r3, r3, #6
100028f0:	8023      	strh	r3, [r4, #0]
100028f2:	0022      	movs	r2, r4
100028f4:	2302      	movs	r3, #2
100028f6:	213c      	movs	r1, #60	; 0x3c
100028f8:	0030      	movs	r0, r6
100028fa:	9500      	str	r5, [sp, #0]
100028fc:	f004 fe2c 	bl	10007558 <i2c_write_blocking>
10002900:	4b64      	ldr	r3, [pc, #400]	; (10002a94 <initScreen+0x278>)
10002902:	0022      	movs	r2, r4
10002904:	8023      	strh	r3, [r4, #0]
10002906:	213c      	movs	r1, #60	; 0x3c
10002908:	2302      	movs	r3, #2
1000290a:	0030      	movs	r0, r6
1000290c:	9500      	str	r5, [sp, #0]
1000290e:	f004 fe23 	bl	10007558 <i2c_write_blocking>
10002912:	4b61      	ldr	r3, [pc, #388]	; (10002a98 <initScreen+0x27c>)
10002914:	0022      	movs	r2, r4
10002916:	8023      	strh	r3, [r4, #0]
10002918:	213c      	movs	r1, #60	; 0x3c
1000291a:	2302      	movs	r3, #2
1000291c:	0030      	movs	r0, r6
1000291e:	9500      	str	r5, [sp, #0]
10002920:	f004 fe1a 	bl	10007558 <i2c_write_blocking>
10002924:	0022      	movs	r2, r4
10002926:	8025      	strh	r5, [r4, #0]
10002928:	2302      	movs	r3, #2
1000292a:	213c      	movs	r1, #60	; 0x3c
1000292c:	0030      	movs	r0, r6
1000292e:	9500      	str	r5, [sp, #0]
10002930:	f004 fe12 	bl	10007558 <i2c_write_blocking>
10002934:	4b59      	ldr	r3, [pc, #356]	; (10002a9c <initScreen+0x280>)
10002936:	0022      	movs	r2, r4
10002938:	8023      	strh	r3, [r4, #0]
1000293a:	213c      	movs	r1, #60	; 0x3c
1000293c:	2302      	movs	r3, #2
1000293e:	0030      	movs	r0, r6
10002940:	9500      	str	r5, [sp, #0]
10002942:	f004 fe09 	bl	10007558 <i2c_write_blocking>
10002946:	4b56      	ldr	r3, [pc, #344]	; (10002aa0 <initScreen+0x284>)
10002948:	0022      	movs	r2, r4
1000294a:	8023      	strh	r3, [r4, #0]
1000294c:	213c      	movs	r1, #60	; 0x3c
1000294e:	2302      	movs	r3, #2
10002950:	0030      	movs	r0, r6
10002952:	9500      	str	r5, [sp, #0]
10002954:	f004 fe00 	bl	10007558 <i2c_write_blocking>
10002958:	4b52      	ldr	r3, [pc, #328]	; (10002aa4 <initScreen+0x288>)
1000295a:	0022      	movs	r2, r4
1000295c:	8023      	strh	r3, [r4, #0]
1000295e:	213c      	movs	r1, #60	; 0x3c
10002960:	2302      	movs	r3, #2
10002962:	0030      	movs	r0, r6
10002964:	9500      	str	r5, [sp, #0]
10002966:	f004 fdf7 	bl	10007558 <i2c_write_blocking>
1000296a:	23f8      	movs	r3, #248	; 0xf8
1000296c:	015b      	lsls	r3, r3, #5
1000296e:	8023      	strh	r3, [r4, #0]
10002970:	0022      	movs	r2, r4
10002972:	2302      	movs	r3, #2
10002974:	213c      	movs	r1, #60	; 0x3c
10002976:	0030      	movs	r0, r6
10002978:	9500      	str	r5, [sp, #0]
1000297a:	f004 fded 	bl	10007558 <i2c_write_blocking>
1000297e:	4b4a      	ldr	r3, [pc, #296]	; (10002aa8 <initScreen+0x28c>)
10002980:	0022      	movs	r2, r4
10002982:	8023      	strh	r3, [r4, #0]
10002984:	213c      	movs	r1, #60	; 0x3c
10002986:	2302      	movs	r3, #2
10002988:	0030      	movs	r0, r6
1000298a:	9500      	str	r5, [sp, #0]
1000298c:	f004 fde4 	bl	10007558 <i2c_write_blocking>
10002990:	2390      	movs	r3, #144	; 0x90
10002992:	015b      	lsls	r3, r3, #5
10002994:	8023      	strh	r3, [r4, #0]
10002996:	0022      	movs	r2, r4
10002998:	2302      	movs	r3, #2
1000299a:	213c      	movs	r1, #60	; 0x3c
1000299c:	0030      	movs	r0, r6
1000299e:	9500      	str	r5, [sp, #0]
100029a0:	f004 fdda 	bl	10007558 <i2c_write_blocking>
100029a4:	4b41      	ldr	r3, [pc, #260]	; (10002aac <initScreen+0x290>)
100029a6:	0022      	movs	r2, r4
100029a8:	8023      	strh	r3, [r4, #0]
100029aa:	213c      	movs	r1, #60	; 0x3c
100029ac:	2302      	movs	r3, #2
100029ae:	0030      	movs	r0, r6
100029b0:	9500      	str	r5, [sp, #0]
100029b2:	f004 fdd1 	bl	10007558 <i2c_write_blocking>
100029b6:	0022      	movs	r2, r4
100029b8:	8027      	strh	r7, [r4, #0]
100029ba:	2302      	movs	r3, #2
100029bc:	213c      	movs	r1, #60	; 0x3c
100029be:	0030      	movs	r0, r6
100029c0:	9500      	str	r5, [sp, #0]
100029c2:	f004 fdc9 	bl	10007558 <i2c_write_blocking>
100029c6:	200a      	movs	r0, #10
100029c8:	f000 fcd6 	bl	10003378 <sleep_ms>
100029cc:	0022      	movs	r2, r4
100029ce:	8025      	strh	r5, [r4, #0]
100029d0:	2302      	movs	r3, #2
100029d2:	213c      	movs	r1, #60	; 0x3c
100029d4:	0030      	movs	r0, r6
100029d6:	9500      	str	r5, [sp, #0]
100029d8:	f004 fdbe 	bl	10007558 <i2c_write_blocking>
100029dc:	4643      	mov	r3, r8
100029de:	0022      	movs	r2, r4
100029e0:	8023      	strh	r3, [r4, #0]
100029e2:	213c      	movs	r1, #60	; 0x3c
100029e4:	2302      	movs	r3, #2
100029e6:	0030      	movs	r0, r6
100029e8:	9500      	str	r5, [sp, #0]
100029ea:	f004 fdb5 	bl	10007558 <i2c_write_blocking>
100029ee:	2302      	movs	r3, #2
100029f0:	0022      	movs	r2, r4
100029f2:	8027      	strh	r7, [r4, #0]
100029f4:	213c      	movs	r1, #60	; 0x3c
100029f6:	0030      	movs	r0, r6
100029f8:	9500      	str	r5, [sp, #0]
100029fa:	f004 fdad 	bl	10007558 <i2c_write_blocking>
100029fe:	2064      	movs	r0, #100	; 0x64
10002a00:	f000 fcba 	bl	10003378 <sleep_ms>
10002a04:	2281      	movs	r2, #129	; 0x81
10002a06:	4f2a      	ldr	r7, [pc, #168]	; (10002ab0 <initScreen+0x294>)
10002a08:	2100      	movs	r1, #0
10002a0a:	0038      	movs	r0, r7
10002a0c:	0112      	lsls	r2, r2, #4
10002a0e:	f004 fb99 	bl	10007144 <__wrap_memset>
10002a12:	2340      	movs	r3, #64	; 0x40
10002a14:	2281      	movs	r2, #129	; 0x81
10002a16:	54bb      	strb	r3, [r7, r2]
10002a18:	3281      	adds	r2, #129	; 0x81
10002a1a:	54bb      	strb	r3, [r7, r2]
10002a1c:	2284      	movs	r2, #132	; 0x84
10002a1e:	32ff      	adds	r2, #255	; 0xff
10002a20:	54bb      	strb	r3, [r7, r2]
10002a22:	3281      	adds	r2, #129	; 0x81
10002a24:	54bb      	strb	r3, [r7, r2]
10002a26:	4a23      	ldr	r2, [pc, #140]	; (10002ab4 <initScreen+0x298>)
10002a28:	703b      	strb	r3, [r7, #0]
10002a2a:	54bb      	strb	r3, [r7, r2]
10002a2c:	4a22      	ldr	r2, [pc, #136]	; (10002ab8 <initScreen+0x29c>)
10002a2e:	54bb      	strb	r3, [r7, r2]
10002a30:	4a22      	ldr	r2, [pc, #136]	; (10002abc <initScreen+0x2a0>)
10002a32:	54bb      	strb	r3, [r7, r2]
10002a34:	3281      	adds	r2, #129	; 0x81
10002a36:	54bb      	strb	r3, [r7, r2]
10002a38:	4a21      	ldr	r2, [pc, #132]	; (10002ac0 <initScreen+0x2a4>)
10002a3a:	54bb      	strb	r3, [r7, r2]
10002a3c:	4a21      	ldr	r2, [pc, #132]	; (10002ac4 <initScreen+0x2a8>)
10002a3e:	54bb      	strb	r3, [r7, r2]
10002a40:	4a21      	ldr	r2, [pc, #132]	; (10002ac8 <initScreen+0x2ac>)
10002a42:	54bb      	strb	r3, [r7, r2]
10002a44:	4a21      	ldr	r2, [pc, #132]	; (10002acc <initScreen+0x2b0>)
10002a46:	54bb      	strb	r3, [r7, r2]
10002a48:	4a21      	ldr	r2, [pc, #132]	; (10002ad0 <initScreen+0x2b4>)
10002a4a:	54bb      	strb	r3, [r7, r2]
10002a4c:	4a21      	ldr	r2, [pc, #132]	; (10002ad4 <initScreen+0x2b8>)
10002a4e:	54bb      	strb	r3, [r7, r2]
10002a50:	4a21      	ldr	r2, [pc, #132]	; (10002ad8 <initScreen+0x2bc>)
10002a52:	54bb      	strb	r3, [r7, r2]
10002a54:	f7ff fd80 	bl	10002558 <display>
10002a58:	4b20      	ldr	r3, [pc, #128]	; (10002adc <initScreen+0x2c0>)
10002a5a:	0022      	movs	r2, r4
10002a5c:	8023      	strh	r3, [r4, #0]
10002a5e:	213c      	movs	r1, #60	; 0x3c
10002a60:	2302      	movs	r3, #2
10002a62:	0030      	movs	r0, r6
10002a64:	9500      	str	r5, [sp, #0]
10002a66:	f004 fd77 	bl	10007558 <i2c_write_blocking>
10002a6a:	b004      	add	sp, #16
10002a6c:	bc04      	pop	{r2}
10002a6e:	4690      	mov	r8, r2
10002a70:	bdf0      	pop	{r4, r5, r6, r7, pc}
10002a72:	46c0      	nop			; (mov r8, r8)
10002a74:	20000280 	.word	0x20000280
10002a78:	ffffae00 	.word	0xffffae00
10002a7c:	ffffa800 	.word	0xffffa800
10002a80:	ffffb000 	.word	0xffffb000
10002a84:	ffffa100 	.word	0xffffa100
10002a88:	ffffa600 	.word	0xffffa600
10002a8c:	ffffad00 	.word	0xffffad00
10002a90:	ffff8b00 	.word	0xffff8b00
10002a94:	ffffc800 	.word	0xffffc800
10002a98:	ffffd300 	.word	0xffffd300
10002a9c:	ffffd500 	.word	0xffffd500
10002aa0:	ffff8000 	.word	0xffff8000
10002aa4:	ffffd900 	.word	0xffffd900
10002aa8:	ffffda00 	.word	0xffffda00
10002aac:	ffffdb00 	.word	0xffffdb00
10002ab0:	200030fc 	.word	0x200030fc
10002ab4:	00000285 	.word	0x00000285
10002ab8:	00000306 	.word	0x00000306
10002abc:	00000387 	.word	0x00000387
10002ac0:	00000489 	.word	0x00000489
10002ac4:	0000050a 	.word	0x0000050a
10002ac8:	0000058b 	.word	0x0000058b
10002acc:	0000060c 	.word	0x0000060c
10002ad0:	0000068d 	.word	0x0000068d
10002ad4:	0000070e 	.word	0x0000070e
10002ad8:	0000078f 	.word	0x0000078f
10002adc:	ffffaf00 	.word	0xffffaf00

10002ae0 <drawChar>:
10002ae0:	b5f0      	push	{r4, r5, r6, r7, lr}
10002ae2:	4657      	mov	r7, sl
10002ae4:	4645      	mov	r5, r8
10002ae6:	46de      	mov	lr, fp
10002ae8:	464e      	mov	r6, r9
10002aea:	b5e0      	push	{r5, r6, r7, lr}
10002aec:	b08d      	sub	sp, #52	; 0x34
10002aee:	469a      	mov	sl, r3
10002af0:	ab16      	add	r3, sp, #88	; 0x58
10002af2:	881b      	ldrh	r3, [r3, #0]
10002af4:	000d      	movs	r5, r1
10002af6:	9302      	str	r3, [sp, #8]
10002af8:	ab17      	add	r3, sp, #92	; 0x5c
10002afa:	781b      	ldrb	r3, [r3, #0]
10002afc:	9109      	str	r1, [sp, #36]	; 0x24
10002afe:	9303      	str	r3, [sp, #12]
10002b00:	0019      	movs	r1, r3
10002b02:	287f      	cmp	r0, #127	; 0x7f
10002b04:	dc7f      	bgt.n	10002c06 <drawChar+0x126>
10002b06:	2d7f      	cmp	r5, #127	; 0x7f
10002b08:	dc7d      	bgt.n	10002c06 <drawChar+0x126>
10002b0a:	468c      	mov	ip, r1
10002b0c:	009b      	lsls	r3, r3, #2
10002b0e:	4463      	add	r3, ip
10002b10:	181b      	adds	r3, r3, r0
10002b12:	2b00      	cmp	r3, #0
10002b14:	dd77      	ble.n	10002c06 <drawChar+0x126>
10002b16:	46ac      	mov	ip, r5
10002b18:	00cb      	lsls	r3, r1, #3
10002b1a:	4463      	add	r3, ip
10002b1c:	002c      	movs	r4, r5
10002b1e:	2b00      	cmp	r3, #0
10002b20:	dd71      	ble.n	10002c06 <drawChar+0x126>
10002b22:	0093      	lsls	r3, r2, #2
10002b24:	189a      	adds	r2, r3, r2
10002b26:	b28b      	uxth	r3, r1
10002b28:	9304      	str	r3, [sp, #16]
10002b2a:	b283      	uxth	r3, r0
10002b2c:	9307      	str	r3, [sp, #28]
10002b2e:	2300      	movs	r3, #0
10002b30:	9308      	str	r3, [sp, #32]
10002b32:	b2ab      	uxth	r3, r5
10002b34:	930a      	str	r3, [sp, #40]	; 0x28
10002b36:	4b57      	ldr	r3, [pc, #348]	; (10002c94 <drawChar+0x1b4>)
10002b38:	3408      	adds	r4, #8
10002b3a:	18d3      	adds	r3, r2, r3
10002b3c:	9006      	str	r0, [sp, #24]
10002b3e:	9405      	str	r4, [sp, #20]
10002b40:	930b      	str	r3, [sp, #44]	; 0x2c
10002b42:	9b08      	ldr	r3, [sp, #32]
10002b44:	2b05      	cmp	r3, #5
10002b46:	d100      	bne.n	10002b4a <drawChar+0x6a>
10002b48:	e0a0      	b.n	10002c8c <drawChar+0x1ac>
10002b4a:	9a0b      	ldr	r2, [sp, #44]	; 0x2c
10002b4c:	5cd3      	ldrb	r3, [r2, r3]
10002b4e:	4698      	mov	r8, r3
10002b50:	466b      	mov	r3, sp
10002b52:	9e09      	ldr	r6, [sp, #36]	; 0x24
10002b54:	271c      	movs	r7, #28
10002b56:	5fdf      	ldrsh	r7, [r3, r7]
10002b58:	9d0a      	ldr	r5, [sp, #40]	; 0x28
10002b5a:	e026      	b.n	10002baa <drawChar+0xca>
10002b5c:	9b03      	ldr	r3, [sp, #12]
10002b5e:	2b01      	cmp	r3, #1
10002b60:	d158      	bne.n	10002c14 <drawChar+0x134>
10002b62:	9906      	ldr	r1, [sp, #24]
10002b64:	297f      	cmp	r1, #127	; 0x7f
10002b66:	d815      	bhi.n	10002b94 <drawChar+0xb4>
10002b68:	2e7f      	cmp	r6, #127	; 0x7f
10002b6a:	d813      	bhi.n	10002b94 <drawChar+0xb4>
10002b6c:	468c      	mov	ip, r1
10002b6e:	10f2      	asrs	r2, r6, #3
10002b70:	01d3      	lsls	r3, r2, #7
10002b72:	189b      	adds	r3, r3, r2
10002b74:	4a48      	ldr	r2, [pc, #288]	; (10002c98 <drawChar+0x1b8>)
10002b76:	4463      	add	r3, ip
10002b78:	4694      	mov	ip, r2
10002b7a:	4652      	mov	r2, sl
10002b7c:	3301      	adds	r3, #1
10002b7e:	4463      	add	r3, ip
10002b80:	2a01      	cmp	r2, #1
10002b82:	d100      	bne.n	10002b86 <drawChar+0xa6>
10002b84:	e07e      	b.n	10002c84 <drawChar+0x1a4>
10002b86:	2207      	movs	r2, #7
10002b88:	4032      	ands	r2, r6
10002b8a:	9903      	ldr	r1, [sp, #12]
10002b8c:	4091      	lsls	r1, r2
10002b8e:	781a      	ldrb	r2, [r3, #0]
10002b90:	438a      	bics	r2, r1
10002b92:	701a      	strb	r2, [r3, #0]
10002b94:	4643      	mov	r3, r8
10002b96:	085b      	lsrs	r3, r3, #1
10002b98:	4698      	mov	r8, r3
10002b9a:	9b04      	ldr	r3, [sp, #16]
10002b9c:	3601      	adds	r6, #1
10002b9e:	469c      	mov	ip, r3
10002ba0:	9b05      	ldr	r3, [sp, #20]
10002ba2:	4465      	add	r5, ip
10002ba4:	b2ad      	uxth	r5, r5
10002ba6:	42b3      	cmp	r3, r6
10002ba8:	d021      	beq.n	10002bee <drawChar+0x10e>
10002baa:	2301      	movs	r3, #1
10002bac:	4642      	mov	r2, r8
10002bae:	4213      	tst	r3, r2
10002bb0:	d1d4      	bne.n	10002b5c <drawChar+0x7c>
10002bb2:	9902      	ldr	r1, [sp, #8]
10002bb4:	4551      	cmp	r1, sl
10002bb6:	d0ed      	beq.n	10002b94 <drawChar+0xb4>
10002bb8:	9b03      	ldr	r3, [sp, #12]
10002bba:	2b01      	cmp	r3, #1
10002bbc:	d146      	bne.n	10002c4c <drawChar+0x16c>
10002bbe:	9806      	ldr	r0, [sp, #24]
10002bc0:	287f      	cmp	r0, #127	; 0x7f
10002bc2:	d8e7      	bhi.n	10002b94 <drawChar+0xb4>
10002bc4:	2e7f      	cmp	r6, #127	; 0x7f
10002bc6:	d8e5      	bhi.n	10002b94 <drawChar+0xb4>
10002bc8:	4684      	mov	ip, r0
10002bca:	10f2      	asrs	r2, r6, #3
10002bcc:	01d3      	lsls	r3, r2, #7
10002bce:	189b      	adds	r3, r3, r2
10002bd0:	4a31      	ldr	r2, [pc, #196]	; (10002c98 <drawChar+0x1b8>)
10002bd2:	4463      	add	r3, ip
10002bd4:	4694      	mov	ip, r2
10002bd6:	2207      	movs	r2, #7
10002bd8:	3301      	adds	r3, #1
10002bda:	4463      	add	r3, ip
10002bdc:	4032      	ands	r2, r6
10002bde:	2901      	cmp	r1, #1
10002be0:	d1d3      	bne.n	10002b8a <drawChar+0xaa>
10002be2:	4091      	lsls	r1, r2
10002be4:	000a      	movs	r2, r1
10002be6:	7819      	ldrb	r1, [r3, #0]
10002be8:	430a      	orrs	r2, r1
10002bea:	701a      	strb	r2, [r3, #0]
10002bec:	e7d2      	b.n	10002b94 <drawChar+0xb4>
10002bee:	9b06      	ldr	r3, [sp, #24]
10002bf0:	9a08      	ldr	r2, [sp, #32]
10002bf2:	3301      	adds	r3, #1
10002bf4:	9306      	str	r3, [sp, #24]
10002bf6:	9b07      	ldr	r3, [sp, #28]
10002bf8:	3201      	adds	r2, #1
10002bfa:	4463      	add	r3, ip
10002bfc:	b29b      	uxth	r3, r3
10002bfe:	9208      	str	r2, [sp, #32]
10002c00:	9307      	str	r3, [sp, #28]
10002c02:	2a06      	cmp	r2, #6
10002c04:	d19d      	bne.n	10002b42 <drawChar+0x62>
10002c06:	b00d      	add	sp, #52	; 0x34
10002c08:	bc3c      	pop	{r2, r3, r4, r5}
10002c0a:	4690      	mov	r8, r2
10002c0c:	4699      	mov	r9, r3
10002c0e:	46a2      	mov	sl, r4
10002c10:	46ab      	mov	fp, r5
10002c12:	bdf0      	pop	{r4, r5, r6, r7, pc}
10002c14:	4699      	mov	r9, r3
10002c16:	b22c      	sxth	r4, r5
10002c18:	44a1      	add	r9, r4
10002c1a:	454c      	cmp	r4, r9
10002c1c:	daba      	bge.n	10002b94 <drawChar+0xb4>
10002c1e:	469b      	mov	fp, r3
10002c20:	44bb      	add	fp, r7
10002c22:	002a      	movs	r2, r5
10002c24:	465b      	mov	r3, fp
10002c26:	464d      	mov	r5, r9
10002c28:	46b3      	mov	fp, r6
10002c2a:	4691      	mov	r9, r2
10002c2c:	001e      	movs	r6, r3
10002c2e:	4653      	mov	r3, sl
10002c30:	0021      	movs	r1, r4
10002c32:	9300      	str	r3, [sp, #0]
10002c34:	0023      	movs	r3, r4
10002c36:	3401      	adds	r4, #1
10002c38:	0032      	movs	r2, r6
10002c3a:	0038      	movs	r0, r7
10002c3c:	b224      	sxth	r4, r4
10002c3e:	f7ff fd49 	bl	100026d4 <drawLine>
10002c42:	42a5      	cmp	r5, r4
10002c44:	dcf3      	bgt.n	10002c2e <drawChar+0x14e>
10002c46:	464d      	mov	r5, r9
10002c48:	465e      	mov	r6, fp
10002c4a:	e7a3      	b.n	10002b94 <drawChar+0xb4>
10002c4c:	4699      	mov	r9, r3
10002c4e:	b22c      	sxth	r4, r5
10002c50:	44a1      	add	r9, r4
10002c52:	45a1      	cmp	r9, r4
10002c54:	dd9e      	ble.n	10002b94 <drawChar+0xb4>
10002c56:	469b      	mov	fp, r3
10002c58:	44bb      	add	fp, r7
10002c5a:	002a      	movs	r2, r5
10002c5c:	465b      	mov	r3, fp
10002c5e:	464d      	mov	r5, r9
10002c60:	46b3      	mov	fp, r6
10002c62:	4691      	mov	r9, r2
10002c64:	001e      	movs	r6, r3
10002c66:	9b02      	ldr	r3, [sp, #8]
10002c68:	0021      	movs	r1, r4
10002c6a:	9300      	str	r3, [sp, #0]
10002c6c:	0023      	movs	r3, r4
10002c6e:	3401      	adds	r4, #1
10002c70:	0032      	movs	r2, r6
10002c72:	0038      	movs	r0, r7
10002c74:	b224      	sxth	r4, r4
10002c76:	f7ff fd2d 	bl	100026d4 <drawLine>
10002c7a:	42a5      	cmp	r5, r4
10002c7c:	dcf3      	bgt.n	10002c66 <drawChar+0x186>
10002c7e:	464d      	mov	r5, r9
10002c80:	465e      	mov	r6, fp
10002c82:	e787      	b.n	10002b94 <drawChar+0xb4>
10002c84:	3206      	adds	r2, #6
10002c86:	4651      	mov	r1, sl
10002c88:	4032      	ands	r2, r6
10002c8a:	e7aa      	b.n	10002be2 <drawChar+0x102>
10002c8c:	2300      	movs	r3, #0
10002c8e:	4698      	mov	r8, r3
10002c90:	e75e      	b.n	10002b50 <drawChar+0x70>
10002c92:	46c0      	nop			; (mov r8, r8)
10002c94:	10007788 	.word	0x10007788
10002c98:	200030fc 	.word	0x200030fc

10002c9c <print>:
10002c9c:	b5f0      	push	{r4, r5, r6, r7, lr}
10002c9e:	46d6      	mov	lr, sl
10002ca0:	464f      	mov	r7, r9
10002ca2:	4646      	mov	r6, r8
10002ca4:	0004      	movs	r4, r0
10002ca6:	b5c0      	push	{r6, r7, lr}
10002ca8:	b082      	sub	sp, #8
10002caa:	f004 fcbf 	bl	1000762c <strlen>
10002cae:	7822      	ldrb	r2, [r4, #0]
10002cb0:	2a00      	cmp	r2, #0
10002cb2:	d04b      	beq.n	10002d4c <print+0xb0>
10002cb4:	2800      	cmp	r0, #0
10002cb6:	d049      	beq.n	10002d4c <print+0xb0>
10002cb8:	4b27      	ldr	r3, [pc, #156]	; (10002d58 <print+0xbc>)
10002cba:	4e28      	ldr	r6, [pc, #160]	; (10002d5c <print+0xc0>)
10002cbc:	4698      	mov	r8, r3
10002cbe:	4b28      	ldr	r3, [pc, #160]	; (10002d60 <print+0xc4>)
10002cc0:	1825      	adds	r5, r4, r0
10002cc2:	4699      	mov	r9, r3
10002cc4:	e032      	b.n	10002d2c <print+0x90>
10002cc6:	2a0d      	cmp	r2, #13
10002cc8:	d02b      	beq.n	10002d22 <print+0x86>
10002cca:	4643      	mov	r3, r8
10002ccc:	4649      	mov	r1, r9
10002cce:	881b      	ldrh	r3, [r3, #0]
10002cd0:	4f24      	ldr	r7, [pc, #144]	; (10002d64 <print+0xc8>)
10002cd2:	469a      	mov	sl, r3
10002cd4:	2300      	movs	r3, #0
10002cd6:	5ec9      	ldrsh	r1, [r1, r3]
10002cd8:	2300      	movs	r3, #0
10002cda:	5ef0      	ldrsh	r0, [r6, r3]
10002cdc:	783b      	ldrb	r3, [r7, #0]
10002cde:	9301      	str	r3, [sp, #4]
10002ce0:	4b21      	ldr	r3, [pc, #132]	; (10002d68 <print+0xcc>)
10002ce2:	881b      	ldrh	r3, [r3, #0]
10002ce4:	9300      	str	r3, [sp, #0]
10002ce6:	4653      	mov	r3, sl
10002ce8:	f7ff fefa 	bl	10002ae0 <drawChar>
10002cec:	783a      	ldrb	r2, [r7, #0]
10002cee:	8830      	ldrh	r0, [r6, #0]
10002cf0:	0053      	lsls	r3, r2, #1
10002cf2:	18d3      	adds	r3, r2, r3
10002cf4:	005b      	lsls	r3, r3, #1
10002cf6:	181b      	adds	r3, r3, r0
10002cf8:	481c      	ldr	r0, [pc, #112]	; (10002d6c <print+0xd0>)
10002cfa:	b29b      	uxth	r3, r3
10002cfc:	7800      	ldrb	r0, [r0, #0]
10002cfe:	0011      	movs	r1, r2
10002d00:	8033      	strh	r3, [r6, #0]
10002d02:	2800      	cmp	r0, #0
10002d04:	d00d      	beq.n	10002d22 <print+0x86>
10002d06:	0090      	lsls	r0, r2, #2
10002d08:	1a12      	subs	r2, r2, r0
10002d0a:	0052      	lsls	r2, r2, #1
10002d0c:	3280      	adds	r2, #128	; 0x80
10002d0e:	4293      	cmp	r3, r2
10002d10:	dd07      	ble.n	10002d22 <print+0x86>
10002d12:	464b      	mov	r3, r9
10002d14:	881b      	ldrh	r3, [r3, #0]
10002d16:	00c9      	lsls	r1, r1, #3
10002d18:	18c9      	adds	r1, r1, r3
10002d1a:	464b      	mov	r3, r9
10002d1c:	8019      	strh	r1, [r3, #0]
10002d1e:	2300      	movs	r3, #0
10002d20:	8033      	strh	r3, [r6, #0]
10002d22:	7822      	ldrb	r2, [r4, #0]
10002d24:	2a00      	cmp	r2, #0
10002d26:	d011      	beq.n	10002d4c <print+0xb0>
10002d28:	42ac      	cmp	r4, r5
10002d2a:	d00f      	beq.n	10002d4c <print+0xb0>
10002d2c:	3401      	adds	r4, #1
10002d2e:	2a0a      	cmp	r2, #10
10002d30:	d1c9      	bne.n	10002cc6 <print+0x2a>
10002d32:	4b0c      	ldr	r3, [pc, #48]	; (10002d64 <print+0xc8>)
10002d34:	4a0a      	ldr	r2, [pc, #40]	; (10002d60 <print+0xc4>)
10002d36:	781b      	ldrb	r3, [r3, #0]
10002d38:	8811      	ldrh	r1, [r2, #0]
10002d3a:	00db      	lsls	r3, r3, #3
10002d3c:	185b      	adds	r3, r3, r1
10002d3e:	8013      	strh	r3, [r2, #0]
10002d40:	2200      	movs	r2, #0
10002d42:	4b06      	ldr	r3, [pc, #24]	; (10002d5c <print+0xc0>)
10002d44:	801a      	strh	r2, [r3, #0]
10002d46:	7822      	ldrb	r2, [r4, #0]
10002d48:	2a00      	cmp	r2, #0
10002d4a:	d1ed      	bne.n	10002d28 <print+0x8c>
10002d4c:	b002      	add	sp, #8
10002d4e:	bc1c      	pop	{r2, r3, r4}
10002d50:	4690      	mov	r8, r2
10002d52:	4699      	mov	r9, r3
10002d54:	46a2      	mov	sl, r4
10002d56:	bdf0      	pop	{r4, r5, r6, r7, pc}
10002d58:	20003912 	.word	0x20003912
10002d5c:	2000390c 	.word	0x2000390c
10002d60:	200030f8 	.word	0x200030f8
10002d64:	2000390f 	.word	0x2000390f
10002d68:	20003910 	.word	0x20003910
10002d6c:	2000390e 	.word	0x2000390e

10002d70 <setCursor>:
10002d70:	4b02      	ldr	r3, [pc, #8]	; (10002d7c <setCursor+0xc>)
10002d72:	8018      	strh	r0, [r3, #0]
10002d74:	4b02      	ldr	r3, [pc, #8]	; (10002d80 <setCursor+0x10>)
10002d76:	8019      	strh	r1, [r3, #0]
10002d78:	4770      	bx	lr
10002d7a:	46c0      	nop			; (mov r8, r8)
10002d7c:	2000390c 	.word	0x2000390c
10002d80:	200030f8 	.word	0x200030f8

10002d84 <setTextSize>:
10002d84:	1c03      	adds	r3, r0, #0
10002d86:	2800      	cmp	r0, #0
10002d88:	d100      	bne.n	10002d8c <setTextSize+0x8>
10002d8a:	2301      	movs	r3, #1
10002d8c:	4a01      	ldr	r2, [pc, #4]	; (10002d94 <setTextSize+0x10>)
10002d8e:	7013      	strb	r3, [r2, #0]
10002d90:	4770      	bx	lr
10002d92:	46c0      	nop			; (mov r8, r8)
10002d94:	2000390f 	.word	0x2000390f

10002d98 <setTextColor>:
10002d98:	4b02      	ldr	r3, [pc, #8]	; (10002da4 <setTextColor+0xc>)
10002d9a:	8018      	strh	r0, [r3, #0]
10002d9c:	4b02      	ldr	r3, [pc, #8]	; (10002da8 <setTextColor+0x10>)
10002d9e:	8018      	strh	r0, [r3, #0]
10002da0:	4770      	bx	lr
10002da2:	46c0      	nop			; (mov r8, r8)
10002da4:	20003912 	.word	0x20003912
10002da8:	20003910 	.word	0x20003910

10002dac <gpio_set_function>:
10002dac:	4a09      	ldr	r2, [pc, #36]	; (10002dd4 <gpio_set_function+0x28>)
10002dae:	0083      	lsls	r3, r0, #2
10002db0:	4694      	mov	ip, r2
10002db2:	2240      	movs	r2, #64	; 0x40
10002db4:	4463      	add	r3, ip
10002db6:	b510      	push	{r4, lr}
10002db8:	681c      	ldr	r4, [r3, #0]
10002dba:	00c0      	lsls	r0, r0, #3
10002dbc:	4062      	eors	r2, r4
10002dbe:	24c0      	movs	r4, #192	; 0xc0
10002dc0:	4014      	ands	r4, r2
10002dc2:	2280      	movs	r2, #128	; 0x80
10002dc4:	0152      	lsls	r2, r2, #5
10002dc6:	4313      	orrs	r3, r2
10002dc8:	601c      	str	r4, [r3, #0]
10002dca:	4b03      	ldr	r3, [pc, #12]	; (10002dd8 <gpio_set_function+0x2c>)
10002dcc:	469c      	mov	ip, r3
10002dce:	4460      	add	r0, ip
10002dd0:	6041      	str	r1, [r0, #4]
10002dd2:	bd10      	pop	{r4, pc}
10002dd4:	4001c004 	.word	0x4001c004
10002dd8:	40014000 	.word	0x40014000

10002ddc <gpio_set_pulls>:
10002ddc:	4b0a      	ldr	r3, [pc, #40]	; (10002e08 <gpio_set_pulls+0x2c>)
10002dde:	0080      	lsls	r0, r0, #2
10002de0:	469c      	mov	ip, r3
10002de2:	2304      	movs	r3, #4
10002de4:	4460      	add	r0, ip
10002de6:	2900      	cmp	r1, #0
10002de8:	d001      	beq.n	10002dee <gpio_set_pulls+0x12>
10002dea:	230c      	movs	r3, #12
10002dec:	2108      	movs	r1, #8
10002dee:	2a00      	cmp	r2, #0
10002df0:	d100      	bne.n	10002df4 <gpio_set_pulls+0x18>
10002df2:	000b      	movs	r3, r1
10002df4:	6802      	ldr	r2, [r0, #0]
10002df6:	4053      	eors	r3, r2
10002df8:	220c      	movs	r2, #12
10002dfa:	401a      	ands	r2, r3
10002dfc:	2380      	movs	r3, #128	; 0x80
10002dfe:	015b      	lsls	r3, r3, #5
10002e00:	4318      	orrs	r0, r3
10002e02:	6002      	str	r2, [r0, #0]
10002e04:	4770      	bx	lr
10002e06:	46c0      	nop			; (mov r8, r8)
10002e08:	4001c004 	.word	0x4001c004

10002e0c <gpio_init>:
10002e0c:	2301      	movs	r3, #1
10002e0e:	22d0      	movs	r2, #208	; 0xd0
10002e10:	4083      	lsls	r3, r0
10002e12:	0612      	lsls	r2, r2, #24
10002e14:	6293      	str	r3, [r2, #40]	; 0x28
10002e16:	6193      	str	r3, [r2, #24]
10002e18:	4a09      	ldr	r2, [pc, #36]	; (10002e40 <gpio_init+0x34>)
10002e1a:	0083      	lsls	r3, r0, #2
10002e1c:	4694      	mov	ip, r2
10002e1e:	2240      	movs	r2, #64	; 0x40
10002e20:	4463      	add	r3, ip
10002e22:	6819      	ldr	r1, [r3, #0]
10002e24:	00c0      	lsls	r0, r0, #3
10002e26:	404a      	eors	r2, r1
10002e28:	21c0      	movs	r1, #192	; 0xc0
10002e2a:	4011      	ands	r1, r2
10002e2c:	2280      	movs	r2, #128	; 0x80
10002e2e:	0152      	lsls	r2, r2, #5
10002e30:	4313      	orrs	r3, r2
10002e32:	6019      	str	r1, [r3, #0]
10002e34:	4b03      	ldr	r3, [pc, #12]	; (10002e44 <gpio_init+0x38>)
10002e36:	469c      	mov	ip, r3
10002e38:	2305      	movs	r3, #5
10002e3a:	4460      	add	r0, ip
10002e3c:	6043      	str	r3, [r0, #4]
10002e3e:	4770      	bx	lr
10002e40:	4001c004 	.word	0x4001c004
10002e44:	40014000 	.word	0x40014000

10002e48 <hw_claim_or_assert>:
10002e48:	b5f8      	push	{r3, r4, r5, r6, r7, lr}
10002e4a:	46ce      	mov	lr, r9
10002e4c:	4647      	mov	r7, r8
10002e4e:	4691      	mov	r9, r2
10002e50:	b580      	push	{r7, lr}
10002e52:	f3ef 8710 	mrs	r7, PRIMASK
10002e56:	b672      	cpsid	i
10002e58:	4e12      	ldr	r6, [pc, #72]	; (10002ea4 <hw_claim_or_assert+0x5c>)
10002e5a:	6833      	ldr	r3, [r6, #0]
10002e5c:	2b00      	cmp	r3, #0
10002e5e:	d0fc      	beq.n	10002e5a <hw_claim_or_assert+0x12>
10002e60:	f3bf 8f5f 	dmb	sy
10002e64:	08cb      	lsrs	r3, r1, #3
10002e66:	5cc5      	ldrb	r5, [r0, r3]
10002e68:	2407      	movs	r4, #7
10002e6a:	18c2      	adds	r2, r0, r3
10002e6c:	0028      	movs	r0, r5
10002e6e:	2301      	movs	r3, #1
10002e70:	400c      	ands	r4, r1
10002e72:	4694      	mov	ip, r2
10002e74:	40e0      	lsrs	r0, r4
10002e76:	001a      	movs	r2, r3
10002e78:	4002      	ands	r2, r0
10002e7a:	4690      	mov	r8, r2
10002e7c:	4203      	tst	r3, r0
10002e7e:	d10d      	bne.n	10002e9c <hw_claim_or_assert+0x54>
10002e80:	40a3      	lsls	r3, r4
10002e82:	4662      	mov	r2, ip
10002e84:	432b      	orrs	r3, r5
10002e86:	7013      	strb	r3, [r2, #0]
10002e88:	f3bf 8f5f 	dmb	sy
10002e8c:	4643      	mov	r3, r8
10002e8e:	6033      	str	r3, [r6, #0]
10002e90:	f387 8810 	msr	PRIMASK, r7
10002e94:	bc0c      	pop	{r2, r3}
10002e96:	4690      	mov	r8, r2
10002e98:	4699      	mov	r9, r3
10002e9a:	bdf8      	pop	{r3, r4, r5, r6, r7, pc}
10002e9c:	4648      	mov	r0, r9
10002e9e:	f000 fe95 	bl	10003bcc <panic>
10002ea2:	46c0      	nop			; (mov r8, r8)
10002ea4:	d000012c 	.word	0xd000012c

10002ea8 <spin_locks_reset>:
10002ea8:	2100      	movs	r1, #0
10002eaa:	4b04      	ldr	r3, [pc, #16]	; (10002ebc <spin_locks_reset+0x14>)
10002eac:	4a04      	ldr	r2, [pc, #16]	; (10002ec0 <spin_locks_reset+0x18>)
10002eae:	f3bf 8f5f 	dmb	sy
10002eb2:	c302      	stmia	r3!, {r1}
10002eb4:	4293      	cmp	r3, r2
10002eb6:	d1fa      	bne.n	10002eae <spin_locks_reset+0x6>
10002eb8:	4770      	bx	lr
10002eba:	46c0      	nop			; (mov r8, r8)
10002ebc:	d0000100 	.word	0xd0000100
10002ec0:	d0000180 	.word	0xd0000180

10002ec4 <next_striped_spin_lock_num>:
10002ec4:	4a04      	ldr	r2, [pc, #16]	; (10002ed8 <next_striped_spin_lock_num+0x14>)
10002ec6:	7810      	ldrb	r0, [r2, #0]
10002ec8:	1c43      	adds	r3, r0, #1
10002eca:	b2db      	uxtb	r3, r3
10002ecc:	2b17      	cmp	r3, #23
10002ece:	d900      	bls.n	10002ed2 <next_striped_spin_lock_num+0xe>
10002ed0:	2310      	movs	r3, #16
10002ed2:	7013      	strb	r3, [r2, #0]
10002ed4:	4770      	bx	lr
10002ed6:	46c0      	nop			; (mov r8, r8)
10002ed8:	200001e0 	.word	0x200001e0

10002edc <running_on_fpga>:
10002edc:	4b02      	ldr	r3, [pc, #8]	; (10002ee8 <running_on_fpga+0xc>)
10002ede:	6818      	ldr	r0, [r3, #0]
10002ee0:	0780      	lsls	r0, r0, #30
10002ee2:	0fc0      	lsrs	r0, r0, #31
10002ee4:	4770      	bx	lr
10002ee6:	46c0      	nop			; (mov r8, r8)
10002ee8:	4006c000 	.word	0x4006c000

10002eec <timer_pool_entry_comparator>:
10002eec:	6883      	ldr	r3, [r0, #8]
10002eee:	480b      	ldr	r0, [pc, #44]	; (10002f1c <timer_pool_entry_comparator+0x30>)
10002ef0:	b510      	push	{r4, lr}
10002ef2:	4684      	mov	ip, r0
10002ef4:	4461      	add	r1, ip
10002ef6:	4462      	add	r2, ip
10002ef8:	0109      	lsls	r1, r1, #4
10002efa:	0112      	lsls	r2, r2, #4
10002efc:	189a      	adds	r2, r3, r2
10002efe:	1859      	adds	r1, r3, r1
10002f00:	6854      	ldr	r4, [r2, #4]
10002f02:	684b      	ldr	r3, [r1, #4]
10002f04:	2001      	movs	r0, #1
10002f06:	429c      	cmp	r4, r3
10002f08:	d801      	bhi.n	10002f0e <timer_pool_entry_comparator+0x22>
10002f0a:	d002      	beq.n	10002f12 <timer_pool_entry_comparator+0x26>
10002f0c:	2000      	movs	r0, #0
10002f0e:	b2c0      	uxtb	r0, r0
10002f10:	bd10      	pop	{r4, pc}
10002f12:	6812      	ldr	r2, [r2, #0]
10002f14:	680b      	ldr	r3, [r1, #0]
10002f16:	429a      	cmp	r2, r3
10002f18:	d8f9      	bhi.n	10002f0e <timer_pool_entry_comparator+0x22>
10002f1a:	e7f7      	b.n	10002f0c <timer_pool_entry_comparator+0x20>
10002f1c:	0fffffff 	.word	0x0fffffff

10002f20 <sev_callback>:
10002f20:	bf40      	sev
10002f22:	2000      	movs	r0, #0
10002f24:	2100      	movs	r1, #0
10002f26:	4770      	bx	lr

10002f28 <alarm_pool_add_alarm_at.constprop.0>:
10002f28:	b5f8      	push	{r3, r4, r5, r6, r7, lr}
10002f2a:	4657      	mov	r7, sl
10002f2c:	464e      	mov	r6, r9
10002f2e:	4645      	mov	r5, r8
10002f30:	46de      	mov	lr, fp
10002f32:	b5e0      	push	{r5, r6, r7, lr}
10002f34:	4d43      	ldr	r5, [pc, #268]	; (10003044 <alarm_pool_add_alarm_at.constprop.0+0x11c>)
10002f36:	4681      	mov	r9, r0
10002f38:	468a      	mov	sl, r1
10002f3a:	686a      	ldr	r2, [r5, #4]
10002f3c:	f3ef 8810 	mrs	r8, PRIMASK
10002f40:	b672      	cpsid	i
10002f42:	6813      	ldr	r3, [r2, #0]
10002f44:	2b00      	cmp	r3, #0
10002f46:	d0fc      	beq.n	10002f42 <alarm_pool_add_alarm_at.constprop.0+0x1a>
10002f48:	f3bf 8f5f 	dmb	sy
10002f4c:	682e      	ldr	r6, [r5, #0]
10002f4e:	7bb4      	ldrb	r4, [r6, #14]
10002f50:	2c00      	cmp	r4, #0
10002f52:	d03e      	beq.n	10002fd2 <alarm_pool_add_alarm_at.constprop.0+0xaa>
10002f54:	0067      	lsls	r7, r4, #1
10002f56:	6833      	ldr	r3, [r6, #0]
10002f58:	193f      	adds	r7, r7, r4
10002f5a:	3f03      	subs	r7, #3
10002f5c:	19da      	adds	r2, r3, r7
10002f5e:	7853      	ldrb	r3, [r2, #1]
10002f60:	73b3      	strb	r3, [r6, #14]
10002f62:	2b00      	cmp	r3, #0
10002f64:	d100      	bne.n	10002f68 <alarm_pool_add_alarm_at.constprop.0+0x40>
10002f66:	73f3      	strb	r3, [r6, #15]
10002f68:	2300      	movs	r3, #0
10002f6a:	7093      	strb	r3, [r2, #2]
10002f6c:	7053      	strb	r3, [r2, #1]
10002f6e:	7013      	strb	r3, [r2, #0]
10002f70:	68a9      	ldr	r1, [r5, #8]
10002f72:	4a35      	ldr	r2, [pc, #212]	; (10003048 <alarm_pool_add_alarm_at.constprop.0+0x120>)
10002f74:	468c      	mov	ip, r1
10002f76:	4649      	mov	r1, r9
10002f78:	18a2      	adds	r2, r4, r2
10002f7a:	0112      	lsls	r2, r2, #4
10002f7c:	4462      	add	r2, ip
10002f7e:	6011      	str	r1, [r2, #0]
10002f80:	4651      	mov	r1, sl
10002f82:	6051      	str	r1, [r2, #4]
10002f84:	4931      	ldr	r1, [pc, #196]	; (1000304c <alarm_pool_add_alarm_at.constprop.0+0x124>)
10002f86:	60d3      	str	r3, [r2, #12]
10002f88:	6091      	str	r1, [r2, #8]
10002f8a:	6832      	ldr	r2, [r6, #0]
10002f8c:	19d2      	adds	r2, r2, r7
10002f8e:	7093      	strb	r3, [r2, #2]
10002f90:	7053      	strb	r3, [r2, #1]
10002f92:	7013      	strb	r3, [r2, #0]
10002f94:	7b73      	ldrb	r3, [r6, #13]
10002f96:	469b      	mov	fp, r3
10002f98:	2b00      	cmp	r3, #0
10002f9a:	d035      	beq.n	10003008 <alarm_pool_add_alarm_at.constprop.0+0xe0>
10002f9c:	0022      	movs	r2, r4
10002f9e:	0019      	movs	r1, r3
10002fa0:	68b0      	ldr	r0, [r6, #8]
10002fa2:	6873      	ldr	r3, [r6, #4]
10002fa4:	4798      	blx	r3
10002fa6:	6832      	ldr	r2, [r6, #0]
10002fa8:	2800      	cmp	r0, #0
10002faa:	d020      	beq.n	10002fee <alarm_pool_add_alarm_at.constprop.0+0xc6>
10002fac:	465b      	mov	r3, fp
10002fae:	4658      	mov	r0, fp
10002fb0:	005b      	lsls	r3, r3, #1
10002fb2:	445b      	add	r3, fp
10002fb4:	19d7      	adds	r7, r2, r7
10002fb6:	3b03      	subs	r3, #3
10002fb8:	70b8      	strb	r0, [r7, #2]
10002fba:	18d1      	adds	r1, r2, r3
10002fbc:	5cd3      	ldrb	r3, [r2, r3]
10002fbe:	2b00      	cmp	r3, #0
10002fc0:	d000      	beq.n	10002fc4 <alarm_pool_add_alarm_at.constprop.0+0x9c>
10002fc2:	707b      	strb	r3, [r7, #1]
10002fc4:	465b      	mov	r3, fp
10002fc6:	700c      	strb	r4, [r1, #0]
10002fc8:	7373      	strb	r3, [r6, #13]
10002fca:	455c      	cmp	r4, fp
10002fcc:	d01d      	beq.n	1000300a <alarm_pool_add_alarm_at.constprop.0+0xe2>
10002fce:	2600      	movs	r6, #0
10002fd0:	e026      	b.n	10003020 <alarm_pool_add_alarm_at.constprop.0+0xf8>
10002fd2:	686b      	ldr	r3, [r5, #4]
10002fd4:	f3bf 8f5f 	dmb	sy
10002fd8:	601c      	str	r4, [r3, #0]
10002fda:	f388 8810 	msr	PRIMASK, r8
10002fde:	2001      	movs	r0, #1
10002fe0:	4240      	negs	r0, r0
10002fe2:	bc3c      	pop	{r2, r3, r4, r5}
10002fe4:	4690      	mov	r8, r2
10002fe6:	4699      	mov	r9, r3
10002fe8:	46a2      	mov	sl, r4
10002fea:	46ab      	mov	fp, r5
10002fec:	bdf8      	pop	{r3, r4, r5, r6, r7, pc}
10002fee:	465b      	mov	r3, fp
10002ff0:	005b      	lsls	r3, r3, #1
10002ff2:	445b      	add	r3, fp
10002ff4:	3b03      	subs	r3, #3
10002ff6:	18d3      	adds	r3, r2, r3
10002ff8:	709c      	strb	r4, [r3, #2]
10002ffa:	19d1      	adds	r1, r2, r7
10002ffc:	5dd2      	ldrb	r2, [r2, r7]
10002ffe:	2a00      	cmp	r2, #0
10003000:	d000      	beq.n	10003004 <alarm_pool_add_alarm_at.constprop.0+0xdc>
10003002:	705a      	strb	r2, [r3, #1]
10003004:	465b      	mov	r3, fp
10003006:	700b      	strb	r3, [r1, #0]
10003008:	7374      	strb	r4, [r6, #13]
1000300a:	464a      	mov	r2, r9
1000300c:	4653      	mov	r3, sl
1000300e:	7d28      	ldrb	r0, [r5, #20]
10003010:	f000 faca 	bl	100035a8 <hardware_alarm_set_target>
10003014:	1e06      	subs	r6, r0, #0
10003016:	d0da      	beq.n	10002fce <alarm_pool_add_alarm_at.constprop.0+0xa6>
10003018:	0021      	movs	r1, r4
1000301a:	6828      	ldr	r0, [r5, #0]
1000301c:	f000 fd20 	bl	10003a60 <ph_remove_and_free_node>
10003020:	68eb      	ldr	r3, [r5, #12]
10003022:	686a      	ldr	r2, [r5, #4]
10003024:	191b      	adds	r3, r3, r4
10003026:	3b01      	subs	r3, #1
10003028:	781b      	ldrb	r3, [r3, #0]
1000302a:	f3bf 8f5f 	dmb	sy
1000302e:	2100      	movs	r1, #0
10003030:	6011      	str	r1, [r2, #0]
10003032:	f388 8810 	msr	PRIMASK, r8
10003036:	2000      	movs	r0, #0
10003038:	2e00      	cmp	r6, #0
1000303a:	d1d2      	bne.n	10002fe2 <alarm_pool_add_alarm_at.constprop.0+0xba>
1000303c:	0218      	lsls	r0, r3, #8
1000303e:	4320      	orrs	r0, r4
10003040:	e7cf      	b.n	10002fe2 <alarm_pool_add_alarm_at.constprop.0+0xba>
10003042:	46c0      	nop			; (mov r8, r8)
10003044:	200001e4 	.word	0x200001e4
10003048:	0fffffff 	.word	0x0fffffff
1000304c:	10002f21 	.word	0x10002f21

10003050 <add_alarm_under_lock>:
10003050:	b5f8      	push	{r3, r4, r5, r6, r7, lr}
10003052:	4657      	mov	r7, sl
10003054:	4645      	mov	r5, r8
10003056:	464e      	mov	r6, r9
10003058:	46de      	mov	lr, fp
1000305a:	b5e0      	push	{r5, r6, r7, lr}
1000305c:	4699      	mov	r9, r3
1000305e:	ab0c      	add	r3, sp, #48	; 0x30
10003060:	7819      	ldrb	r1, [r3, #0]
10003062:	ab0d      	add	r3, sp, #52	; 0x34
10003064:	781b      	ldrb	r3, [r3, #0]
10003066:	0005      	movs	r5, r0
10003068:	4690      	mov	r8, r2
1000306a:	469a      	mov	sl, r3
1000306c:	6807      	ldr	r7, [r0, #0]
1000306e:	2900      	cmp	r1, #0
10003070:	d112      	bne.n	10003098 <add_alarm_under_lock+0x48>
10003072:	7bbe      	ldrb	r6, [r7, #14]
10003074:	2e00      	cmp	r6, #0
10003076:	d045      	beq.n	10003104 <add_alarm_under_lock+0xb4>
10003078:	0074      	lsls	r4, r6, #1
1000307a:	683b      	ldr	r3, [r7, #0]
1000307c:	19a4      	adds	r4, r4, r6
1000307e:	3c03      	subs	r4, #3
10003080:	191b      	adds	r3, r3, r4
10003082:	785a      	ldrb	r2, [r3, #1]
10003084:	0031      	movs	r1, r6
10003086:	73ba      	strb	r2, [r7, #14]
10003088:	2a00      	cmp	r2, #0
1000308a:	d100      	bne.n	1000308e <add_alarm_under_lock+0x3e>
1000308c:	73fa      	strb	r2, [r7, #15]
1000308e:	2200      	movs	r2, #0
10003090:	709a      	strb	r2, [r3, #2]
10003092:	705a      	strb	r2, [r3, #1]
10003094:	701a      	strb	r2, [r3, #0]
10003096:	e003      	b.n	100030a0 <add_alarm_under_lock+0x50>
10003098:	000e      	movs	r6, r1
1000309a:	004c      	lsls	r4, r1, #1
1000309c:	1864      	adds	r4, r4, r1
1000309e:	3c03      	subs	r4, #3
100030a0:	4b2c      	ldr	r3, [pc, #176]	; (10003154 <add_alarm_under_lock+0x104>)
100030a2:	2200      	movs	r2, #0
100030a4:	469c      	mov	ip, r3
100030a6:	68ab      	ldr	r3, [r5, #8]
100030a8:	4461      	add	r1, ip
100030aa:	469c      	mov	ip, r3
100030ac:	4643      	mov	r3, r8
100030ae:	0109      	lsls	r1, r1, #4
100030b0:	4461      	add	r1, ip
100030b2:	600b      	str	r3, [r1, #0]
100030b4:	464b      	mov	r3, r9
100030b6:	604b      	str	r3, [r1, #4]
100030b8:	9b0a      	ldr	r3, [sp, #40]	; 0x28
100030ba:	608b      	str	r3, [r1, #8]
100030bc:	9b0b      	ldr	r3, [sp, #44]	; 0x2c
100030be:	60cb      	str	r3, [r1, #12]
100030c0:	683b      	ldr	r3, [r7, #0]
100030c2:	191b      	adds	r3, r3, r4
100030c4:	709a      	strb	r2, [r3, #2]
100030c6:	705a      	strb	r2, [r3, #1]
100030c8:	701a      	strb	r2, [r3, #0]
100030ca:	7b7b      	ldrb	r3, [r7, #13]
100030cc:	469b      	mov	fp, r3
100030ce:	2b00      	cmp	r3, #0
100030d0:	d02c      	beq.n	1000312c <add_alarm_under_lock+0xdc>
100030d2:	0032      	movs	r2, r6
100030d4:	4659      	mov	r1, fp
100030d6:	68b8      	ldr	r0, [r7, #8]
100030d8:	687b      	ldr	r3, [r7, #4]
100030da:	4798      	blx	r3
100030dc:	683a      	ldr	r2, [r7, #0]
100030de:	2800      	cmp	r0, #0
100030e0:	d017      	beq.n	10003112 <add_alarm_under_lock+0xc2>
100030e2:	465b      	mov	r3, fp
100030e4:	4658      	mov	r0, fp
100030e6:	005b      	lsls	r3, r3, #1
100030e8:	445b      	add	r3, fp
100030ea:	1914      	adds	r4, r2, r4
100030ec:	3b03      	subs	r3, #3
100030ee:	70a0      	strb	r0, [r4, #2]
100030f0:	18d1      	adds	r1, r2, r3
100030f2:	5cd3      	ldrb	r3, [r2, r3]
100030f4:	2b00      	cmp	r3, #0
100030f6:	d000      	beq.n	100030fa <add_alarm_under_lock+0xaa>
100030f8:	7063      	strb	r3, [r4, #1]
100030fa:	465b      	mov	r3, fp
100030fc:	700e      	strb	r6, [r1, #0]
100030fe:	737b      	strb	r3, [r7, #13]
10003100:	45b3      	cmp	fp, r6
10003102:	d014      	beq.n	1000312e <add_alarm_under_lock+0xde>
10003104:	0030      	movs	r0, r6
10003106:	bc3c      	pop	{r2, r3, r4, r5}
10003108:	4690      	mov	r8, r2
1000310a:	4699      	mov	r9, r3
1000310c:	46a2      	mov	sl, r4
1000310e:	46ab      	mov	fp, r5
10003110:	bdf8      	pop	{r3, r4, r5, r6, r7, pc}
10003112:	465b      	mov	r3, fp
10003114:	005b      	lsls	r3, r3, #1
10003116:	445b      	add	r3, fp
10003118:	3b03      	subs	r3, #3
1000311a:	18d3      	adds	r3, r2, r3
1000311c:	709e      	strb	r6, [r3, #2]
1000311e:	1911      	adds	r1, r2, r4
10003120:	5d12      	ldrb	r2, [r2, r4]
10003122:	2a00      	cmp	r2, #0
10003124:	d000      	beq.n	10003128 <add_alarm_under_lock+0xd8>
10003126:	705a      	strb	r2, [r3, #1]
10003128:	465b      	mov	r3, fp
1000312a:	700b      	strb	r3, [r1, #0]
1000312c:	737e      	strb	r6, [r7, #13]
1000312e:	4642      	mov	r2, r8
10003130:	464b      	mov	r3, r9
10003132:	7d28      	ldrb	r0, [r5, #20]
10003134:	f000 fa38 	bl	100035a8 <hardware_alarm_set_target>
10003138:	1e04      	subs	r4, r0, #0
1000313a:	d006      	beq.n	1000314a <add_alarm_under_lock+0xfa>
1000313c:	4653      	mov	r3, sl
1000313e:	2b00      	cmp	r3, #0
10003140:	d103      	bne.n	1000314a <add_alarm_under_lock+0xfa>
10003142:	0031      	movs	r1, r6
10003144:	6828      	ldr	r0, [r5, #0]
10003146:	f000 fc8b 	bl	10003a60 <ph_remove_and_free_node>
1000314a:	9b0e      	ldr	r3, [sp, #56]	; 0x38
1000314c:	2b00      	cmp	r3, #0
1000314e:	d0d9      	beq.n	10003104 <add_alarm_under_lock+0xb4>
10003150:	701c      	strb	r4, [r3, #0]
10003152:	e7d7      	b.n	10003104 <add_alarm_under_lock+0xb4>
10003154:	0fffffff 	.word	0x0fffffff

10003158 <alarm_pool_alarm_callback>:
10003158:	b5f0      	push	{r4, r5, r6, r7, lr}
1000315a:	46de      	mov	lr, fp
1000315c:	464e      	mov	r6, r9
1000315e:	4657      	mov	r7, sl
10003160:	4645      	mov	r5, r8
10003162:	2300      	movs	r3, #0
10003164:	b5e0      	push	{r5, r6, r7, lr}
10003166:	b08d      	sub	sp, #52	; 0x34
10003168:	930a      	str	r3, [sp, #40]	; 0x28
1000316a:	4b6b      	ldr	r3, [pc, #428]	; (10003318 <alarm_pool_alarm_callback+0x1c0>)
1000316c:	0082      	lsls	r2, r0, #2
1000316e:	58d3      	ldr	r3, [r2, r3]
10003170:	900b      	str	r0, [sp, #44]	; 0x2c
10003172:	4699      	mov	r9, r3
10003174:	2300      	movs	r3, #0
10003176:	469b      	mov	fp, r3
10003178:	464b      	mov	r3, r9
1000317a:	9307      	str	r3, [sp, #28]
1000317c:	f000 f9b4 	bl	100034e8 <time_us_64>
10003180:	9c07      	ldr	r4, [sp, #28]
10003182:	0006      	movs	r6, r0
10003184:	000f      	movs	r7, r1
10003186:	6862      	ldr	r2, [r4, #4]
10003188:	f3ef 8510 	mrs	r5, PRIMASK
1000318c:	b672      	cpsid	i
1000318e:	6813      	ldr	r3, [r2, #0]
10003190:	2b00      	cmp	r3, #0
10003192:	d0fc      	beq.n	1000318e <alarm_pool_alarm_callback+0x36>
10003194:	0022      	movs	r2, r4
10003196:	9407      	str	r4, [sp, #28]
10003198:	f3bf 8f5f 	dmb	sy
1000319c:	6824      	ldr	r4, [r4, #0]
1000319e:	7b63      	ldrb	r3, [r4, #13]
100031a0:	4699      	mov	r9, r3
100031a2:	2b00      	cmp	r3, #0
100031a4:	d067      	beq.n	10003276 <alarm_pool_alarm_callback+0x11e>
100031a6:	6892      	ldr	r2, [r2, #8]
100031a8:	4b5c      	ldr	r3, [pc, #368]	; (1000331c <alarm_pool_alarm_callback+0x1c4>)
100031aa:	4690      	mov	r8, r2
100031ac:	444b      	add	r3, r9
100031ae:	011b      	lsls	r3, r3, #4
100031b0:	4498      	add	r8, r3
100031b2:	4643      	mov	r3, r8
100031b4:	681a      	ldr	r2, [r3, #0]
100031b6:	685b      	ldr	r3, [r3, #4]
100031b8:	0010      	movs	r0, r2
100031ba:	0019      	movs	r1, r3
100031bc:	1b80      	subs	r0, r0, r6
100031be:	41b9      	sbcs	r1, r7
100031c0:	2900      	cmp	r1, #0
100031c2:	dd5f      	ble.n	10003284 <alarm_pool_alarm_callback+0x12c>
100031c4:	980b      	ldr	r0, [sp, #44]	; 0x2c
100031c6:	f000 f9ef 	bl	100035a8 <hardware_alarm_set_target>
100031ca:	2300      	movs	r3, #0
100031cc:	2600      	movs	r6, #0
100031ce:	4698      	mov	r8, r3
100031d0:	2700      	movs	r7, #0
100031d2:	469a      	mov	sl, r3
100031d4:	9c07      	ldr	r4, [sp, #28]
100031d6:	6863      	ldr	r3, [r4, #4]
100031d8:	f3bf 8f5f 	dmb	sy
100031dc:	465a      	mov	r2, fp
100031de:	601a      	str	r2, [r3, #0]
100031e0:	f385 8810 	msr	PRIMASK, r5
100031e4:	4653      	mov	r3, sl
100031e6:	2b00      	cmp	r3, #0
100031e8:	d108      	bne.n	100031fc <alarm_pool_alarm_callback+0xa4>
100031ea:	2800      	cmp	r0, #0
100031ec:	d1c6      	bne.n	1000317c <alarm_pool_alarm_callback+0x24>
100031ee:	b00d      	add	sp, #52	; 0x34
100031f0:	bc3c      	pop	{r2, r3, r4, r5}
100031f2:	4690      	mov	r8, r2
100031f4:	4699      	mov	r9, r3
100031f6:	46a2      	mov	sl, r4
100031f8:	46ab      	mov	fp, r5
100031fa:	bdf0      	pop	{r4, r5, r6, r7, pc}
100031fc:	9b0a      	ldr	r3, [sp, #40]	; 0x28
100031fe:	4641      	mov	r1, r8
10003200:	0218      	lsls	r0, r3, #8
10003202:	464b      	mov	r3, r9
10003204:	4318      	orrs	r0, r3
10003206:	47d0      	blx	sl
10003208:	9008      	str	r0, [sp, #32]
1000320a:	9109      	str	r1, [sp, #36]	; 0x24
1000320c:	6862      	ldr	r2, [r4, #4]
1000320e:	f3ef 8510 	mrs	r5, PRIMASK
10003212:	b672      	cpsid	i
10003214:	6813      	ldr	r3, [r2, #0]
10003216:	2b00      	cmp	r3, #0
10003218:	d0fc      	beq.n	10003214 <alarm_pool_alarm_callback+0xbc>
1000321a:	9407      	str	r4, [sp, #28]
1000321c:	f3bf 8f5f 	dmb	sy
10003220:	9908      	ldr	r1, [sp, #32]
10003222:	9a09      	ldr	r2, [sp, #36]	; 0x24
10003224:	2a00      	cmp	r2, #0
10003226:	db48      	blt.n	100032ba <alarm_pool_alarm_callback+0x162>
10003228:	4311      	orrs	r1, r2
1000322a:	d003      	beq.n	10003234 <alarm_pool_alarm_callback+0xdc>
1000322c:	9b07      	ldr	r3, [sp, #28]
1000322e:	691b      	ldr	r3, [r3, #16]
10003230:	2b00      	cmp	r3, #0
10003232:	d15d      	bne.n	100032f0 <alarm_pool_alarm_callback+0x198>
10003234:	9b07      	ldr	r3, [sp, #28]
10003236:	681b      	ldr	r3, [r3, #0]
10003238:	7bda      	ldrb	r2, [r3, #15]
1000323a:	2a00      	cmp	r2, #0
1000323c:	d007      	beq.n	1000324e <alarm_pool_alarm_callback+0xf6>
1000323e:	0051      	lsls	r1, r2, #1
10003240:	188a      	adds	r2, r1, r2
10003242:	6819      	ldr	r1, [r3, #0]
10003244:	468c      	mov	ip, r1
10003246:	4649      	mov	r1, r9
10003248:	4462      	add	r2, ip
1000324a:	3a03      	subs	r2, #3
1000324c:	7051      	strb	r1, [r2, #1]
1000324e:	464a      	mov	r2, r9
10003250:	73da      	strb	r2, [r3, #15]
10003252:	464b      	mov	r3, r9
10003254:	9a07      	ldr	r2, [sp, #28]
10003256:	3b01      	subs	r3, #1
10003258:	68d1      	ldr	r1, [r2, #12]
1000325a:	5cca      	ldrb	r2, [r1, r3]
1000325c:	3201      	adds	r2, #1
1000325e:	54ca      	strb	r2, [r1, r3]
10003260:	465b      	mov	r3, fp
10003262:	9a07      	ldr	r2, [sp, #28]
10003264:	6113      	str	r3, [r2, #16]
10003266:	6853      	ldr	r3, [r2, #4]
10003268:	f3bf 8f5f 	dmb	sy
1000326c:	465a      	mov	r2, fp
1000326e:	601a      	str	r2, [r3, #0]
10003270:	f385 8810 	msr	PRIMASK, r5
10003274:	e782      	b.n	1000317c <alarm_pool_alarm_callback+0x24>
10003276:	2300      	movs	r3, #0
10003278:	2600      	movs	r6, #0
1000327a:	4698      	mov	r8, r3
1000327c:	2700      	movs	r7, #0
1000327e:	469a      	mov	sl, r3
10003280:	2000      	movs	r0, #0
10003282:	e7a7      	b.n	100031d4 <alarm_pool_alarm_callback+0x7c>
10003284:	2900      	cmp	r1, #0
10003286:	d101      	bne.n	1000328c <alarm_pool_alarm_callback+0x134>
10003288:	2800      	cmp	r0, #0
1000328a:	d19b      	bne.n	100031c4 <alarm_pool_alarm_callback+0x6c>
1000328c:	2100      	movs	r1, #0
1000328e:	0020      	movs	r0, r4
10003290:	f000 fb48 	bl	10003924 <ph_remove_head>
10003294:	4643      	mov	r3, r8
10003296:	681e      	ldr	r6, [r3, #0]
10003298:	685f      	ldr	r7, [r3, #4]
1000329a:	689b      	ldr	r3, [r3, #8]
1000329c:	9a07      	ldr	r2, [sp, #28]
1000329e:	469a      	mov	sl, r3
100032a0:	4643      	mov	r3, r8
100032a2:	68db      	ldr	r3, [r3, #12]
100032a4:	4698      	mov	r8, r3
100032a6:	68d3      	ldr	r3, [r2, #12]
100032a8:	444b      	add	r3, r9
100032aa:	3b01      	subs	r3, #1
100032ac:	781b      	ldrb	r3, [r3, #0]
100032ae:	930a      	str	r3, [sp, #40]	; 0x28
100032b0:	021b      	lsls	r3, r3, #8
100032b2:	4303      	orrs	r3, r0
100032b4:	6113      	str	r3, [r2, #16]
100032b6:	2000      	movs	r0, #0
100032b8:	e78c      	b.n	100031d4 <alarm_pool_alarm_callback+0x7c>
100032ba:	6923      	ldr	r3, [r4, #16]
100032bc:	2b00      	cmp	r3, #0
100032be:	d0b9      	beq.n	10003234 <alarm_pool_alarm_callback+0xdc>
100032c0:	0033      	movs	r3, r6
100032c2:	003c      	movs	r4, r7
100032c4:	1a5b      	subs	r3, r3, r1
100032c6:	4194      	sbcs	r4, r2
100032c8:	001a      	movs	r2, r3
100032ca:	0023      	movs	r3, r4
100032cc:	42a7      	cmp	r7, r4
100032ce:	d819      	bhi.n	10003304 <alarm_pool_alarm_callback+0x1ac>
100032d0:	429f      	cmp	r7, r3
100032d2:	d01b      	beq.n	1000330c <alarm_pool_alarm_callback+0x1b4>
100032d4:	4659      	mov	r1, fp
100032d6:	9104      	str	r1, [sp, #16]
100032d8:	2101      	movs	r1, #1
100032da:	9103      	str	r1, [sp, #12]
100032dc:	4649      	mov	r1, r9
100032de:	9102      	str	r1, [sp, #8]
100032e0:	4641      	mov	r1, r8
100032e2:	9101      	str	r1, [sp, #4]
100032e4:	4651      	mov	r1, sl
100032e6:	9807      	ldr	r0, [sp, #28]
100032e8:	9100      	str	r1, [sp, #0]
100032ea:	f7ff feb1 	bl	10003050 <add_alarm_under_lock>
100032ee:	e7b7      	b.n	10003260 <alarm_pool_alarm_callback+0x108>
100032f0:	f000 f8fa 	bl	100034e8 <time_us_64>
100032f4:	9a08      	ldr	r2, [sp, #32]
100032f6:	9b09      	ldr	r3, [sp, #36]	; 0x24
100032f8:	0006      	movs	r6, r0
100032fa:	000f      	movs	r7, r1
100032fc:	1992      	adds	r2, r2, r6
100032fe:	417b      	adcs	r3, r7
10003300:	4299      	cmp	r1, r3
10003302:	d9e5      	bls.n	100032d0 <alarm_pool_alarm_callback+0x178>
10003304:	2201      	movs	r2, #1
10003306:	4252      	negs	r2, r2
10003308:	17d3      	asrs	r3, r2, #31
1000330a:	e7e3      	b.n	100032d4 <alarm_pool_alarm_callback+0x17c>
1000330c:	4296      	cmp	r6, r2
1000330e:	d9e1      	bls.n	100032d4 <alarm_pool_alarm_callback+0x17c>
10003310:	2201      	movs	r2, #1
10003312:	4252      	negs	r2, r2
10003314:	17d3      	asrs	r3, r2, #31
10003316:	e7dd      	b.n	100032d4 <alarm_pool_alarm_callback+0x17c>
10003318:	20000898 	.word	0x20000898
1000331c:	0fffffff 	.word	0x0fffffff

10003320 <alarm_pool_init_default>:
10003320:	b510      	push	{r4, lr}
10003322:	4c10      	ldr	r4, [pc, #64]	; (10003364 <alarm_pool_init_default+0x44>)
10003324:	6863      	ldr	r3, [r4, #4]
10003326:	2b00      	cmp	r3, #0
10003328:	d000      	beq.n	1000332c <alarm_pool_init_default+0xc>
1000332a:	bd10      	pop	{r4, pc}
1000332c:	0023      	movs	r3, r4
1000332e:	4a0e      	ldr	r2, [pc, #56]	; (10003368 <alarm_pool_init_default+0x48>)
10003330:	2110      	movs	r1, #16
10003332:	6820      	ldr	r0, [r4, #0]
10003334:	f000 fa14 	bl	10003760 <ph_post_alloc_init>
10003338:	2003      	movs	r0, #3
1000333a:	f000 f8c9 	bl	100034d0 <hardware_alarm_claim>
1000333e:	2003      	movs	r0, #3
10003340:	f000 f9a4 	bl	1000368c <hardware_alarm_cancel>
10003344:	2003      	movs	r0, #3
10003346:	4909      	ldr	r1, [pc, #36]	; (1000336c <alarm_pool_init_default+0x4c>)
10003348:	f000 f8e8 	bl	1000351c <hardware_alarm_set_callback>
1000334c:	f7ff fdba 	bl	10002ec4 <next_striped_spin_lock_num>
10003350:	4b07      	ldr	r3, [pc, #28]	; (10003370 <alarm_pool_init_default+0x50>)
10003352:	469c      	mov	ip, r3
10003354:	2303      	movs	r3, #3
10003356:	4460      	add	r0, ip
10003358:	7523      	strb	r3, [r4, #20]
1000335a:	4b06      	ldr	r3, [pc, #24]	; (10003374 <alarm_pool_init_default+0x54>)
1000335c:	0080      	lsls	r0, r0, #2
1000335e:	6060      	str	r0, [r4, #4]
10003360:	60dc      	str	r4, [r3, #12]
10003362:	e7e2      	b.n	1000332a <alarm_pool_init_default+0xa>
10003364:	200001e4 	.word	0x200001e4
10003368:	10002eed 	.word	0x10002eed
1000336c:	10003159 	.word	0x10003159
10003370:	34000040 	.word	0x34000040
10003374:	20000898 	.word	0x20000898

10003378 <sleep_ms>:
10003378:	b5f8      	push	{r3, r4, r5, r6, r7, lr}
1000337a:	0004      	movs	r4, r0
1000337c:	f000 f8b4 	bl	100034e8 <time_us_64>
10003380:	22fa      	movs	r2, #250	; 0xfa
10003382:	0006      	movs	r6, r0
10003384:	000f      	movs	r7, r1
10003386:	0020      	movs	r0, r4
10003388:	2300      	movs	r3, #0
1000338a:	2100      	movs	r1, #0
1000338c:	0092      	lsls	r2, r2, #2
1000338e:	f003 fd99 	bl	10006ec4 <__wrap___aeabi_lmul>
10003392:	1980      	adds	r0, r0, r6
10003394:	4179      	adcs	r1, r7
10003396:	0004      	movs	r4, r0
10003398:	000d      	movs	r5, r1
1000339a:	428f      	cmp	r7, r1
1000339c:	d82d      	bhi.n	100033fa <sleep_ms+0x82>
1000339e:	d02a      	beq.n	100033f6 <sleep_ms+0x7e>
100033a0:	2606      	movs	r6, #6
100033a2:	4276      	negs	r6, r6
100033a4:	17f7      	asrs	r7, r6, #31
100033a6:	1936      	adds	r6, r6, r4
100033a8:	416f      	adcs	r7, r5
100033aa:	42af      	cmp	r7, r5
100033ac:	d92c      	bls.n	10003408 <sleep_ms+0x90>
100033ae:	2600      	movs	r6, #0
100033b0:	2700      	movs	r7, #0
100033b2:	f000 f899 	bl	100034e8 <time_us_64>
100033b6:	0032      	movs	r2, r6
100033b8:	003b      	movs	r3, r7
100033ba:	1a12      	subs	r2, r2, r0
100033bc:	418b      	sbcs	r3, r1
100033be:	2b00      	cmp	r3, #0
100033c0:	dc07      	bgt.n	100033d2 <sleep_ms+0x5a>
100033c2:	d004      	beq.n	100033ce <sleep_ms+0x56>
100033c4:	0029      	movs	r1, r5
100033c6:	0020      	movs	r0, r4
100033c8:	f000 f898 	bl	100034fc <busy_wait_until>
100033cc:	bdf8      	pop	{r3, r4, r5, r6, r7, pc}
100033ce:	2a00      	cmp	r2, #0
100033d0:	d0f8      	beq.n	100033c4 <sleep_ms+0x4c>
100033d2:	0030      	movs	r0, r6
100033d4:	0039      	movs	r1, r7
100033d6:	f7ff fda7 	bl	10002f28 <alarm_pool_add_alarm_at.constprop.0>
100033da:	2800      	cmp	r0, #0
100033dc:	dbf2      	blt.n	100033c4 <sleep_ms+0x4c>
100033de:	0038      	movs	r0, r7
100033e0:	4a0c      	ldr	r2, [pc, #48]	; (10003414 <sleep_ms+0x9c>)
100033e2:	6a53      	ldr	r3, [r2, #36]	; 0x24
100033e4:	4298      	cmp	r0, r3
100033e6:	d804      	bhi.n	100033f2 <sleep_ms+0x7a>
100033e8:	6a91      	ldr	r1, [r2, #40]	; 0x28
100033ea:	428e      	cmp	r6, r1
100033ec:	d9ea      	bls.n	100033c4 <sleep_ms+0x4c>
100033ee:	4298      	cmp	r0, r3
100033f0:	d1e8      	bne.n	100033c4 <sleep_ms+0x4c>
100033f2:	bf20      	wfe
100033f4:	e7f5      	b.n	100033e2 <sleep_ms+0x6a>
100033f6:	4286      	cmp	r6, r0
100033f8:	d9d2      	bls.n	100033a0 <sleep_ms+0x28>
100033fa:	2401      	movs	r4, #1
100033fc:	4264      	negs	r4, r4
100033fe:	17e5      	asrs	r5, r4, #31
10003400:	2607      	movs	r6, #7
10003402:	4276      	negs	r6, r6
10003404:	17f7      	asrs	r7, r6, #31
10003406:	e7d4      	b.n	100033b2 <sleep_ms+0x3a>
10003408:	42af      	cmp	r7, r5
1000340a:	d1d2      	bne.n	100033b2 <sleep_ms+0x3a>
1000340c:	42a6      	cmp	r6, r4
1000340e:	d8ce      	bhi.n	100033ae <sleep_ms+0x36>
10003410:	e7cf      	b.n	100033b2 <sleep_ms+0x3a>
10003412:	46c0      	nop			; (mov r8, r8)
10003414:	40054000 	.word	0x40054000

10003418 <hardware_alarm_irq_handler>:
10003418:	b5f0      	push	{r4, r5, r6, r7, lr}
1000341a:	46d6      	mov	lr, sl
1000341c:	464f      	mov	r7, r9
1000341e:	4646      	mov	r6, r8
10003420:	b5c0      	push	{r6, r7, lr}
10003422:	f3ef 8305 	mrs	r3, IPSR
10003426:	223f      	movs	r2, #63	; 0x3f
10003428:	4013      	ands	r3, r2
1000342a:	0018      	movs	r0, r3
1000342c:	3810      	subs	r0, #16
1000342e:	f3ef 8c10 	mrs	ip, PRIMASK
10003432:	b672      	cpsid	i
10003434:	4d20      	ldr	r5, [pc, #128]	; (100034b8 <hardware_alarm_irq_handler+0xa0>)
10003436:	682a      	ldr	r2, [r5, #0]
10003438:	2a00      	cmp	r2, #0
1000343a:	d0fc      	beq.n	10003436 <hardware_alarm_irq_handler+0x1e>
1000343c:	f3bf 8f5f 	dmb	sy
10003440:	2201      	movs	r2, #1
10003442:	0011      	movs	r1, r2
10003444:	4081      	lsls	r1, r0
10003446:	4c1d      	ldr	r4, [pc, #116]	; (100034bc <hardware_alarm_irq_handler+0xa4>)
10003448:	4688      	mov	r8, r1
1000344a:	6361      	str	r1, [r4, #52]	; 0x34
1000344c:	491c      	ldr	r1, [pc, #112]	; (100034c0 <hardware_alarm_irq_handler+0xa8>)
1000344e:	0017      	movs	r7, r2
10003450:	780e      	ldrb	r6, [r1, #0]
10003452:	468a      	mov	sl, r1
10003454:	0031      	movs	r1, r6
10003456:	40c1      	lsrs	r1, r0
10003458:	400f      	ands	r7, r1
1000345a:	420a      	tst	r2, r1
1000345c:	d015      	beq.n	1000348a <hardware_alarm_irq_handler+0x72>
1000345e:	4919      	ldr	r1, [pc, #100]	; (100034c4 <hardware_alarm_irq_handler+0xac>)
10003460:	0082      	lsls	r2, r0, #2
10003462:	6a64      	ldr	r4, [r4, #36]	; 0x24
10003464:	5851      	ldr	r1, [r2, r1]
10003466:	428c      	cmp	r4, r1
10003468:	d319      	bcc.n	1000349e <hardware_alarm_irq_handler+0x86>
1000346a:	4b17      	ldr	r3, [pc, #92]	; (100034c8 <hardware_alarm_irq_handler+0xb0>)
1000346c:	58d2      	ldr	r2, [r2, r3]
1000346e:	4643      	mov	r3, r8
10003470:	439e      	bics	r6, r3
10003472:	4653      	mov	r3, sl
10003474:	701e      	strb	r6, [r3, #0]
10003476:	f3bf 8f5f 	dmb	sy
1000347a:	2300      	movs	r3, #0
1000347c:	602b      	str	r3, [r5, #0]
1000347e:	f38c 8810 	msr	PRIMASK, ip
10003482:	2a00      	cmp	r2, #0
10003484:	d006      	beq.n	10003494 <hardware_alarm_irq_handler+0x7c>
10003486:	4790      	blx	r2
10003488:	e004      	b.n	10003494 <hardware_alarm_irq_handler+0x7c>
1000348a:	f3bf 8f5f 	dmb	sy
1000348e:	602f      	str	r7, [r5, #0]
10003490:	f38c 8810 	msr	PRIMASK, ip
10003494:	bc1c      	pop	{r2, r3, r4}
10003496:	4690      	mov	r8, r2
10003498:	4699      	mov	r9, r3
1000349a:	46a2      	mov	sl, r4
1000349c:	bdf0      	pop	{r4, r5, r6, r7, pc}
1000349e:	4a0b      	ldr	r2, [pc, #44]	; (100034cc <hardware_alarm_irq_handler+0xb4>)
100034a0:	009b      	lsls	r3, r3, #2
100034a2:	4690      	mov	r8, r2
100034a4:	4443      	add	r3, r8
100034a6:	681a      	ldr	r2, [r3, #0]
100034a8:	601a      	str	r2, [r3, #0]
100034aa:	f3bf 8f5f 	dmb	sy
100034ae:	2300      	movs	r3, #0
100034b0:	602b      	str	r3, [r5, #0]
100034b2:	f38c 8810 	msr	PRIMASK, ip
100034b6:	e7ed      	b.n	10003494 <hardware_alarm_irq_handler+0x7c>
100034b8:	d0000128 	.word	0xd0000128
100034bc:	40054000 	.word	0x40054000
100034c0:	200008ca 	.word	0x200008ca
100034c4:	200008b4 	.word	0x200008b4
100034c8:	200007f4 	.word	0x200007f4
100034cc:	40053fd0 	.word	0x40053fd0

100034d0 <hardware_alarm_claim>:
100034d0:	b510      	push	{r4, lr}
100034d2:	0001      	movs	r1, r0
100034d4:	4a02      	ldr	r2, [pc, #8]	; (100034e0 <hardware_alarm_claim+0x10>)
100034d6:	4803      	ldr	r0, [pc, #12]	; (100034e4 <hardware_alarm_claim+0x14>)
100034d8:	f7ff fcb6 	bl	10002e48 <hw_claim_or_assert>
100034dc:	bd10      	pop	{r4, pc}
100034de:	46c0      	nop			; (mov r8, r8)
100034e0:	10007c84 	.word	0x10007c84
100034e4:	200008c8 	.word	0x200008c8

100034e8 <time_us_64>:
100034e8:	4b03      	ldr	r3, [pc, #12]	; (100034f8 <time_us_64+0x10>)
100034ea:	6a59      	ldr	r1, [r3, #36]	; 0x24
100034ec:	000a      	movs	r2, r1
100034ee:	6a98      	ldr	r0, [r3, #40]	; 0x28
100034f0:	6a59      	ldr	r1, [r3, #36]	; 0x24
100034f2:	428a      	cmp	r2, r1
100034f4:	d1fa      	bne.n	100034ec <time_us_64+0x4>
100034f6:	4770      	bx	lr
100034f8:	40054000 	.word	0x40054000

100034fc <busy_wait_until>:
100034fc:	4a06      	ldr	r2, [pc, #24]	; (10003518 <busy_wait_until+0x1c>)
100034fe:	6a53      	ldr	r3, [r2, #36]	; 0x24
10003500:	4299      	cmp	r1, r3
10003502:	d8fc      	bhi.n	100034fe <busy_wait_until+0x2>
10003504:	d107      	bne.n	10003516 <busy_wait_until+0x1a>
10003506:	4b04      	ldr	r3, [pc, #16]	; (10003518 <busy_wait_until+0x1c>)
10003508:	e002      	b.n	10003510 <busy_wait_until+0x14>
1000350a:	6a5a      	ldr	r2, [r3, #36]	; 0x24
1000350c:	4291      	cmp	r1, r2
1000350e:	d102      	bne.n	10003516 <busy_wait_until+0x1a>
10003510:	6a9a      	ldr	r2, [r3, #40]	; 0x28
10003512:	4282      	cmp	r2, r0
10003514:	d3f9      	bcc.n	1000350a <busy_wait_until+0xe>
10003516:	4770      	bx	lr
10003518:	40054000 	.word	0x40054000

1000351c <hardware_alarm_set_callback>:
1000351c:	b570      	push	{r4, r5, r6, lr}
1000351e:	0004      	movs	r4, r0
10003520:	000d      	movs	r5, r1
10003522:	f3ef 8610 	mrs	r6, PRIMASK
10003526:	b672      	cpsid	i
10003528:	4a1a      	ldr	r2, [pc, #104]	; (10003594 <hardware_alarm_set_callback+0x78>)
1000352a:	6813      	ldr	r3, [r2, #0]
1000352c:	2b00      	cmp	r3, #0
1000352e:	d0fc      	beq.n	1000352a <hardware_alarm_set_callback+0xe>
10003530:	f3bf 8f5f 	dmb	sy
10003534:	2d00      	cmp	r5, #0
10003536:	d01b      	beq.n	10003570 <hardware_alarm_set_callback+0x54>
10003538:	0020      	movs	r0, r4
1000353a:	f000 fd33 	bl	10003fa4 <irq_get_vtable_handler>
1000353e:	4916      	ldr	r1, [pc, #88]	; (10003598 <hardware_alarm_set_callback+0x7c>)
10003540:	4281      	cmp	r1, r0
10003542:	d00a      	beq.n	1000355a <hardware_alarm_set_callback+0x3e>
10003544:	0020      	movs	r0, r4
10003546:	f000 fd35 	bl	10003fb4 <irq_set_exclusive_handler>
1000354a:	2101      	movs	r1, #1
1000354c:	0020      	movs	r0, r4
1000354e:	f000 fd17 	bl	10003f80 <irq_set_enabled>
10003552:	2301      	movs	r3, #1
10003554:	40a3      	lsls	r3, r4
10003556:	4a11      	ldr	r2, [pc, #68]	; (1000359c <hardware_alarm_set_callback+0x80>)
10003558:	6013      	str	r3, [r2, #0]
1000355a:	4b11      	ldr	r3, [pc, #68]	; (100035a0 <hardware_alarm_set_callback+0x84>)
1000355c:	00a4      	lsls	r4, r4, #2
1000355e:	50e5      	str	r5, [r4, r3]
10003560:	f3bf 8f5f 	dmb	sy
10003564:	2200      	movs	r2, #0
10003566:	4b0b      	ldr	r3, [pc, #44]	; (10003594 <hardware_alarm_set_callback+0x78>)
10003568:	601a      	str	r2, [r3, #0]
1000356a:	f386 8810 	msr	PRIMASK, r6
1000356e:	bd70      	pop	{r4, r5, r6, pc}
10003570:	4b0b      	ldr	r3, [pc, #44]	; (100035a0 <hardware_alarm_set_callback+0x84>)
10003572:	00a2      	lsls	r2, r4, #2
10003574:	50d5      	str	r5, [r2, r3]
10003576:	2201      	movs	r2, #1
10003578:	40a2      	lsls	r2, r4
1000357a:	490a      	ldr	r1, [pc, #40]	; (100035a4 <hardware_alarm_set_callback+0x88>)
1000357c:	0020      	movs	r0, r4
1000357e:	780b      	ldrb	r3, [r1, #0]
10003580:	4393      	bics	r3, r2
10003582:	700b      	strb	r3, [r1, #0]
10003584:	4904      	ldr	r1, [pc, #16]	; (10003598 <hardware_alarm_set_callback+0x7c>)
10003586:	f000 fd3f 	bl	10004008 <irq_remove_handler>
1000358a:	2100      	movs	r1, #0
1000358c:	0020      	movs	r0, r4
1000358e:	f000 fcf7 	bl	10003f80 <irq_set_enabled>
10003592:	e7e5      	b.n	10003560 <hardware_alarm_set_callback+0x44>
10003594:	d0000128 	.word	0xd0000128
10003598:	10003419 	.word	0x10003419
1000359c:	40056038 	.word	0x40056038
100035a0:	200007f4 	.word	0x200007f4
100035a4:	200008ca 	.word	0x200008ca

100035a8 <hardware_alarm_set_target>:
100035a8:	b5f0      	push	{r4, r5, r6, r7, lr}
100035aa:	464f      	mov	r7, r9
100035ac:	46d6      	mov	lr, sl
100035ae:	4646      	mov	r6, r8
100035b0:	b5c0      	push	{r6, r7, lr}
100035b2:	0007      	movs	r7, r0
100035b4:	4c30      	ldr	r4, [pc, #192]	; (10003678 <hardware_alarm_set_target+0xd0>)
100035b6:	6a61      	ldr	r1, [r4, #36]	; 0x24
100035b8:	000d      	movs	r5, r1
100035ba:	6aa6      	ldr	r6, [r4, #40]	; 0x28
100035bc:	6a61      	ldr	r1, [r4, #36]	; 0x24
100035be:	42a9      	cmp	r1, r5
100035c0:	d1fa      	bne.n	100035b8 <hardware_alarm_set_target+0x10>
100035c2:	428b      	cmp	r3, r1
100035c4:	d808      	bhi.n	100035d8 <hardware_alarm_set_target+0x30>
100035c6:	d005      	beq.n	100035d4 <hardware_alarm_set_target+0x2c>
100035c8:	2001      	movs	r0, #1
100035ca:	bc1c      	pop	{r2, r3, r4}
100035cc:	4690      	mov	r8, r2
100035ce:	4699      	mov	r9, r3
100035d0:	46a2      	mov	sl, r4
100035d2:	bdf0      	pop	{r4, r5, r6, r7, pc}
100035d4:	42b2      	cmp	r2, r6
100035d6:	d9f7      	bls.n	100035c8 <hardware_alarm_set_target+0x20>
100035d8:	f3ef 8910 	mrs	r9, PRIMASK
100035dc:	b672      	cpsid	i
100035de:	4827      	ldr	r0, [pc, #156]	; (1000367c <hardware_alarm_set_target+0xd4>)
100035e0:	6801      	ldr	r1, [r0, #0]
100035e2:	2900      	cmp	r1, #0
100035e4:	d0fc      	beq.n	100035e0 <hardware_alarm_set_target+0x38>
100035e6:	f3bf 8f5f 	dmb	sy
100035ea:	2501      	movs	r5, #1
100035ec:	4924      	ldr	r1, [pc, #144]	; (10003680 <hardware_alarm_set_target+0xd8>)
100035ee:	40bd      	lsls	r5, r7
100035f0:	468c      	mov	ip, r1
100035f2:	7809      	ldrb	r1, [r1, #0]
100035f4:	4c20      	ldr	r4, [pc, #128]	; (10003678 <hardware_alarm_set_target+0xd0>)
100035f6:	000e      	movs	r6, r1
100035f8:	432e      	orrs	r6, r5
100035fa:	4688      	mov	r8, r1
100035fc:	b2f1      	uxtb	r1, r6
100035fe:	468a      	mov	sl, r1
10003600:	4661      	mov	r1, ip
10003602:	4650      	mov	r0, sl
10003604:	7008      	strb	r0, [r1, #0]
10003606:	1d39      	adds	r1, r7, #4
10003608:	481e      	ldr	r0, [pc, #120]	; (10003684 <hardware_alarm_set_target+0xdc>)
1000360a:	0089      	lsls	r1, r1, #2
1000360c:	6365      	str	r5, [r4, #52]	; 0x34
1000360e:	510a      	str	r2, [r1, r4]
10003610:	00b9      	lsls	r1, r7, #2
10003612:	500b      	str	r3, [r1, r0]
10003614:	6a21      	ldr	r1, [r4, #32]
10003616:	2000      	movs	r0, #0
10003618:	4229      	tst	r1, r5
1000361a:	d019      	beq.n	10003650 <hardware_alarm_set_target+0xa8>
1000361c:	6a61      	ldr	r1, [r4, #36]	; 0x24
1000361e:	0008      	movs	r0, r1
10003620:	6aa6      	ldr	r6, [r4, #40]	; 0x28
10003622:	6a61      	ldr	r1, [r4, #36]	; 0x24
10003624:	4281      	cmp	r1, r0
10003626:	d1fa      	bne.n	1000361e <hardware_alarm_set_target+0x76>
10003628:	428b      	cmp	r3, r1
1000362a:	d819      	bhi.n	10003660 <hardware_alarm_set_target+0xb8>
1000362c:	d101      	bne.n	10003632 <hardware_alarm_set_target+0x8a>
1000362e:	42b2      	cmp	r2, r6
10003630:	d816      	bhi.n	10003660 <hardware_alarm_set_target+0xb8>
10003632:	45c2      	cmp	sl, r8
10003634:	d01d      	beq.n	10003672 <hardware_alarm_set_target+0xca>
10003636:	4b10      	ldr	r3, [pc, #64]	; (10003678 <hardware_alarm_set_target+0xd0>)
10003638:	201f      	movs	r0, #31
1000363a:	621d      	str	r5, [r3, #32]
1000363c:	635d      	str	r5, [r3, #52]	; 0x34
1000363e:	2301      	movs	r3, #1
10003640:	4007      	ands	r7, r0
10003642:	40bb      	lsls	r3, r7
10003644:	4a10      	ldr	r2, [pc, #64]	; (10003688 <hardware_alarm_set_target+0xe0>)
10003646:	381e      	subs	r0, #30
10003648:	6013      	str	r3, [r2, #0]
1000364a:	4663      	mov	r3, ip
1000364c:	4642      	mov	r2, r8
1000364e:	701a      	strb	r2, [r3, #0]
10003650:	f3bf 8f5f 	dmb	sy
10003654:	2200      	movs	r2, #0
10003656:	4b09      	ldr	r3, [pc, #36]	; (1000367c <hardware_alarm_set_target+0xd4>)
10003658:	601a      	str	r2, [r3, #0]
1000365a:	f389 8810 	msr	PRIMASK, r9
1000365e:	e7b4      	b.n	100035ca <hardware_alarm_set_target+0x22>
10003660:	2000      	movs	r0, #0
10003662:	f3bf 8f5f 	dmb	sy
10003666:	2200      	movs	r2, #0
10003668:	4b04      	ldr	r3, [pc, #16]	; (1000367c <hardware_alarm_set_target+0xd4>)
1000366a:	601a      	str	r2, [r3, #0]
1000366c:	f389 8810 	msr	PRIMASK, r9
10003670:	e7ab      	b.n	100035ca <hardware_alarm_set_target+0x22>
10003672:	2001      	movs	r0, #1
10003674:	e7ec      	b.n	10003650 <hardware_alarm_set_target+0xa8>
10003676:	46c0      	nop			; (mov r8, r8)
10003678:	40054000 	.word	0x40054000
1000367c:	d0000128 	.word	0xd0000128
10003680:	200008ca 	.word	0x200008ca
10003684:	200008b4 	.word	0x200008b4
10003688:	e000e280 	.word	0xe000e280

1000368c <hardware_alarm_cancel>:
1000368c:	b510      	push	{r4, lr}
1000368e:	f3ef 8410 	mrs	r4, PRIMASK
10003692:	b672      	cpsid	i
10003694:	490a      	ldr	r1, [pc, #40]	; (100036c0 <hardware_alarm_cancel+0x34>)
10003696:	680b      	ldr	r3, [r1, #0]
10003698:	2b00      	cmp	r3, #0
1000369a:	d0fc      	beq.n	10003696 <hardware_alarm_cancel+0xa>
1000369c:	f3bf 8f5f 	dmb	sy
100036a0:	2301      	movs	r3, #1
100036a2:	4083      	lsls	r3, r0
100036a4:	4a07      	ldr	r2, [pc, #28]	; (100036c4 <hardware_alarm_cancel+0x38>)
100036a6:	4808      	ldr	r0, [pc, #32]	; (100036c8 <hardware_alarm_cancel+0x3c>)
100036a8:	6213      	str	r3, [r2, #32]
100036aa:	7802      	ldrb	r2, [r0, #0]
100036ac:	439a      	bics	r2, r3
100036ae:	7002      	strb	r2, [r0, #0]
100036b0:	f3bf 8f5f 	dmb	sy
100036b4:	2300      	movs	r3, #0
100036b6:	600b      	str	r3, [r1, #0]
100036b8:	f384 8810 	msr	PRIMASK, r4
100036bc:	bd10      	pop	{r4, pc}
100036be:	46c0      	nop			; (mov r8, r8)
100036c0:	d0000128 	.word	0xd0000128
100036c4:	40054000 	.word	0x40054000
100036c8:	200008ca 	.word	0x200008ca

100036cc <lock_init>:
100036cc:	4b02      	ldr	r3, [pc, #8]	; (100036d8 <lock_init+0xc>)
100036ce:	469c      	mov	ip, r3
100036d0:	4461      	add	r1, ip
100036d2:	0089      	lsls	r1, r1, #2
100036d4:	6001      	str	r1, [r0, #0]
100036d6:	4770      	bx	lr
100036d8:	34000040 	.word	0x34000040

100036dc <mutex_init>:
100036dc:	b510      	push	{r4, lr}
100036de:	0004      	movs	r4, r0
100036e0:	f7ff fbf0 	bl	10002ec4 <next_striped_spin_lock_num>
100036e4:	0001      	movs	r1, r0
100036e6:	0020      	movs	r0, r4
100036e8:	f7ff fff0 	bl	100036cc <lock_init>
100036ec:	23ff      	movs	r3, #255	; 0xff
100036ee:	7123      	strb	r3, [r4, #4]
100036f0:	f3bf 8f5f 	dmb	sy
100036f4:	bd10      	pop	{r4, pc}
100036f6:	46c0      	nop			; (mov r8, r8)

100036f8 <ph_merge_nodes>:
100036f8:	b570      	push	{r4, r5, r6, lr}
100036fa:	0005      	movs	r5, r0
100036fc:	000e      	movs	r6, r1
100036fe:	0014      	movs	r4, r2
10003700:	2900      	cmp	r1, #0
10003702:	d024      	beq.n	1000374e <ph_merge_nodes+0x56>
10003704:	2a00      	cmp	r2, #0
10003706:	d024      	beq.n	10003752 <ph_merge_nodes+0x5a>
10003708:	6880      	ldr	r0, [r0, #8]
1000370a:	686b      	ldr	r3, [r5, #4]
1000370c:	4798      	blx	r3
1000370e:	6829      	ldr	r1, [r5, #0]
10003710:	2800      	cmp	r0, #0
10003712:	d00e      	beq.n	10003732 <ph_merge_nodes+0x3a>
10003714:	0063      	lsls	r3, r4, #1
10003716:	191b      	adds	r3, r3, r4
10003718:	0072      	lsls	r2, r6, #1
1000371a:	3b03      	subs	r3, #3
1000371c:	1992      	adds	r2, r2, r6
1000371e:	18cb      	adds	r3, r1, r3
10003720:	3a03      	subs	r2, #3
10003722:	709e      	strb	r6, [r3, #2]
10003724:	1888      	adds	r0, r1, r2
10003726:	5c8a      	ldrb	r2, [r1, r2]
10003728:	2a00      	cmp	r2, #0
1000372a:	d114      	bne.n	10003756 <ph_merge_nodes+0x5e>
1000372c:	7004      	strb	r4, [r0, #0]
1000372e:	0030      	movs	r0, r6
10003730:	e00e      	b.n	10003750 <ph_merge_nodes+0x58>
10003732:	0073      	lsls	r3, r6, #1
10003734:	199b      	adds	r3, r3, r6
10003736:	0062      	lsls	r2, r4, #1
10003738:	3b03      	subs	r3, #3
1000373a:	1912      	adds	r2, r2, r4
1000373c:	18cb      	adds	r3, r1, r3
1000373e:	3a03      	subs	r2, #3
10003740:	709c      	strb	r4, [r3, #2]
10003742:	1888      	adds	r0, r1, r2
10003744:	5c8a      	ldrb	r2, [r1, r2]
10003746:	2a00      	cmp	r2, #0
10003748:	d000      	beq.n	1000374c <ph_merge_nodes+0x54>
1000374a:	705a      	strb	r2, [r3, #1]
1000374c:	7006      	strb	r6, [r0, #0]
1000374e:	0020      	movs	r0, r4
10003750:	bd70      	pop	{r4, r5, r6, pc}
10003752:	0008      	movs	r0, r1
10003754:	e7fc      	b.n	10003750 <ph_merge_nodes+0x58>
10003756:	705a      	strb	r2, [r3, #1]
10003758:	7004      	strb	r4, [r0, #0]
1000375a:	0030      	movs	r0, r6
1000375c:	e7f8      	b.n	10003750 <ph_merge_nodes+0x58>
1000375e:	46c0      	nop			; (mov r8, r8)

10003760 <ph_post_alloc_init>:
10003760:	b530      	push	{r4, r5, lr}
10003762:	6083      	str	r3, [r0, #8]
10003764:	2300      	movs	r3, #0
10003766:	b2cc      	uxtb	r4, r1
10003768:	7343      	strb	r3, [r0, #13]
1000376a:	3301      	adds	r3, #1
1000376c:	7304      	strb	r4, [r0, #12]
1000376e:	6042      	str	r2, [r0, #4]
10003770:	7383      	strb	r3, [r0, #14]
10003772:	73c4      	strb	r4, [r0, #15]
10003774:	000d      	movs	r5, r1
10003776:	6800      	ldr	r0, [r0, #0]
10003778:	2c01      	cmp	r4, #1
1000377a:	d906      	bls.n	1000378a <ph_post_alloc_init+0x2a>
1000377c:	1c42      	adds	r2, r0, #1
1000377e:	3301      	adds	r3, #1
10003780:	b2db      	uxtb	r3, r3
10003782:	7013      	strb	r3, [r2, #0]
10003784:	3203      	adds	r2, #3
10003786:	429c      	cmp	r4, r3
10003788:	d1f9      	bne.n	1000377e <ph_post_alloc_init+0x1e>
1000378a:	21ff      	movs	r1, #255	; 0xff
1000378c:	4029      	ands	r1, r5
1000378e:	004b      	lsls	r3, r1, #1
10003790:	1859      	adds	r1, r3, r1
10003792:	2300      	movs	r3, #0
10003794:	1840      	adds	r0, r0, r1
10003796:	3803      	subs	r0, #3
10003798:	7043      	strb	r3, [r0, #1]
1000379a:	bd30      	pop	{r4, r5, pc}

1000379c <ph_merge_two_pass>:
1000379c:	b5f8      	push	{r3, r4, r5, r6, r7, lr}
1000379e:	46ce      	mov	lr, r9
100037a0:	4647      	mov	r7, r8
100037a2:	0006      	movs	r6, r0
100037a4:	000c      	movs	r4, r1
100037a6:	b580      	push	{r7, lr}
100037a8:	2900      	cmp	r1, #0
100037aa:	d007      	beq.n	100037bc <ph_merge_two_pass+0x20>
100037ac:	004d      	lsls	r5, r1, #1
100037ae:	6803      	ldr	r3, [r0, #0]
100037b0:	186d      	adds	r5, r5, r1
100037b2:	3d03      	subs	r5, #3
100037b4:	195a      	adds	r2, r3, r5
100037b6:	7857      	ldrb	r7, [r2, #1]
100037b8:	2f00      	cmp	r7, #0
100037ba:	d104      	bne.n	100037c6 <ph_merge_two_pass+0x2a>
100037bc:	0020      	movs	r0, r4
100037be:	bc0c      	pop	{r2, r3}
100037c0:	4690      	mov	r8, r2
100037c2:	4699      	mov	r9, r3
100037c4:	bdf8      	pop	{r3, r4, r5, r6, r7, pc}
100037c6:	0079      	lsls	r1, r7, #1
100037c8:	19c9      	adds	r1, r1, r7
100037ca:	3903      	subs	r1, #3
100037cc:	4688      	mov	r8, r1
100037ce:	4443      	add	r3, r8
100037d0:	7859      	ldrb	r1, [r3, #1]
100037d2:	4689      	mov	r9, r1
100037d4:	2100      	movs	r1, #0
100037d6:	7059      	strb	r1, [r3, #1]
100037d8:	7051      	strb	r1, [r2, #1]
100037da:	6873      	ldr	r3, [r6, #4]
100037dc:	003a      	movs	r2, r7
100037de:	0021      	movs	r1, r4
100037e0:	6880      	ldr	r0, [r0, #8]
100037e2:	4798      	blx	r3
100037e4:	6833      	ldr	r3, [r6, #0]
100037e6:	2800      	cmp	r0, #0
100037e8:	d014      	beq.n	10003814 <ph_merge_two_pass+0x78>
100037ea:	4642      	mov	r2, r8
100037ec:	189a      	adds	r2, r3, r2
100037ee:	7094      	strb	r4, [r2, #2]
100037f0:	1959      	adds	r1, r3, r5
100037f2:	5d5b      	ldrb	r3, [r3, r5]
100037f4:	2b00      	cmp	r3, #0
100037f6:	d000      	beq.n	100037fa <ph_merge_two_pass+0x5e>
100037f8:	7053      	strb	r3, [r2, #1]
100037fa:	700f      	strb	r7, [r1, #0]
100037fc:	0027      	movs	r7, r4
100037fe:	4649      	mov	r1, r9
10003800:	0030      	movs	r0, r6
10003802:	f7ff ffcb 	bl	1000379c <ph_merge_two_pass>
10003806:	0039      	movs	r1, r7
10003808:	0002      	movs	r2, r0
1000380a:	0030      	movs	r0, r6
1000380c:	f7ff ff74 	bl	100036f8 <ph_merge_nodes>
10003810:	0004      	movs	r4, r0
10003812:	e7d3      	b.n	100037bc <ph_merge_two_pass+0x20>
10003814:	4642      	mov	r2, r8
10003816:	4641      	mov	r1, r8
10003818:	195d      	adds	r5, r3, r5
1000381a:	70af      	strb	r7, [r5, #2]
1000381c:	189a      	adds	r2, r3, r2
1000381e:	5c5b      	ldrb	r3, [r3, r1]
10003820:	2b00      	cmp	r3, #0
10003822:	d000      	beq.n	10003826 <ph_merge_two_pass+0x8a>
10003824:	706b      	strb	r3, [r5, #1]
10003826:	7014      	strb	r4, [r2, #0]
10003828:	e7e9      	b.n	100037fe <ph_merge_two_pass+0x62>
1000382a:	46c0      	nop			; (mov r8, r8)

1000382c <ph_remove_any_head>:
1000382c:	b5f0      	push	{r4, r5, r6, r7, lr}
1000382e:	4657      	mov	r7, sl
10003830:	4645      	mov	r5, r8
10003832:	46de      	mov	lr, fp
10003834:	464e      	mov	r6, r9
10003836:	b5e0      	push	{r5, r6, r7, lr}
10003838:	000d      	movs	r5, r1
1000383a:	006b      	lsls	r3, r5, #1
1000383c:	6801      	ldr	r1, [r0, #0]
1000383e:	195b      	adds	r3, r3, r5
10003840:	1edf      	subs	r7, r3, #3
10003842:	0004      	movs	r4, r0
10003844:	5dc8      	ldrb	r0, [r1, r7]
10003846:	b083      	sub	sp, #12
10003848:	9201      	str	r2, [sp, #4]
1000384a:	19ca      	adds	r2, r1, r7
1000384c:	2800      	cmp	r0, #0
1000384e:	d04c      	beq.n	100038ea <ph_remove_any_head+0xbe>
10003850:	0043      	lsls	r3, r0, #1
10003852:	181b      	adds	r3, r3, r0
10003854:	3b03      	subs	r3, #3
10003856:	18cb      	adds	r3, r1, r3
10003858:	785e      	ldrb	r6, [r3, #1]
1000385a:	46b4      	mov	ip, r6
1000385c:	2e00      	cmp	r6, #0
1000385e:	d116      	bne.n	1000388e <ph_remove_any_head+0x62>
10003860:	9e01      	ldr	r6, [sp, #4]
10003862:	2e00      	cmp	r6, #0
10003864:	d03e      	beq.n	100038e4 <ph_remove_any_head+0xb8>
10003866:	7be6      	ldrb	r6, [r4, #15]
10003868:	2e00      	cmp	r6, #0
1000386a:	d004      	beq.n	10003876 <ph_remove_any_head+0x4a>
1000386c:	0073      	lsls	r3, r6, #1
1000386e:	199b      	adds	r3, r3, r6
10003870:	18cb      	adds	r3, r1, r3
10003872:	3b03      	subs	r3, #3
10003874:	705d      	strb	r5, [r3, #1]
10003876:	73e5      	strb	r5, [r4, #15]
10003878:	2800      	cmp	r0, #0
1000387a:	d12f      	bne.n	100038dc <ph_remove_any_head+0xb0>
1000387c:	2300      	movs	r3, #0
1000387e:	7053      	strb	r3, [r2, #1]
10003880:	b003      	add	sp, #12
10003882:	bc3c      	pop	{r2, r3, r4, r5}
10003884:	4690      	mov	r8, r2
10003886:	4699      	mov	r9, r3
10003888:	46a2      	mov	sl, r4
1000388a:	46ab      	mov	fp, r5
1000388c:	bdf0      	pop	{r4, r5, r6, r7, pc}
1000388e:	0072      	lsls	r2, r6, #1
10003890:	4462      	add	r2, ip
10003892:	3a03      	subs	r2, #3
10003894:	1889      	adds	r1, r1, r2
10003896:	784a      	ldrb	r2, [r1, #1]
10003898:	4690      	mov	r8, r2
1000389a:	2200      	movs	r2, #0
1000389c:	704a      	strb	r2, [r1, #1]
1000389e:	4691      	mov	r9, r2
100038a0:	705a      	strb	r2, [r3, #1]
100038a2:	0001      	movs	r1, r0
100038a4:	0032      	movs	r2, r6
100038a6:	0020      	movs	r0, r4
100038a8:	f7ff ff26 	bl	100036f8 <ph_merge_nodes>
100038ac:	4643      	mov	r3, r8
100038ae:	4682      	mov	sl, r0
100038b0:	2b00      	cmp	r3, #0
100038b2:	d007      	beq.n	100038c4 <ph_remove_any_head+0x98>
100038b4:	005b      	lsls	r3, r3, #1
100038b6:	6821      	ldr	r1, [r4, #0]
100038b8:	4443      	add	r3, r8
100038ba:	3b03      	subs	r3, #3
100038bc:	18cb      	adds	r3, r1, r3
100038be:	785a      	ldrb	r2, [r3, #1]
100038c0:	2a00      	cmp	r2, #0
100038c2:	d116      	bne.n	100038f2 <ph_remove_any_head+0xc6>
100038c4:	4642      	mov	r2, r8
100038c6:	4651      	mov	r1, sl
100038c8:	0020      	movs	r0, r4
100038ca:	f7ff ff15 	bl	100036f8 <ph_merge_nodes>
100038ce:	6821      	ldr	r1, [r4, #0]
100038d0:	9b01      	ldr	r3, [sp, #4]
100038d2:	19ca      	adds	r2, r1, r7
100038d4:	2b00      	cmp	r3, #0
100038d6:	d1c6      	bne.n	10003866 <ph_remove_any_head+0x3a>
100038d8:	2800      	cmp	r0, #0
100038da:	d0cf      	beq.n	1000387c <ph_remove_any_head+0x50>
100038dc:	0043      	lsls	r3, r0, #1
100038de:	181b      	adds	r3, r3, r0
100038e0:	3b03      	subs	r3, #3
100038e2:	18cb      	adds	r3, r1, r3
100038e4:	2100      	movs	r1, #0
100038e6:	7099      	strb	r1, [r3, #2]
100038e8:	e7c8      	b.n	1000387c <ph_remove_any_head+0x50>
100038ea:	9b01      	ldr	r3, [sp, #4]
100038ec:	2b00      	cmp	r3, #0
100038ee:	d1ba      	bne.n	10003866 <ph_remove_any_head+0x3a>
100038f0:	e7c4      	b.n	1000387c <ph_remove_any_head+0x50>
100038f2:	0050      	lsls	r0, r2, #1
100038f4:	1880      	adds	r0, r0, r2
100038f6:	3803      	subs	r0, #3
100038f8:	1809      	adds	r1, r1, r0
100038fa:	7848      	ldrb	r0, [r1, #1]
100038fc:	4683      	mov	fp, r0
100038fe:	4648      	mov	r0, r9
10003900:	7048      	strb	r0, [r1, #1]
10003902:	7058      	strb	r0, [r3, #1]
10003904:	4641      	mov	r1, r8
10003906:	0020      	movs	r0, r4
10003908:	f7ff fef6 	bl	100036f8 <ph_merge_nodes>
1000390c:	4659      	mov	r1, fp
1000390e:	4680      	mov	r8, r0
10003910:	0020      	movs	r0, r4
10003912:	f7ff ff43 	bl	1000379c <ph_merge_two_pass>
10003916:	4641      	mov	r1, r8
10003918:	0002      	movs	r2, r0
1000391a:	0020      	movs	r0, r4
1000391c:	f7ff feec 	bl	100036f8 <ph_merge_nodes>
10003920:	4680      	mov	r8, r0
10003922:	e7cf      	b.n	100038c4 <ph_remove_any_head+0x98>

10003924 <ph_remove_head>:
10003924:	b5f0      	push	{r4, r5, r6, r7, lr}
10003926:	464e      	mov	r6, r9
10003928:	4645      	mov	r5, r8
1000392a:	46de      	mov	lr, fp
1000392c:	4657      	mov	r7, sl
1000392e:	b5e0      	push	{r5, r6, r7, lr}
10003930:	7b46      	ldrb	r6, [r0, #13]
10003932:	0004      	movs	r4, r0
10003934:	0075      	lsls	r5, r6, #1
10003936:	6800      	ldr	r0, [r0, #0]
10003938:	19ad      	adds	r5, r5, r6
1000393a:	3d03      	subs	r5, #3
1000393c:	b083      	sub	sp, #12
1000393e:	9101      	str	r1, [sp, #4]
10003940:	5d41      	ldrb	r1, [r0, r5]
10003942:	1942      	adds	r2, r0, r5
10003944:	2900      	cmp	r1, #0
10003946:	d04e      	beq.n	100039e6 <ph_remove_head+0xc2>
10003948:	004b      	lsls	r3, r1, #1
1000394a:	185b      	adds	r3, r3, r1
1000394c:	3b03      	subs	r3, #3
1000394e:	18c3      	adds	r3, r0, r3
10003950:	785f      	ldrb	r7, [r3, #1]
10003952:	46bc      	mov	ip, r7
10003954:	2f00      	cmp	r7, #0
10003956:	d118      	bne.n	1000398a <ph_remove_head+0x66>
10003958:	9d01      	ldr	r5, [sp, #4]
1000395a:	2d00      	cmp	r5, #0
1000395c:	d040      	beq.n	100039e0 <ph_remove_head+0xbc>
1000395e:	7be5      	ldrb	r5, [r4, #15]
10003960:	2d00      	cmp	r5, #0
10003962:	d004      	beq.n	1000396e <ph_remove_head+0x4a>
10003964:	006b      	lsls	r3, r5, #1
10003966:	195b      	adds	r3, r3, r5
10003968:	18c3      	adds	r3, r0, r3
1000396a:	3b03      	subs	r3, #3
1000396c:	705e      	strb	r6, [r3, #1]
1000396e:	73e6      	strb	r6, [r4, #15]
10003970:	2900      	cmp	r1, #0
10003972:	d131      	bne.n	100039d8 <ph_remove_head+0xb4>
10003974:	2300      	movs	r3, #0
10003976:	0030      	movs	r0, r6
10003978:	7053      	strb	r3, [r2, #1]
1000397a:	7361      	strb	r1, [r4, #13]
1000397c:	b003      	add	sp, #12
1000397e:	bc3c      	pop	{r2, r3, r4, r5}
10003980:	4690      	mov	r8, r2
10003982:	4699      	mov	r9, r3
10003984:	46a2      	mov	sl, r4
10003986:	46ab      	mov	fp, r5
10003988:	bdf0      	pop	{r4, r5, r6, r7, pc}
1000398a:	007a      	lsls	r2, r7, #1
1000398c:	4462      	add	r2, ip
1000398e:	3a03      	subs	r2, #3
10003990:	1880      	adds	r0, r0, r2
10003992:	7842      	ldrb	r2, [r0, #1]
10003994:	4693      	mov	fp, r2
10003996:	2200      	movs	r2, #0
10003998:	7042      	strb	r2, [r0, #1]
1000399a:	4691      	mov	r9, r2
1000399c:	705a      	strb	r2, [r3, #1]
1000399e:	0020      	movs	r0, r4
100039a0:	003a      	movs	r2, r7
100039a2:	f7ff fea9 	bl	100036f8 <ph_merge_nodes>
100039a6:	465b      	mov	r3, fp
100039a8:	4680      	mov	r8, r0
100039aa:	2b00      	cmp	r3, #0
100039ac:	d007      	beq.n	100039be <ph_remove_head+0x9a>
100039ae:	005b      	lsls	r3, r3, #1
100039b0:	6821      	ldr	r1, [r4, #0]
100039b2:	445b      	add	r3, fp
100039b4:	3b03      	subs	r3, #3
100039b6:	18cb      	adds	r3, r1, r3
100039b8:	785a      	ldrb	r2, [r3, #1]
100039ba:	2a00      	cmp	r2, #0
100039bc:	d117      	bne.n	100039ee <ph_remove_head+0xca>
100039be:	465a      	mov	r2, fp
100039c0:	4641      	mov	r1, r8
100039c2:	0020      	movs	r0, r4
100039c4:	f7ff fe98 	bl	100036f8 <ph_merge_nodes>
100039c8:	9b01      	ldr	r3, [sp, #4]
100039ca:	0001      	movs	r1, r0
100039cc:	6820      	ldr	r0, [r4, #0]
100039ce:	1942      	adds	r2, r0, r5
100039d0:	2b00      	cmp	r3, #0
100039d2:	d1c4      	bne.n	1000395e <ph_remove_head+0x3a>
100039d4:	2900      	cmp	r1, #0
100039d6:	d0cd      	beq.n	10003974 <ph_remove_head+0x50>
100039d8:	004b      	lsls	r3, r1, #1
100039da:	185b      	adds	r3, r3, r1
100039dc:	3b03      	subs	r3, #3
100039de:	18c3      	adds	r3, r0, r3
100039e0:	2000      	movs	r0, #0
100039e2:	7098      	strb	r0, [r3, #2]
100039e4:	e7c6      	b.n	10003974 <ph_remove_head+0x50>
100039e6:	9b01      	ldr	r3, [sp, #4]
100039e8:	2b00      	cmp	r3, #0
100039ea:	d1b8      	bne.n	1000395e <ph_remove_head+0x3a>
100039ec:	e7c2      	b.n	10003974 <ph_remove_head+0x50>
100039ee:	0050      	lsls	r0, r2, #1
100039f0:	1880      	adds	r0, r0, r2
100039f2:	3803      	subs	r0, #3
100039f4:	1809      	adds	r1, r1, r0
100039f6:	7848      	ldrb	r0, [r1, #1]
100039f8:	4682      	mov	sl, r0
100039fa:	4648      	mov	r0, r9
100039fc:	7048      	strb	r0, [r1, #1]
100039fe:	7058      	strb	r0, [r3, #1]
10003a00:	4659      	mov	r1, fp
10003a02:	0020      	movs	r0, r4
10003a04:	f7ff fe78 	bl	100036f8 <ph_merge_nodes>
10003a08:	4653      	mov	r3, sl
10003a0a:	4683      	mov	fp, r0
10003a0c:	2b00      	cmp	r3, #0
10003a0e:	d007      	beq.n	10003a20 <ph_remove_head+0xfc>
10003a10:	005b      	lsls	r3, r3, #1
10003a12:	6821      	ldr	r1, [r4, #0]
10003a14:	4453      	add	r3, sl
10003a16:	3b03      	subs	r3, #3
10003a18:	18cb      	adds	r3, r1, r3
10003a1a:	785a      	ldrb	r2, [r3, #1]
10003a1c:	2a00      	cmp	r2, #0
10003a1e:	d106      	bne.n	10003a2e <ph_remove_head+0x10a>
10003a20:	4659      	mov	r1, fp
10003a22:	4652      	mov	r2, sl
10003a24:	0020      	movs	r0, r4
10003a26:	f7ff fe67 	bl	100036f8 <ph_merge_nodes>
10003a2a:	4683      	mov	fp, r0
10003a2c:	e7c7      	b.n	100039be <ph_remove_head+0x9a>
10003a2e:	0050      	lsls	r0, r2, #1
10003a30:	1880      	adds	r0, r0, r2
10003a32:	3803      	subs	r0, #3
10003a34:	1809      	adds	r1, r1, r0
10003a36:	4648      	mov	r0, r9
10003a38:	784f      	ldrb	r7, [r1, #1]
10003a3a:	7048      	strb	r0, [r1, #1]
10003a3c:	7058      	strb	r0, [r3, #1]
10003a3e:	4651      	mov	r1, sl
10003a40:	0020      	movs	r0, r4
10003a42:	f7ff fe59 	bl	100036f8 <ph_merge_nodes>
10003a46:	0039      	movs	r1, r7
10003a48:	4681      	mov	r9, r0
10003a4a:	0020      	movs	r0, r4
10003a4c:	f7ff fea6 	bl	1000379c <ph_merge_two_pass>
10003a50:	4649      	mov	r1, r9
10003a52:	0002      	movs	r2, r0
10003a54:	0020      	movs	r0, r4
10003a56:	f7ff fe4f 	bl	100036f8 <ph_merge_nodes>
10003a5a:	4682      	mov	sl, r0
10003a5c:	e7e0      	b.n	10003a20 <ph_remove_head+0xfc>
10003a5e:	46c0      	nop			; (mov r8, r8)

10003a60 <ph_remove_and_free_node>:
10003a60:	b570      	push	{r4, r5, r6, lr}
10003a62:	0004      	movs	r4, r0
10003a64:	2900      	cmp	r1, #0
10003a66:	d02c      	beq.n	10003ac2 <ph_remove_and_free_node+0x62>
10003a68:	7b43      	ldrb	r3, [r0, #13]
10003a6a:	428b      	cmp	r3, r1
10003a6c:	d02e      	beq.n	10003acc <ph_remove_and_free_node+0x6c>
10003a6e:	6805      	ldr	r5, [r0, #0]
10003a70:	0048      	lsls	r0, r1, #1
10003a72:	1840      	adds	r0, r0, r1
10003a74:	3803      	subs	r0, #3
10003a76:	1828      	adds	r0, r5, r0
10003a78:	7882      	ldrb	r2, [r0, #2]
10003a7a:	2a00      	cmp	r2, #0
10003a7c:	d021      	beq.n	10003ac2 <ph_remove_and_free_node+0x62>
10003a7e:	0053      	lsls	r3, r2, #1
10003a80:	189b      	adds	r3, r3, r2
10003a82:	3b03      	subs	r3, #3
10003a84:	5cea      	ldrb	r2, [r5, r3]
10003a86:	18ee      	adds	r6, r5, r3
10003a88:	428a      	cmp	r2, r1
10003a8a:	d102      	bne.n	10003a92 <ph_remove_and_free_node+0x32>
10003a8c:	e01b      	b.n	10003ac6 <ph_remove_and_free_node+0x66>
10003a8e:	2a00      	cmp	r2, #0
10003a90:	d008      	beq.n	10003aa4 <ph_remove_and_free_node+0x44>
10003a92:	0053      	lsls	r3, r2, #1
10003a94:	189b      	adds	r3, r3, r2
10003a96:	3b03      	subs	r3, #3
10003a98:	18eb      	adds	r3, r5, r3
10003a9a:	785a      	ldrb	r2, [r3, #1]
10003a9c:	428a      	cmp	r2, r1
10003a9e:	d1f6      	bne.n	10003a8e <ph_remove_and_free_node+0x2e>
10003aa0:	7842      	ldrb	r2, [r0, #1]
10003aa2:	705a      	strb	r2, [r3, #1]
10003aa4:	2300      	movs	r3, #0
10003aa6:	2201      	movs	r2, #1
10003aa8:	7083      	strb	r3, [r0, #2]
10003aaa:	7043      	strb	r3, [r0, #1]
10003aac:	0020      	movs	r0, r4
10003aae:	f7ff febd 	bl	1000382c <ph_remove_any_head>
10003ab2:	7b61      	ldrb	r1, [r4, #13]
10003ab4:	0002      	movs	r2, r0
10003ab6:	0020      	movs	r0, r4
10003ab8:	f7ff fe1e 	bl	100036f8 <ph_merge_nodes>
10003abc:	7360      	strb	r0, [r4, #13]
10003abe:	2001      	movs	r0, #1
10003ac0:	e000      	b.n	10003ac4 <ph_remove_and_free_node+0x64>
10003ac2:	2000      	movs	r0, #0
10003ac4:	bd70      	pop	{r4, r5, r6, pc}
10003ac6:	7843      	ldrb	r3, [r0, #1]
10003ac8:	7033      	strb	r3, [r6, #0]
10003aca:	e7eb      	b.n	10003aa4 <ph_remove_and_free_node+0x44>
10003acc:	2201      	movs	r2, #1
10003ace:	0019      	movs	r1, r3
10003ad0:	f7ff feac 	bl	1000382c <ph_remove_any_head>
10003ad4:	7360      	strb	r0, [r4, #13]
10003ad6:	2001      	movs	r0, #1
10003ad8:	e7f4      	b.n	10003ac4 <ph_remove_and_free_node+0x64>
10003ada:	46c0      	nop			; (mov r8, r8)

10003adc <runtime_init>:
10003adc:	4b2b      	ldr	r3, [pc, #172]	; (10003b8c <runtime_init+0xb0>)
10003ade:	4a2c      	ldr	r2, [pc, #176]	; (10003b90 <runtime_init+0xb4>)
10003ae0:	b570      	push	{r4, r5, r6, lr}
10003ae2:	601a      	str	r2, [r3, #0]
10003ae4:	4a2b      	ldr	r2, [pc, #172]	; (10003b94 <runtime_init+0xb8>)
10003ae6:	4b2c      	ldr	r3, [pc, #176]	; (10003b98 <runtime_init+0xbc>)
10003ae8:	492c      	ldr	r1, [pc, #176]	; (10003b9c <runtime_init+0xc0>)
10003aea:	601a      	str	r2, [r3, #0]
10003aec:	0010      	movs	r0, r2
10003aee:	688b      	ldr	r3, [r1, #8]
10003af0:	4398      	bics	r0, r3
10003af2:	d1fb      	bne.n	10003aec <runtime_init+0x10>
10003af4:	4c2a      	ldr	r4, [pc, #168]	; (10003ba0 <runtime_init+0xc4>)
10003af6:	4b2b      	ldr	r3, [pc, #172]	; (10003ba4 <runtime_init+0xc8>)
10003af8:	429c      	cmp	r4, r3
10003afa:	d209      	bcs.n	10003b10 <runtime_init+0x34>
10003afc:	3b01      	subs	r3, #1
10003afe:	1b1d      	subs	r5, r3, r4
10003b00:	08ad      	lsrs	r5, r5, #2
10003b02:	3501      	adds	r5, #1
10003b04:	00ad      	lsls	r5, r5, #2
10003b06:	192d      	adds	r5, r5, r4
10003b08:	cc08      	ldmia	r4!, {r3}
10003b0a:	4798      	blx	r3
10003b0c:	42ac      	cmp	r4, r5
10003b0e:	d1fb      	bne.n	10003b08 <runtime_init+0x2c>
10003b10:	f000 f87a 	bl	10003c08 <clocks_init>
10003b14:	4a24      	ldr	r2, [pc, #144]	; (10003ba8 <runtime_init+0xcc>)
10003b16:	4b20      	ldr	r3, [pc, #128]	; (10003b98 <runtime_init+0xbc>)
10003b18:	601a      	str	r2, [r3, #0]
10003b1a:	4a20      	ldr	r2, [pc, #128]	; (10003b9c <runtime_init+0xc0>)
10003b1c:	6893      	ldr	r3, [r2, #8]
10003b1e:	01db      	lsls	r3, r3, #7
10003b20:	3380      	adds	r3, #128	; 0x80
10003b22:	d1fb      	bne.n	10003b1c <runtime_init+0x40>
10003b24:	2240      	movs	r2, #64	; 0x40
10003b26:	4b21      	ldr	r3, [pc, #132]	; (10003bac <runtime_init+0xd0>)
10003b28:	4c21      	ldr	r4, [pc, #132]	; (10003bb0 <runtime_init+0xd4>)
10003b2a:	679a      	str	r2, [r3, #120]	; 0x78
10003b2c:	675a      	str	r2, [r3, #116]	; 0x74
10003b2e:	671a      	str	r2, [r3, #112]	; 0x70
10003b30:	66da      	str	r2, [r3, #108]	; 0x6c
10003b32:	4b20      	ldr	r3, [pc, #128]	; (10003bb4 <runtime_init+0xd8>)
10003b34:	429c      	cmp	r4, r3
10003b36:	d20b      	bcs.n	10003b50 <runtime_init+0x74>
10003b38:	3b01      	subs	r3, #1
10003b3a:	1b1d      	subs	r5, r3, r4
10003b3c:	08ed      	lsrs	r5, r5, #3
10003b3e:	3501      	adds	r5, #1
10003b40:	00ed      	lsls	r5, r5, #3
10003b42:	192d      	adds	r5, r5, r4
10003b44:	0020      	movs	r0, r4
10003b46:	3408      	adds	r4, #8
10003b48:	f7ff fdc8 	bl	100036dc <mutex_init>
10003b4c:	42ac      	cmp	r4, r5
10003b4e:	d1f9      	bne.n	10003b44 <runtime_init+0x68>
10003b50:	4c19      	ldr	r4, [pc, #100]	; (10003bb8 <runtime_init+0xdc>)
10003b52:	4d1a      	ldr	r5, [pc, #104]	; (10003bbc <runtime_init+0xe0>)
10003b54:	68a1      	ldr	r1, [r4, #8]
10003b56:	22c0      	movs	r2, #192	; 0xc0
10003b58:	0028      	movs	r0, r5
10003b5a:	f003 faf9 	bl	10007150 <__wrap___aeabi_memcpy>
10003b5e:	60a5      	str	r5, [r4, #8]
10003b60:	f7ff f9a2 	bl	10002ea8 <spin_locks_reset>
10003b64:	f000 fb88 	bl	10004278 <irq_init_priorities>
10003b68:	f7ff fbda 	bl	10003320 <alarm_pool_init_default>
10003b6c:	4c14      	ldr	r4, [pc, #80]	; (10003bc0 <runtime_init+0xe4>)
10003b6e:	4b15      	ldr	r3, [pc, #84]	; (10003bc4 <runtime_init+0xe8>)
10003b70:	429c      	cmp	r4, r3
10003b72:	d209      	bcs.n	10003b88 <runtime_init+0xac>
10003b74:	3b01      	subs	r3, #1
10003b76:	1b1d      	subs	r5, r3, r4
10003b78:	08ad      	lsrs	r5, r5, #2
10003b7a:	3501      	adds	r5, #1
10003b7c:	00ad      	lsls	r5, r5, #2
10003b7e:	192d      	adds	r5, r5, r4
10003b80:	cc08      	ldmia	r4!, {r3}
10003b82:	4798      	blx	r3
10003b84:	42a5      	cmp	r5, r4
10003b86:	d1fb      	bne.n	10003b80 <runtime_init+0xa4>
10003b88:	bd70      	pop	{r4, r5, r6, pc}
10003b8a:	46c0      	nop			; (mov r8, r8)
10003b8c:	4000e000 	.word	0x4000e000
10003b90:	ffffcdbf 	.word	0xffffcdbf
10003b94:	003c7ffe 	.word	0x003c7ffe
10003b98:	4000f000 	.word	0x4000f000
10003b9c:	4000c000 	.word	0x4000c000
10003ba0:	200006c0 	.word	0x200006c0
10003ba4:	200006d0 	.word	0x200006d0
10003ba8:	01ffffff 	.word	0x01ffffff
10003bac:	4001f000 	.word	0x4001f000
10003bb0:	200006b8 	.word	0x200006b8
10003bb4:	200006c0 	.word	0x200006c0
10003bb8:	e000ed00 	.word	0xe000ed00
10003bbc:	20000000 	.word	0x20000000
10003bc0:	200006d0 	.word	0x200006d0
10003bc4:	200006d4 	.word	0x200006d4

10003bc8 <exit>:
10003bc8:	be00      	bkpt	0x0000
10003bca:	e7fd      	b.n	10003bc8 <exit>

10003bcc <panic>:
10003bcc:	b40f      	push	{r0, r1, r2, r3}
10003bce:	b500      	push	{lr}
10003bd0:	4808      	ldr	r0, [pc, #32]	; (10003bf4 <panic+0x28>)
10003bd2:	b083      	sub	sp, #12
10003bd4:	f003 fbce 	bl	10007374 <__wrap_puts>
10003bd8:	9b04      	ldr	r3, [sp, #16]
10003bda:	2b00      	cmp	r3, #0
10003bdc:	d007      	beq.n	10003bee <panic+0x22>
10003bde:	a905      	add	r1, sp, #20
10003be0:	0018      	movs	r0, r3
10003be2:	9101      	str	r1, [sp, #4]
10003be4:	f001 fe9e 	bl	10005924 <weak_raw_vprintf>
10003be8:	4803      	ldr	r0, [pc, #12]	; (10003bf8 <panic+0x2c>)
10003bea:	f003 fbc3 	bl	10007374 <__wrap_puts>
10003bee:	be00      	bkpt	0x0000
10003bf0:	e7fd      	b.n	10003bee <panic+0x22>
10003bf2:	46c0      	nop			; (mov r8, r8)
10003bf4:	10007ca8 	.word	0x10007ca8
10003bf8:	10007cb8 	.word	0x10007cb8

10003bfc <hard_assertion_failure>:
10003bfc:	b510      	push	{r4, lr}
10003bfe:	4801      	ldr	r0, [pc, #4]	; (10003c04 <hard_assertion_failure+0x8>)
10003c00:	f7ff ffe4 	bl	10003bcc <panic>
10003c04:	10007cbc 	.word	0x10007cbc

10003c08 <clocks_init>:
10003c08:	b530      	push	{r4, r5, lr}
10003c0a:	200c      	movs	r0, #12
10003c0c:	b083      	sub	sp, #12
10003c0e:	f000 f971 	bl	10003ef4 <watchdog_start_tick>
10003c12:	f7ff f963 	bl	10002edc <running_on_fpga>
10003c16:	2800      	cmp	r0, #0
10003c18:	d00e      	beq.n	10003c38 <clocks_init+0x30>
10003c1a:	4b9a      	ldr	r3, [pc, #616]	; (10003e84 <clocks_init+0x27c>)
10003c1c:	4a9a      	ldr	r2, [pc, #616]	; (10003e88 <clocks_init+0x280>)
10003c1e:	601a      	str	r2, [r3, #0]
10003c20:	605a      	str	r2, [r3, #4]
10003c22:	609a      	str	r2, [r3, #8]
10003c24:	60da      	str	r2, [r3, #12]
10003c26:	611a      	str	r2, [r3, #16]
10003c28:	615a      	str	r2, [r3, #20]
10003c2a:	619a      	str	r2, [r3, #24]
10003c2c:	61da      	str	r2, [r3, #28]
10003c2e:	621a      	str	r2, [r3, #32]
10003c30:	4a96      	ldr	r2, [pc, #600]	; (10003e8c <clocks_init+0x284>)
10003c32:	625a      	str	r2, [r3, #36]	; 0x24
10003c34:	b003      	add	sp, #12
10003c36:	bd30      	pop	{r4, r5, pc}
10003c38:	4c95      	ldr	r4, [pc, #596]	; (10003e90 <clocks_init+0x288>)
10003c3a:	67a0      	str	r0, [r4, #120]	; 0x78
10003c3c:	f000 f962 	bl	10003f04 <xosc_init>
10003c40:	2201      	movs	r2, #1
10003c42:	4b94      	ldr	r3, [pc, #592]	; (10003e94 <clocks_init+0x28c>)
10003c44:	601a      	str	r2, [r3, #0]
10003c46:	6c63      	ldr	r3, [r4, #68]	; 0x44
10003c48:	2b01      	cmp	r3, #1
10003c4a:	d1fc      	bne.n	10003c46 <clocks_init+0x3e>
10003c4c:	2203      	movs	r2, #3
10003c4e:	4b92      	ldr	r3, [pc, #584]	; (10003e98 <clocks_init+0x290>)
10003c50:	601a      	str	r2, [r3, #0]
10003c52:	4a8f      	ldr	r2, [pc, #572]	; (10003e90 <clocks_init+0x288>)
10003c54:	6b93      	ldr	r3, [r2, #56]	; 0x38
10003c56:	2b01      	cmp	r3, #1
10003c58:	d1fc      	bne.n	10003c54 <clocks_init+0x4c>
10003c5a:	22c0      	movs	r2, #192	; 0xc0
10003c5c:	4b8f      	ldr	r3, [pc, #572]	; (10003e9c <clocks_init+0x294>)
10003c5e:	0192      	lsls	r2, r2, #6
10003c60:	601a      	str	r2, [r3, #0]
10003c62:	4b8f      	ldr	r3, [pc, #572]	; (10003ea0 <clocks_init+0x298>)
10003c64:	498f      	ldr	r1, [pc, #572]	; (10003ea4 <clocks_init+0x29c>)
10003c66:	601a      	str	r2, [r3, #0]
10003c68:	0010      	movs	r0, r2
10003c6a:	688b      	ldr	r3, [r1, #8]
10003c6c:	4398      	bics	r0, r3
10003c6e:	1e03      	subs	r3, r0, #0
10003c70:	d1fa      	bne.n	10003c68 <clocks_init+0x60>
10003c72:	2402      	movs	r4, #2
10003c74:	2101      	movs	r1, #1
10003c76:	4a8c      	ldr	r2, [pc, #560]	; (10003ea8 <clocks_init+0x2a0>)
10003c78:	488c      	ldr	r0, [pc, #560]	; (10003eac <clocks_init+0x2a4>)
10003c7a:	3306      	adds	r3, #6
10003c7c:	9400      	str	r4, [sp, #0]
10003c7e:	f000 f955 	bl	10003f2c <pll_init>
10003c82:	2305      	movs	r3, #5
10003c84:	4a8a      	ldr	r2, [pc, #552]	; (10003eb0 <clocks_init+0x2a8>)
10003c86:	2101      	movs	r1, #1
10003c88:	488a      	ldr	r0, [pc, #552]	; (10003eb4 <clocks_init+0x2ac>)
10003c8a:	9400      	str	r4, [sp, #0]
10003c8c:	f000 f94e 	bl	10003f2c <pll_init>
10003c90:	4b89      	ldr	r3, [pc, #548]	; (10003eb8 <clocks_init+0x2b0>)
10003c92:	685a      	ldr	r2, [r3, #4]
10003c94:	2aff      	cmp	r2, #255	; 0xff
10003c96:	d802      	bhi.n	10003c9e <clocks_init+0x96>
10003c98:	2280      	movs	r2, #128	; 0x80
10003c9a:	0052      	lsls	r2, r2, #1
10003c9c:	605a      	str	r2, [r3, #4]
10003c9e:	2280      	movs	r2, #128	; 0x80
10003ca0:	4c78      	ldr	r4, [pc, #480]	; (10003e84 <clocks_init+0x27c>)
10003ca2:	4b7d      	ldr	r3, [pc, #500]	; (10003e98 <clocks_init+0x290>)
10003ca4:	6921      	ldr	r1, [r4, #16]
10003ca6:	0112      	lsls	r2, r2, #4
10003ca8:	4d83      	ldr	r5, [pc, #524]	; (10003eb8 <clocks_init+0x2b0>)
10003caa:	601a      	str	r2, [r3, #0]
10003cac:	2900      	cmp	r1, #0
10003cae:	d005      	beq.n	10003cbc <clocks_init+0xb4>
10003cb0:	6960      	ldr	r0, [r4, #20]
10003cb2:	f001 feb1 	bl	10005a18 <__wrap___aeabi_uidiv>
10003cb6:	3001      	adds	r0, #1
10003cb8:	3801      	subs	r0, #1
10003cba:	d1fd      	bne.n	10003cb8 <clocks_init+0xb0>
10003cbc:	21e0      	movs	r1, #224	; 0xe0
10003cbe:	4b7e      	ldr	r3, [pc, #504]	; (10003eb8 <clocks_init+0x2b0>)
10003cc0:	2002      	movs	r0, #2
10003cc2:	681a      	ldr	r2, [r3, #0]
10003cc4:	4011      	ands	r1, r2
10003cc6:	2280      	movs	r2, #128	; 0x80
10003cc8:	0152      	lsls	r2, r2, #5
10003cca:	432a      	orrs	r2, r5
10003ccc:	6011      	str	r1, [r2, #0]
10003cce:	6819      	ldr	r1, [r3, #0]
10003cd0:	4048      	eors	r0, r1
10003cd2:	2103      	movs	r1, #3
10003cd4:	4001      	ands	r1, r0
10003cd6:	6011      	str	r1, [r2, #0]
10003cd8:	2104      	movs	r1, #4
10003cda:	689a      	ldr	r2, [r3, #8]
10003cdc:	4211      	tst	r1, r2
10003cde:	d0fc      	beq.n	10003cda <clocks_init+0xd2>
10003ce0:	2280      	movs	r2, #128	; 0x80
10003ce2:	2180      	movs	r1, #128	; 0x80
10003ce4:	0192      	lsls	r2, r2, #6
10003ce6:	432a      	orrs	r2, r5
10003ce8:	0109      	lsls	r1, r1, #4
10003cea:	6011      	str	r1, [r2, #0]
10003cec:	2280      	movs	r2, #128	; 0x80
10003cee:	0052      	lsls	r2, r2, #1
10003cf0:	605a      	str	r2, [r3, #4]
10003cf2:	4b72      	ldr	r3, [pc, #456]	; (10003ebc <clocks_init+0x2b4>)
10003cf4:	6123      	str	r3, [r4, #16]
10003cf6:	4b72      	ldr	r3, [pc, #456]	; (10003ec0 <clocks_init+0x2b8>)
10003cf8:	6859      	ldr	r1, [r3, #4]
10003cfa:	29ff      	cmp	r1, #255	; 0xff
10003cfc:	d800      	bhi.n	10003d00 <clocks_init+0xf8>
10003cfe:	605a      	str	r2, [r3, #4]
10003d00:	2203      	movs	r2, #3
10003d02:	486f      	ldr	r0, [pc, #444]	; (10003ec0 <clocks_init+0x2b8>)
10003d04:	4b63      	ldr	r3, [pc, #396]	; (10003e94 <clocks_init+0x28c>)
10003d06:	2101      	movs	r1, #1
10003d08:	601a      	str	r2, [r3, #0]
10003d0a:	0002      	movs	r2, r0
10003d0c:	6893      	ldr	r3, [r2, #8]
10003d0e:	4219      	tst	r1, r3
10003d10:	d0fc      	beq.n	10003d0c <clocks_init+0x104>
10003d12:	25e0      	movs	r5, #224	; 0xe0
10003d14:	6813      	ldr	r3, [r2, #0]
10003d16:	401d      	ands	r5, r3
10003d18:	2380      	movs	r3, #128	; 0x80
10003d1a:	015b      	lsls	r3, r3, #5
10003d1c:	4303      	orrs	r3, r0
10003d1e:	601d      	str	r5, [r3, #0]
10003d20:	6812      	ldr	r2, [r2, #0]
10003d22:	404a      	eors	r2, r1
10003d24:	2103      	movs	r1, #3
10003d26:	4011      	ands	r1, r2
10003d28:	6019      	str	r1, [r3, #0]
10003d2a:	2102      	movs	r1, #2
10003d2c:	4a64      	ldr	r2, [pc, #400]	; (10003ec0 <clocks_init+0x2b8>)
10003d2e:	6893      	ldr	r3, [r2, #8]
10003d30:	4219      	tst	r1, r3
10003d32:	d0fc      	beq.n	10003d2e <clocks_init+0x126>
10003d34:	2380      	movs	r3, #128	; 0x80
10003d36:	2180      	movs	r1, #128	; 0x80
10003d38:	019b      	lsls	r3, r3, #6
10003d3a:	4303      	orrs	r3, r0
10003d3c:	0109      	lsls	r1, r1, #4
10003d3e:	6019      	str	r1, [r3, #0]
10003d40:	2180      	movs	r1, #128	; 0x80
10003d42:	4b60      	ldr	r3, [pc, #384]	; (10003ec4 <clocks_init+0x2bc>)
10003d44:	0049      	lsls	r1, r1, #1
10003d46:	6051      	str	r1, [r2, #4]
10003d48:	6163      	str	r3, [r4, #20]
10003d4a:	4b5f      	ldr	r3, [pc, #380]	; (10003ec8 <clocks_init+0x2c0>)
10003d4c:	685a      	ldr	r2, [r3, #4]
10003d4e:	2aff      	cmp	r2, #255	; 0xff
10003d50:	d800      	bhi.n	10003d54 <clocks_init+0x14c>
10003d52:	6059      	str	r1, [r3, #4]
10003d54:	2280      	movs	r2, #128	; 0x80
10003d56:	4b5d      	ldr	r3, [pc, #372]	; (10003ecc <clocks_init+0x2c4>)
10003d58:	69e1      	ldr	r1, [r4, #28]
10003d5a:	0112      	lsls	r2, r2, #4
10003d5c:	4d5a      	ldr	r5, [pc, #360]	; (10003ec8 <clocks_init+0x2c0>)
10003d5e:	601a      	str	r2, [r3, #0]
10003d60:	2900      	cmp	r1, #0
10003d62:	d005      	beq.n	10003d70 <clocks_init+0x168>
10003d64:	6960      	ldr	r0, [r4, #20]
10003d66:	f001 fe57 	bl	10005a18 <__wrap___aeabi_uidiv>
10003d6a:	3001      	adds	r0, #1
10003d6c:	3801      	subs	r0, #1
10003d6e:	d1fd      	bne.n	10003d6c <clocks_init+0x164>
10003d70:	22e0      	movs	r2, #224	; 0xe0
10003d72:	4955      	ldr	r1, [pc, #340]	; (10003ec8 <clocks_init+0x2c0>)
10003d74:	680b      	ldr	r3, [r1, #0]
10003d76:	401a      	ands	r2, r3
10003d78:	2380      	movs	r3, #128	; 0x80
10003d7a:	015b      	lsls	r3, r3, #5
10003d7c:	432b      	orrs	r3, r5
10003d7e:	601a      	str	r2, [r3, #0]
10003d80:	2380      	movs	r3, #128	; 0x80
10003d82:	2280      	movs	r2, #128	; 0x80
10003d84:	019b      	lsls	r3, r3, #6
10003d86:	432b      	orrs	r3, r5
10003d88:	0112      	lsls	r2, r2, #4
10003d8a:	601a      	str	r2, [r3, #0]
10003d8c:	2280      	movs	r2, #128	; 0x80
10003d8e:	4b3e      	ldr	r3, [pc, #248]	; (10003e88 <clocks_init+0x280>)
10003d90:	0052      	lsls	r2, r2, #1
10003d92:	604a      	str	r2, [r1, #4]
10003d94:	61e3      	str	r3, [r4, #28]
10003d96:	4b4e      	ldr	r3, [pc, #312]	; (10003ed0 <clocks_init+0x2c8>)
10003d98:	6859      	ldr	r1, [r3, #4]
10003d9a:	29ff      	cmp	r1, #255	; 0xff
10003d9c:	d800      	bhi.n	10003da0 <clocks_init+0x198>
10003d9e:	605a      	str	r2, [r3, #4]
10003da0:	2280      	movs	r2, #128	; 0x80
10003da2:	4b4c      	ldr	r3, [pc, #304]	; (10003ed4 <clocks_init+0x2cc>)
10003da4:	6a21      	ldr	r1, [r4, #32]
10003da6:	0112      	lsls	r2, r2, #4
10003da8:	4d49      	ldr	r5, [pc, #292]	; (10003ed0 <clocks_init+0x2c8>)
10003daa:	601a      	str	r2, [r3, #0]
10003dac:	2900      	cmp	r1, #0
10003dae:	d005      	beq.n	10003dbc <clocks_init+0x1b4>
10003db0:	6960      	ldr	r0, [r4, #20]
10003db2:	f001 fe31 	bl	10005a18 <__wrap___aeabi_uidiv>
10003db6:	3001      	adds	r0, #1
10003db8:	3801      	subs	r0, #1
10003dba:	d1fd      	bne.n	10003db8 <clocks_init+0x1b0>
10003dbc:	22e0      	movs	r2, #224	; 0xe0
10003dbe:	4944      	ldr	r1, [pc, #272]	; (10003ed0 <clocks_init+0x2c8>)
10003dc0:	680b      	ldr	r3, [r1, #0]
10003dc2:	401a      	ands	r2, r3
10003dc4:	2380      	movs	r3, #128	; 0x80
10003dc6:	015b      	lsls	r3, r3, #5
10003dc8:	432b      	orrs	r3, r5
10003dca:	601a      	str	r2, [r3, #0]
10003dcc:	2380      	movs	r3, #128	; 0x80
10003dce:	2280      	movs	r2, #128	; 0x80
10003dd0:	019b      	lsls	r3, r3, #6
10003dd2:	432b      	orrs	r3, r5
10003dd4:	0112      	lsls	r2, r2, #4
10003dd6:	601a      	str	r2, [r3, #0]
10003dd8:	2380      	movs	r3, #128	; 0x80
10003dda:	2280      	movs	r2, #128	; 0x80
10003ddc:	005b      	lsls	r3, r3, #1
10003dde:	604b      	str	r3, [r1, #4]
10003de0:	4b29      	ldr	r3, [pc, #164]	; (10003e88 <clocks_init+0x280>)
10003de2:	02d2      	lsls	r2, r2, #11
10003de4:	6223      	str	r3, [r4, #32]
10003de6:	4b3c      	ldr	r3, [pc, #240]	; (10003ed8 <clocks_init+0x2d0>)
10003de8:	6859      	ldr	r1, [r3, #4]
10003dea:	4291      	cmp	r1, r2
10003dec:	d200      	bcs.n	10003df0 <clocks_init+0x1e8>
10003dee:	605a      	str	r2, [r3, #4]
10003df0:	2280      	movs	r2, #128	; 0x80
10003df2:	4b3a      	ldr	r3, [pc, #232]	; (10003edc <clocks_init+0x2d4>)
10003df4:	6a61      	ldr	r1, [r4, #36]	; 0x24
10003df6:	0112      	lsls	r2, r2, #4
10003df8:	4d37      	ldr	r5, [pc, #220]	; (10003ed8 <clocks_init+0x2d0>)
10003dfa:	601a      	str	r2, [r3, #0]
10003dfc:	2900      	cmp	r1, #0
10003dfe:	d005      	beq.n	10003e0c <clocks_init+0x204>
10003e00:	6960      	ldr	r0, [r4, #20]
10003e02:	f001 fe09 	bl	10005a18 <__wrap___aeabi_uidiv>
10003e06:	3001      	adds	r0, #1
10003e08:	3801      	subs	r0, #1
10003e0a:	d1fd      	bne.n	10003e08 <clocks_init+0x200>
10003e0c:	22e0      	movs	r2, #224	; 0xe0
10003e0e:	4932      	ldr	r1, [pc, #200]	; (10003ed8 <clocks_init+0x2d0>)
10003e10:	680b      	ldr	r3, [r1, #0]
10003e12:	401a      	ands	r2, r3
10003e14:	2380      	movs	r3, #128	; 0x80
10003e16:	015b      	lsls	r3, r3, #5
10003e18:	432b      	orrs	r3, r5
10003e1a:	601a      	str	r2, [r3, #0]
10003e1c:	2380      	movs	r3, #128	; 0x80
10003e1e:	2280      	movs	r2, #128	; 0x80
10003e20:	019b      	lsls	r3, r3, #6
10003e22:	432b      	orrs	r3, r5
10003e24:	0112      	lsls	r2, r2, #4
10003e26:	601a      	str	r2, [r3, #0]
10003e28:	2380      	movs	r3, #128	; 0x80
10003e2a:	02db      	lsls	r3, r3, #11
10003e2c:	604b      	str	r3, [r1, #4]
10003e2e:	4b17      	ldr	r3, [pc, #92]	; (10003e8c <clocks_init+0x284>)
10003e30:	6263      	str	r3, [r4, #36]	; 0x24
10003e32:	4b2b      	ldr	r3, [pc, #172]	; (10003ee0 <clocks_init+0x2d8>)
10003e34:	685a      	ldr	r2, [r3, #4]
10003e36:	2aff      	cmp	r2, #255	; 0xff
10003e38:	d802      	bhi.n	10003e40 <clocks_init+0x238>
10003e3a:	2280      	movs	r2, #128	; 0x80
10003e3c:	0052      	lsls	r2, r2, #1
10003e3e:	605a      	str	r2, [r3, #4]
10003e40:	2280      	movs	r2, #128	; 0x80
10003e42:	4b28      	ldr	r3, [pc, #160]	; (10003ee4 <clocks_init+0x2dc>)
10003e44:	69a1      	ldr	r1, [r4, #24]
10003e46:	0112      	lsls	r2, r2, #4
10003e48:	4d25      	ldr	r5, [pc, #148]	; (10003ee0 <clocks_init+0x2d8>)
10003e4a:	601a      	str	r2, [r3, #0]
10003e4c:	2900      	cmp	r1, #0
10003e4e:	d005      	beq.n	10003e5c <clocks_init+0x254>
10003e50:	6960      	ldr	r0, [r4, #20]
10003e52:	f001 fde1 	bl	10005a18 <__wrap___aeabi_uidiv>
10003e56:	3001      	adds	r0, #1
10003e58:	3801      	subs	r0, #1
10003e5a:	d1fd      	bne.n	10003e58 <clocks_init+0x250>
10003e5c:	22e0      	movs	r2, #224	; 0xe0
10003e5e:	4920      	ldr	r1, [pc, #128]	; (10003ee0 <clocks_init+0x2d8>)
10003e60:	680b      	ldr	r3, [r1, #0]
10003e62:	401a      	ands	r2, r3
10003e64:	2380      	movs	r3, #128	; 0x80
10003e66:	015b      	lsls	r3, r3, #5
10003e68:	432b      	orrs	r3, r5
10003e6a:	601a      	str	r2, [r3, #0]
10003e6c:	2380      	movs	r3, #128	; 0x80
10003e6e:	2280      	movs	r2, #128	; 0x80
10003e70:	019b      	lsls	r3, r3, #6
10003e72:	432b      	orrs	r3, r5
10003e74:	0112      	lsls	r2, r2, #4
10003e76:	601a      	str	r2, [r3, #0]
10003e78:	2380      	movs	r3, #128	; 0x80
10003e7a:	005b      	lsls	r3, r3, #1
10003e7c:	604b      	str	r3, [r1, #4]
10003e7e:	4b11      	ldr	r3, [pc, #68]	; (10003ec4 <clocks_init+0x2bc>)
10003e80:	61a3      	str	r3, [r4, #24]
10003e82:	e6d7      	b.n	10003c34 <clocks_init+0x2c>
10003e84:	20000818 	.word	0x20000818
10003e88:	02dc6c00 	.word	0x02dc6c00
10003e8c:	0000b71b 	.word	0x0000b71b
10003e90:	40008000 	.word	0x40008000
10003e94:	4000b03c 	.word	0x4000b03c
10003e98:	4000b030 	.word	0x4000b030
10003e9c:	4000e000 	.word	0x4000e000
10003ea0:	4000f000 	.word	0x4000f000
10003ea4:	4000c000 	.word	0x4000c000
10003ea8:	59682f00 	.word	0x59682f00
10003eac:	40028000 	.word	0x40028000
10003eb0:	1c9c3800 	.word	0x1c9c3800
10003eb4:	4002c000 	.word	0x4002c000
10003eb8:	40008030 	.word	0x40008030
10003ebc:	00b71b00 	.word	0x00b71b00
10003ec0:	4000803c 	.word	0x4000803c
10003ec4:	07735940 	.word	0x07735940
10003ec8:	40008054 	.word	0x40008054
10003ecc:	4000b054 	.word	0x4000b054
10003ed0:	40008060 	.word	0x40008060
10003ed4:	4000b060 	.word	0x4000b060
10003ed8:	4000806c 	.word	0x4000806c
10003edc:	4000b06c 	.word	0x4000b06c
10003ee0:	40008048 	.word	0x40008048
10003ee4:	4000b048 	.word	0x4000b048

10003ee8 <clock_get_hz>:
10003ee8:	4b01      	ldr	r3, [pc, #4]	; (10003ef0 <clock_get_hz+0x8>)
10003eea:	0080      	lsls	r0, r0, #2
10003eec:	58c0      	ldr	r0, [r0, r3]
10003eee:	4770      	bx	lr
10003ef0:	20000818 	.word	0x20000818

10003ef4 <watchdog_start_tick>:
10003ef4:	2380      	movs	r3, #128	; 0x80
10003ef6:	4a02      	ldr	r2, [pc, #8]	; (10003f00 <watchdog_start_tick+0xc>)
10003ef8:	009b      	lsls	r3, r3, #2
10003efa:	4303      	orrs	r3, r0
10003efc:	62d3      	str	r3, [r2, #44]	; 0x2c
10003efe:	4770      	bx	lr
10003f00:	40058000 	.word	0x40058000

10003f04 <xosc_init>:
10003f04:	23aa      	movs	r3, #170	; 0xaa
10003f06:	4a06      	ldr	r2, [pc, #24]	; (10003f20 <xosc_init+0x1c>)
10003f08:	011b      	lsls	r3, r3, #4
10003f0a:	6013      	str	r3, [r2, #0]
10003f0c:	232f      	movs	r3, #47	; 0x2f
10003f0e:	4905      	ldr	r1, [pc, #20]	; (10003f24 <xosc_init+0x20>)
10003f10:	60d3      	str	r3, [r2, #12]
10003f12:	4b05      	ldr	r3, [pc, #20]	; (10003f28 <xosc_init+0x24>)
10003f14:	6019      	str	r1, [r3, #0]
10003f16:	6853      	ldr	r3, [r2, #4]
10003f18:	2b00      	cmp	r3, #0
10003f1a:	dafc      	bge.n	10003f16 <xosc_init+0x12>
10003f1c:	4770      	bx	lr
10003f1e:	46c0      	nop			; (mov r8, r8)
10003f20:	40024000 	.word	0x40024000
10003f24:	00fab000 	.word	0x00fab000
10003f28:	40026000 	.word	0x40026000

10003f2c <pll_init>:
10003f2c:	b5f8      	push	{r3, r4, r5, r6, r7, lr}
10003f2e:	001e      	movs	r6, r3
10003f30:	2301      	movs	r3, #1
10003f32:	425b      	negs	r3, r3
10003f34:	6043      	str	r3, [r0, #4]
10003f36:	2300      	movs	r3, #0
10003f38:	0004      	movs	r4, r0
10003f3a:	6083      	str	r3, [r0, #8]
10003f3c:	6001      	str	r1, [r0, #0]
10003f3e:	200c      	movs	r0, #12
10003f40:	0017      	movs	r7, r2
10003f42:	f001 fd69 	bl	10005a18 <__wrap___aeabi_uidiv>
10003f46:	0141      	lsls	r1, r0, #5
10003f48:	1a09      	subs	r1, r1, r0
10003f4a:	018d      	lsls	r5, r1, #6
10003f4c:	1a69      	subs	r1, r5, r1
10003f4e:	00c9      	lsls	r1, r1, #3
10003f50:	1809      	adds	r1, r1, r0
10003f52:	0189      	lsls	r1, r1, #6
10003f54:	0038      	movs	r0, r7
10003f56:	f001 fd5f 	bl	10005a18 <__wrap___aeabi_uidiv>
10003f5a:	21c0      	movs	r1, #192	; 0xc0
10003f5c:	1d23      	adds	r3, r4, #4
10003f5e:	0189      	lsls	r1, r1, #6
10003f60:	4319      	orrs	r1, r3
10003f62:	2321      	movs	r3, #33	; 0x21
10003f64:	60a0      	str	r0, [r4, #8]
10003f66:	600b      	str	r3, [r1, #0]
10003f68:	6822      	ldr	r2, [r4, #0]
10003f6a:	2a00      	cmp	r2, #0
10003f6c:	dafc      	bge.n	10003f68 <pll_init+0x3c>
10003f6e:	9b06      	ldr	r3, [sp, #24]
10003f70:	0436      	lsls	r6, r6, #16
10003f72:	031b      	lsls	r3, r3, #12
10003f74:	431e      	orrs	r6, r3
10003f76:	2308      	movs	r3, #8
10003f78:	60e6      	str	r6, [r4, #12]
10003f7a:	600b      	str	r3, [r1, #0]
10003f7c:	bdf8      	pop	{r3, r4, r5, r6, r7, pc}
10003f7e:	46c0      	nop			; (mov r8, r8)

10003f80 <irq_set_enabled>:
10003f80:	2301      	movs	r3, #1
10003f82:	4083      	lsls	r3, r0
10003f84:	2900      	cmp	r1, #0
10003f86:	d004      	beq.n	10003f92 <irq_set_enabled+0x12>
10003f88:	4a03      	ldr	r2, [pc, #12]	; (10003f98 <irq_set_enabled+0x18>)
10003f8a:	6013      	str	r3, [r2, #0]
10003f8c:	4a03      	ldr	r2, [pc, #12]	; (10003f9c <irq_set_enabled+0x1c>)
10003f8e:	6013      	str	r3, [r2, #0]
10003f90:	4770      	bx	lr
10003f92:	4a03      	ldr	r2, [pc, #12]	; (10003fa0 <irq_set_enabled+0x20>)
10003f94:	6013      	str	r3, [r2, #0]
10003f96:	e7fb      	b.n	10003f90 <irq_set_enabled+0x10>
10003f98:	e000e280 	.word	0xe000e280
10003f9c:	e000e100 	.word	0xe000e100
10003fa0:	e000e180 	.word	0xe000e180

10003fa4 <irq_get_vtable_handler>:
10003fa4:	4b02      	ldr	r3, [pc, #8]	; (10003fb0 <irq_get_vtable_handler+0xc>)
10003fa6:	3010      	adds	r0, #16
10003fa8:	689b      	ldr	r3, [r3, #8]
10003faa:	0080      	lsls	r0, r0, #2
10003fac:	58c0      	ldr	r0, [r0, r3]
10003fae:	4770      	bx	lr
10003fb0:	e000ed00 	.word	0xe000ed00

10003fb4 <irq_set_exclusive_handler>:
10003fb4:	b570      	push	{r4, r5, r6, lr}
10003fb6:	000d      	movs	r5, r1
10003fb8:	f3ef 8610 	mrs	r6, PRIMASK
10003fbc:	b672      	cpsid	i
10003fbe:	4a0f      	ldr	r2, [pc, #60]	; (10003ffc <irq_set_exclusive_handler+0x48>)
10003fc0:	6813      	ldr	r3, [r2, #0]
10003fc2:	2b00      	cmp	r3, #0
10003fc4:	d0fc      	beq.n	10003fc0 <irq_set_exclusive_handler+0xc>
10003fc6:	f3bf 8f5f 	dmb	sy
10003fca:	4b0d      	ldr	r3, [pc, #52]	; (10004000 <irq_set_exclusive_handler+0x4c>)
10003fcc:	3010      	adds	r0, #16
10003fce:	689b      	ldr	r3, [r3, #8]
10003fd0:	0084      	lsls	r4, r0, #2
10003fd2:	591b      	ldr	r3, [r3, r4]
10003fd4:	4a0b      	ldr	r2, [pc, #44]	; (10004004 <irq_set_exclusive_handler+0x50>)
10003fd6:	4293      	cmp	r3, r2
10003fd8:	d003      	beq.n	10003fe2 <irq_set_exclusive_handler+0x2e>
10003fda:	429d      	cmp	r5, r3
10003fdc:	d001      	beq.n	10003fe2 <irq_set_exclusive_handler+0x2e>
10003fde:	f7ff fe0d 	bl	10003bfc <hard_assertion_failure>
10003fe2:	4b07      	ldr	r3, [pc, #28]	; (10004000 <irq_set_exclusive_handler+0x4c>)
10003fe4:	689b      	ldr	r3, [r3, #8]
10003fe6:	511d      	str	r5, [r3, r4]
10003fe8:	f3bf 8f5f 	dmb	sy
10003fec:	f3bf 8f5f 	dmb	sy
10003ff0:	2200      	movs	r2, #0
10003ff2:	4b02      	ldr	r3, [pc, #8]	; (10003ffc <irq_set_exclusive_handler+0x48>)
10003ff4:	601a      	str	r2, [r3, #0]
10003ff6:	f386 8810 	msr	PRIMASK, r6
10003ffa:	bd70      	pop	{r4, r5, r6, pc}
10003ffc:	d0000124 	.word	0xd0000124
10004000:	e000ed00 	.word	0xe000ed00
10004004:	100001cd 	.word	0x100001cd

10004008 <irq_remove_handler>:
10004008:	b5f0      	push	{r4, r5, r6, r7, lr}
1000400a:	46de      	mov	lr, fp
1000400c:	4657      	mov	r7, sl
1000400e:	464e      	mov	r6, r9
10004010:	4645      	mov	r5, r8
10004012:	b5e0      	push	{r5, r6, r7, lr}
10004014:	000c      	movs	r4, r1
10004016:	b083      	sub	sp, #12
10004018:	f3ef 8a10 	mrs	sl, PRIMASK
1000401c:	b672      	cpsid	i
1000401e:	4a5b      	ldr	r2, [pc, #364]	; (1000418c <irq_remove_handler+0x184>)
10004020:	6813      	ldr	r3, [r2, #0]
10004022:	2b00      	cmp	r3, #0
10004024:	d0fc      	beq.n	10004020 <irq_remove_handler+0x18>
10004026:	f3bf 8f5f 	dmb	sy
1000402a:	2210      	movs	r2, #16
1000402c:	4691      	mov	r9, r2
1000402e:	4481      	add	r9, r0
10004030:	464a      	mov	r2, r9
10004032:	4b57      	ldr	r3, [pc, #348]	; (10004190 <irq_remove_handler+0x188>)
10004034:	0096      	lsls	r6, r2, #2
10004036:	689b      	ldr	r3, [r3, #8]
10004038:	599d      	ldr	r5, [r3, r6]
1000403a:	4b56      	ldr	r3, [pc, #344]	; (10004194 <irq_remove_handler+0x18c>)
1000403c:	4698      	mov	r8, r3
1000403e:	429d      	cmp	r5, r3
10004040:	d005      	beq.n	1000404e <irq_remove_handler+0x46>
10004042:	42a5      	cmp	r5, r4
10004044:	d016      	beq.n	10004074 <irq_remove_handler+0x6c>
10004046:	4f54      	ldr	r7, [pc, #336]	; (10004198 <irq_remove_handler+0x190>)
10004048:	1beb      	subs	r3, r5, r7
1000404a:	2b2f      	cmp	r3, #47	; 0x2f
1000404c:	d914      	bls.n	10004078 <irq_remove_handler+0x70>
1000404e:	4b50      	ldr	r3, [pc, #320]	; (10004190 <irq_remove_handler+0x188>)
10004050:	689b      	ldr	r3, [r3, #8]
10004052:	519d      	str	r5, [r3, r6]
10004054:	f3bf 8f5f 	dmb	sy
10004058:	f3bf 8f5f 	dmb	sy
1000405c:	2200      	movs	r2, #0
1000405e:	4b4b      	ldr	r3, [pc, #300]	; (1000418c <irq_remove_handler+0x184>)
10004060:	601a      	str	r2, [r3, #0]
10004062:	f38a 8810 	msr	PRIMASK, sl
10004066:	b003      	add	sp, #12
10004068:	bc3c      	pop	{r2, r3, r4, r5}
1000406a:	4690      	mov	r8, r2
1000406c:	4699      	mov	r9, r3
1000406e:	46a2      	mov	sl, r4
10004070:	46ab      	mov	fp, r5
10004072:	bdf0      	pop	{r4, r5, r6, r7, pc}
10004074:	001d      	movs	r5, r3
10004076:	e7ea      	b.n	1000404e <irq_remove_handler+0x46>
10004078:	2301      	movs	r3, #1
1000407a:	4083      	lsls	r3, r0
1000407c:	469b      	mov	fp, r3
1000407e:	465a      	mov	r2, fp
10004080:	4b46      	ldr	r3, [pc, #280]	; (1000419c <irq_remove_handler+0x194>)
10004082:	681b      	ldr	r3, [r3, #0]
10004084:	401a      	ands	r2, r3
10004086:	9200      	str	r2, [sp, #0]
10004088:	465a      	mov	r2, fp
1000408a:	4b45      	ldr	r3, [pc, #276]	; (100041a0 <irq_remove_handler+0x198>)
1000408c:	601a      	str	r2, [r3, #0]
1000408e:	f3bf 8f5f 	dmb	sy
10004092:	f7fc f8e8 	bl	10000266 <__get_current_exception>
10004096:	9001      	str	r0, [sp, #4]
10004098:	2800      	cmp	r0, #0
1000409a:	d003      	beq.n	100040a4 <irq_remove_handler+0x9c>
1000409c:	4581      	cmp	r9, r0
1000409e:	d001      	beq.n	100040a4 <irq_remove_handler+0x9c>
100040a0:	f7ff fdac 	bl	10003bfc <hard_assertion_failure>
100040a4:	2301      	movs	r3, #1
100040a6:	002a      	movs	r2, r5
100040a8:	439a      	bics	r2, r3
100040aa:	0013      	movs	r3, r2
100040ac:	1bdb      	subs	r3, r3, r7
100040ae:	415b      	adcs	r3, r3
100040b0:	4942      	ldr	r1, [pc, #264]	; (100041bc <irq_remove_handler+0x1b4>)
100040b2:	4359      	muls	r1, r3
100040b4:	0d09      	lsrs	r1, r1, #20
100040b6:	6893      	ldr	r3, [r2, #8]
100040b8:	429c      	cmp	r4, r3
100040ba:	d108      	bne.n	100040ce <irq_remove_handler+0xc6>
100040bc:	e05b      	b.n	10004176 <irq_remove_handler+0x16e>
100040be:	0043      	lsls	r3, r0, #1
100040c0:	181b      	adds	r3, r3, r0
100040c2:	009b      	lsls	r3, r3, #2
100040c4:	18fb      	adds	r3, r7, r3
100040c6:	6898      	ldr	r0, [r3, #8]
100040c8:	42a0      	cmp	r0, r4
100040ca:	d011      	beq.n	100040f0 <irq_remove_handler+0xe8>
100040cc:	001a      	movs	r2, r3
100040ce:	2006      	movs	r0, #6
100040d0:	5610      	ldrsb	r0, [r2, r0]
100040d2:	2800      	cmp	r0, #0
100040d4:	daf3      	bge.n	100040be <irq_remove_handler+0xb6>
100040d6:	9b00      	ldr	r3, [sp, #0]
100040d8:	2b00      	cmp	r3, #0
100040da:	d005      	beq.n	100040e8 <irq_remove_handler+0xe0>
100040dc:	465a      	mov	r2, fp
100040de:	4b31      	ldr	r3, [pc, #196]	; (100041a4 <irq_remove_handler+0x19c>)
100040e0:	601a      	str	r2, [r3, #0]
100040e2:	4b2e      	ldr	r3, [pc, #184]	; (1000419c <irq_remove_handler+0x194>)
100040e4:	601a      	str	r2, [r3, #0]
100040e6:	e7b2      	b.n	1000404e <irq_remove_handler+0x46>
100040e8:	465a      	mov	r2, fp
100040ea:	4b2d      	ldr	r3, [pc, #180]	; (100041a0 <irq_remove_handler+0x198>)
100040ec:	601a      	str	r2, [r3, #0]
100040ee:	e7ae      	b.n	1000404e <irq_remove_handler+0x46>
100040f0:	2006      	movs	r0, #6
100040f2:	5618      	ldrsb	r0, [r3, r0]
100040f4:	2800      	cmp	r0, #0
100040f6:	db22      	blt.n	1000413e <irq_remove_handler+0x136>
100040f8:	0042      	lsls	r2, r0, #1
100040fa:	1811      	adds	r1, r2, r0
100040fc:	0089      	lsls	r1, r1, #2
100040fe:	187c      	adds	r4, r7, r1
10004100:	4688      	mov	r8, r1
10004102:	68a1      	ldr	r1, [r4, #8]
10004104:	6099      	str	r1, [r3, #8]
10004106:	79e1      	ldrb	r1, [r4, #7]
10004108:	71d9      	strb	r1, [r3, #7]
1000410a:	2106      	movs	r1, #6
1000410c:	5661      	ldrsb	r1, [r4, r1]
1000410e:	7199      	strb	r1, [r3, #6]
10004110:	79a1      	ldrb	r1, [r4, #6]
10004112:	297f      	cmp	r1, #127	; 0x7f
10004114:	d81f      	bhi.n	10004156 <irq_remove_handler+0x14e>
10004116:	88a4      	ldrh	r4, [r4, #4]
10004118:	1af9      	subs	r1, r7, r3
1000411a:	0564      	lsls	r4, r4, #21
1000411c:	1524      	asrs	r4, r4, #20
1000411e:	4444      	add	r4, r8
10004120:	1909      	adds	r1, r1, r4
10004122:	24e0      	movs	r4, #224	; 0xe0
10004124:	0509      	lsls	r1, r1, #20
10004126:	0d49      	lsrs	r1, r1, #21
10004128:	0224      	lsls	r4, r4, #8
1000412a:	4321      	orrs	r1, r4
1000412c:	8099      	strh	r1, [r3, #4]
1000412e:	1812      	adds	r2, r2, r0
10004130:	4b1d      	ldr	r3, [pc, #116]	; (100041a8 <irq_remove_handler+0x1a0>)
10004132:	0092      	lsls	r2, r2, #2
10004134:	18bf      	adds	r7, r7, r2
10004136:	781a      	ldrb	r2, [r3, #0]
10004138:	7018      	strb	r0, [r3, #0]
1000413a:	71ba      	strb	r2, [r7, #6]
1000413c:	e7cb      	b.n	100040d6 <irq_remove_handler+0xce>
1000413e:	9801      	ldr	r0, [sp, #4]
10004140:	2800      	cmp	r0, #0
10004142:	d10b      	bne.n	1000415c <irq_remove_handler+0x154>
10004144:	30ff      	adds	r0, #255	; 0xff
10004146:	7190      	strb	r0, [r2, #6]
10004148:	4818      	ldr	r0, [pc, #96]	; (100041ac <irq_remove_handler+0x1a4>)
1000414a:	8090      	strh	r0, [r2, #4]
1000414c:	4a16      	ldr	r2, [pc, #88]	; (100041a8 <irq_remove_handler+0x1a0>)
1000414e:	7810      	ldrb	r0, [r2, #0]
10004150:	7011      	strb	r1, [r2, #0]
10004152:	7198      	strb	r0, [r3, #6]
10004154:	e7bf      	b.n	100040d6 <irq_remove_handler+0xce>
10004156:	21bd      	movs	r1, #189	; 0xbd
10004158:	0209      	lsls	r1, r1, #8
1000415a:	e7e7      	b.n	1000412c <irq_remove_handler+0x124>
1000415c:	4a14      	ldr	r2, [pc, #80]	; (100041b0 <irq_remove_handler+0x1a8>)
1000415e:	4915      	ldr	r1, [pc, #84]	; (100041b4 <irq_remove_handler+0x1ac>)
10004160:	1ad2      	subs	r2, r2, r3
10004162:	3a08      	subs	r2, #8
10004164:	0250      	lsls	r0, r2, #9
10004166:	0d40      	lsrs	r0, r0, #21
10004168:	4301      	orrs	r1, r0
1000416a:	8099      	strh	r1, [r3, #4]
1000416c:	4912      	ldr	r1, [pc, #72]	; (100041b8 <irq_remove_handler+0x1b0>)
1000416e:	0852      	lsrs	r2, r2, #1
10004170:	430a      	orrs	r2, r1
10004172:	80da      	strh	r2, [r3, #6]
10004174:	e7af      	b.n	100040d6 <irq_remove_handler+0xce>
10004176:	2006      	movs	r0, #6
10004178:	5610      	ldrsb	r0, [r2, r0]
1000417a:	0013      	movs	r3, r2
1000417c:	2800      	cmp	r0, #0
1000417e:	dabb      	bge.n	100040f8 <irq_remove_handler+0xf0>
10004180:	9a01      	ldr	r2, [sp, #4]
10004182:	2a00      	cmp	r2, #0
10004184:	d1ea      	bne.n	1000415c <irq_remove_handler+0x154>
10004186:	4645      	mov	r5, r8
10004188:	e7e0      	b.n	1000414c <irq_remove_handler+0x144>
1000418a:	46c0      	nop			; (mov r8, r8)
1000418c:	d0000124 	.word	0xd0000124
10004190:	e000ed00 	.word	0xe000ed00
10004194:	100001cd 	.word	0x100001cd
10004198:	2000020c 	.word	0x2000020c
1000419c:	e000e100 	.word	0xe000e100
100041a0:	e000e180 	.word	0xe000e180
100041a4:	e000e280 	.word	0xe000e280
100041a8:	200008c9 	.word	0x200008c9
100041ac:	ffffbd00 	.word	0xffffbd00
100041b0:	20000246 	.word	0x20000246
100041b4:	fffff000 	.word	0xfffff000
100041b8:	fffff800 	.word	0xfffff800
100041bc:	0000aaaa 	.word	0x0000aaaa

100041c0 <irq_add_tail_to_free_list>:
100041c0:	b5f8      	push	{r3, r4, r5, r6, r7, lr}
100041c2:	2501      	movs	r5, #1
100041c4:	0004      	movs	r4, r0
100041c6:	4305      	orrs	r5, r0
100041c8:	f7fc f84d 	bl	10000266 <__get_current_exception>
100041cc:	0002      	movs	r2, r0
100041ce:	f3ef 8610 	mrs	r6, PRIMASK
100041d2:	b672      	cpsid	i
100041d4:	4921      	ldr	r1, [pc, #132]	; (1000425c <irq_add_tail_to_free_list+0x9c>)
100041d6:	680b      	ldr	r3, [r1, #0]
100041d8:	2b00      	cmp	r3, #0
100041da:	d0fc      	beq.n	100041d6 <irq_add_tail_to_free_list+0x16>
100041dc:	f3bf 8f5f 	dmb	sy
100041e0:	491f      	ldr	r1, [pc, #124]	; (10004260 <irq_add_tail_to_free_list+0xa0>)
100041e2:	0020      	movs	r0, r4
100041e4:	1a40      	subs	r0, r0, r1
100041e6:	4140      	adcs	r0, r0
100041e8:	4b22      	ldr	r3, [pc, #136]	; (10004274 <irq_add_tail_to_free_list+0xb4>)
100041ea:	4343      	muls	r3, r0
100041ec:	0d1b      	lsrs	r3, r3, #20
100041ee:	481d      	ldr	r0, [pc, #116]	; (10004264 <irq_add_tail_to_free_list+0xa4>)
100041f0:	0092      	lsls	r2, r2, #2
100041f2:	6887      	ldr	r7, [r0, #8]
100041f4:	b25b      	sxtb	r3, r3
100041f6:	58bf      	ldr	r7, [r7, r2]
100041f8:	42af      	cmp	r7, r5
100041fa:	d01c      	beq.n	10004236 <irq_add_tail_to_free_list+0x76>
100041fc:	2206      	movs	r2, #6
100041fe:	568a      	ldrsb	r2, [r1, r2]
10004200:	429a      	cmp	r2, r3
10004202:	d01c      	beq.n	1000423e <irq_add_tail_to_free_list+0x7e>
10004204:	2212      	movs	r2, #18
10004206:	568a      	ldrsb	r2, [r1, r2]
10004208:	429a      	cmp	r2, r3
1000420a:	d022      	beq.n	10004252 <irq_add_tail_to_free_list+0x92>
1000420c:	221e      	movs	r2, #30
1000420e:	568a      	ldrsb	r2, [r1, r2]
10004210:	429a      	cmp	r2, r3
10004212:	d020      	beq.n	10004256 <irq_add_tail_to_free_list+0x96>
10004214:	222a      	movs	r2, #42	; 0x2a
10004216:	568a      	ldrsb	r2, [r1, r2]
10004218:	2003      	movs	r0, #3
1000421a:	429a      	cmp	r2, r3
1000421c:	d010      	beq.n	10004240 <irq_add_tail_to_free_list+0x80>
1000421e:	4a12      	ldr	r2, [pc, #72]	; (10004268 <irq_add_tail_to_free_list+0xa8>)
10004220:	7811      	ldrb	r1, [r2, #0]
10004222:	7013      	strb	r3, [r2, #0]
10004224:	71a1      	strb	r1, [r4, #6]
10004226:	f3bf 8f5f 	dmb	sy
1000422a:	2200      	movs	r2, #0
1000422c:	4b0b      	ldr	r3, [pc, #44]	; (1000425c <irq_add_tail_to_free_list+0x9c>)
1000422e:	601a      	str	r2, [r3, #0]
10004230:	f386 8810 	msr	PRIMASK, r6
10004234:	bdf8      	pop	{r3, r4, r5, r6, r7, pc}
10004236:	6881      	ldr	r1, [r0, #8]
10004238:	480c      	ldr	r0, [pc, #48]	; (1000426c <irq_add_tail_to_free_list+0xac>)
1000423a:	5088      	str	r0, [r1, r2]
1000423c:	e7ef      	b.n	1000421e <irq_add_tail_to_free_list+0x5e>
1000423e:	2000      	movs	r0, #0
10004240:	0042      	lsls	r2, r0, #1
10004242:	1812      	adds	r2, r2, r0
10004244:	0092      	lsls	r2, r2, #2
10004246:	1889      	adds	r1, r1, r2
10004248:	22ff      	movs	r2, #255	; 0xff
1000424a:	718a      	strb	r2, [r1, #6]
1000424c:	4a08      	ldr	r2, [pc, #32]	; (10004270 <irq_add_tail_to_free_list+0xb0>)
1000424e:	808a      	strh	r2, [r1, #4]
10004250:	e7e5      	b.n	1000421e <irq_add_tail_to_free_list+0x5e>
10004252:	2001      	movs	r0, #1
10004254:	e7f4      	b.n	10004240 <irq_add_tail_to_free_list+0x80>
10004256:	2002      	movs	r0, #2
10004258:	e7f2      	b.n	10004240 <irq_add_tail_to_free_list+0x80>
1000425a:	46c0      	nop			; (mov r8, r8)
1000425c:	d0000124 	.word	0xd0000124
10004260:	2000020c 	.word	0x2000020c
10004264:	e000ed00 	.word	0xe000ed00
10004268:	200008c9 	.word	0x200008c9
1000426c:	100001cd 	.word	0x100001cd
10004270:	ffffbd00 	.word	0xffffbd00
10004274:	0000aaaa 	.word	0x0000aaaa

10004278 <irq_init_priorities>:
10004278:	b5f0      	push	{r4, r5, r6, r7, lr}
1000427a:	2200      	movs	r2, #0
1000427c:	2403      	movs	r4, #3
1000427e:	27ff      	movs	r7, #255	; 0xff
10004280:	2680      	movs	r6, #128	; 0x80
10004282:	0020      	movs	r0, r4
10004284:	003d      	movs	r5, r7
10004286:	4b09      	ldr	r3, [pc, #36]	; (100042ac <irq_init_priorities+0x34>)
10004288:	0011      	movs	r1, r2
1000428a:	469c      	mov	ip, r3
1000428c:	4010      	ands	r0, r2
1000428e:	00c0      	lsls	r0, r0, #3
10004290:	4085      	lsls	r5, r0
10004292:	43a1      	bics	r1, r4
10004294:	4461      	add	r1, ip
10004296:	680b      	ldr	r3, [r1, #0]
10004298:	3201      	adds	r2, #1
1000429a:	43ab      	bics	r3, r5
1000429c:	0035      	movs	r5, r6
1000429e:	4085      	lsls	r5, r0
100042a0:	432b      	orrs	r3, r5
100042a2:	600b      	str	r3, [r1, #0]
100042a4:	2a20      	cmp	r2, #32
100042a6:	d1ec      	bne.n	10004282 <irq_init_priorities+0xa>
100042a8:	bdf0      	pop	{r4, r5, r6, r7, pc}
100042aa:	46c0      	nop			; (mov r8, r8)
100042ac:	e000e400 	.word	0xe000e400

100042b0 <_out_buffer>:
100042b0:	429a      	cmp	r2, r3
100042b2:	d200      	bcs.n	100042b6 <_out_buffer+0x6>
100042b4:	5488      	strb	r0, [r1, r2]
100042b6:	4770      	bx	lr

100042b8 <_out_null>:
100042b8:	4770      	bx	lr
100042ba:	46c0      	nop			; (mov r8, r8)

100042bc <_out_rev>:
100042bc:	b5f8      	push	{r3, r4, r5, r6, r7, lr}
100042be:	4657      	mov	r7, sl
100042c0:	464e      	mov	r6, r9
100042c2:	46de      	mov	lr, fp
100042c4:	4645      	mov	r5, r8
100042c6:	b5e0      	push	{r5, r6, r7, lr}
100042c8:	001f      	movs	r7, r3
100042ca:	9b0a      	ldr	r3, [sp, #40]	; 0x28
100042cc:	0005      	movs	r5, r0
100042ce:	469b      	mov	fp, r3
100042d0:	9b0d      	ldr	r3, [sp, #52]	; 0x34
100042d2:	000e      	movs	r6, r1
100042d4:	4691      	mov	r9, r2
100042d6:	4692      	mov	sl, r2
100042d8:	079b      	lsls	r3, r3, #30
100042da:	d118      	bne.n	1000430e <_out_rev+0x52>
100042dc:	9b0b      	ldr	r3, [sp, #44]	; 0x2c
100042de:	9a0c      	ldr	r2, [sp, #48]	; 0x30
100042e0:	4293      	cmp	r3, r2
100042e2:	d214      	bcs.n	1000430e <_out_rev+0x52>
100042e4:	0013      	movs	r3, r2
100042e6:	9a0b      	ldr	r2, [sp, #44]	; 0x2c
100042e8:	46b8      	mov	r8, r7
100042ea:	1a9b      	subs	r3, r3, r2
100042ec:	444b      	add	r3, r9
100042ee:	464c      	mov	r4, r9
100042f0:	000f      	movs	r7, r1
100042f2:	0006      	movs	r6, r0
100042f4:	001d      	movs	r5, r3
100042f6:	0022      	movs	r2, r4
100042f8:	4643      	mov	r3, r8
100042fa:	3401      	adds	r4, #1
100042fc:	0039      	movs	r1, r7
100042fe:	2020      	movs	r0, #32
10004300:	47b0      	blx	r6
10004302:	42ac      	cmp	r4, r5
10004304:	d1f7      	bne.n	100042f6 <_out_rev+0x3a>
10004306:	46aa      	mov	sl, r5
10004308:	0035      	movs	r5, r6
1000430a:	003e      	movs	r6, r7
1000430c:	4647      	mov	r7, r8
1000430e:	9b0b      	ldr	r3, [sp, #44]	; 0x2c
10004310:	2b00      	cmp	r3, #0
10004312:	d038      	beq.n	10004386 <_out_rev+0xca>
10004314:	449a      	add	sl, r3
10004316:	001c      	movs	r4, r3
10004318:	46d0      	mov	r8, sl
1000431a:	4653      	mov	r3, sl
1000431c:	1b1a      	subs	r2, r3, r4
1000431e:	465b      	mov	r3, fp
10004320:	3c01      	subs	r4, #1
10004322:	5d18      	ldrb	r0, [r3, r4]
10004324:	0031      	movs	r1, r6
10004326:	003b      	movs	r3, r7
10004328:	47a8      	blx	r5
1000432a:	2c00      	cmp	r4, #0
1000432c:	d1f5      	bne.n	1000431a <_out_rev+0x5e>
1000432e:	9b0d      	ldr	r3, [sp, #52]	; 0x34
10004330:	079b      	lsls	r3, r3, #30
10004332:	d521      	bpl.n	10004378 <_out_rev+0xbc>
10004334:	4643      	mov	r3, r8
10004336:	464a      	mov	r2, r9
10004338:	1a9c      	subs	r4, r3, r2
1000433a:	9b0c      	ldr	r3, [sp, #48]	; 0x30
1000433c:	42a3      	cmp	r3, r4
1000433e:	d91b      	bls.n	10004378 <_out_rev+0xbc>
10004340:	003a      	movs	r2, r7
10004342:	469a      	mov	sl, r3
10004344:	464f      	mov	r7, r9
10004346:	4691      	mov	r9, r2
10004348:	19e2      	adds	r2, r4, r7
1000434a:	464b      	mov	r3, r9
1000434c:	0031      	movs	r1, r6
1000434e:	2020      	movs	r0, #32
10004350:	3401      	adds	r4, #1
10004352:	47a8      	blx	r5
10004354:	4554      	cmp	r4, sl
10004356:	d3f7      	bcc.n	10004348 <_out_rev+0x8c>
10004358:	4643      	mov	r3, r8
1000435a:	990c      	ldr	r1, [sp, #48]	; 0x30
1000435c:	1bdb      	subs	r3, r3, r7
1000435e:	3301      	adds	r3, #1
10004360:	46b9      	mov	r9, r7
10004362:	2200      	movs	r2, #0
10004364:	4299      	cmp	r1, r3
10004366:	d303      	bcc.n	10004370 <_out_rev+0xb4>
10004368:	4643      	mov	r3, r8
1000436a:	1e4a      	subs	r2, r1, #1
1000436c:	444a      	add	r2, r9
1000436e:	1ad2      	subs	r2, r2, r3
10004370:	4643      	mov	r3, r8
10004372:	4690      	mov	r8, r2
10004374:	3301      	adds	r3, #1
10004376:	4498      	add	r8, r3
10004378:	4640      	mov	r0, r8
1000437a:	bc3c      	pop	{r2, r3, r4, r5}
1000437c:	4690      	mov	r8, r2
1000437e:	4699      	mov	r9, r3
10004380:	46a2      	mov	sl, r4
10004382:	46ab      	mov	fp, r5
10004384:	bdf8      	pop	{r3, r4, r5, r6, r7, pc}
10004386:	46d0      	mov	r8, sl
10004388:	e7d1      	b.n	1000432e <_out_rev+0x72>
1000438a:	46c0      	nop			; (mov r8, r8)

1000438c <_ntoa_format>:
1000438c:	b5f0      	push	{r4, r5, r6, r7, lr}
1000438e:	464f      	mov	r7, r9
10004390:	4646      	mov	r6, r8
10004392:	46d6      	mov	lr, sl
10004394:	b5c0      	push	{r6, r7, lr}
10004396:	b084      	sub	sp, #16
10004398:	4698      	mov	r8, r3
1000439a:	ab0e      	add	r3, sp, #56	; 0x38
1000439c:	781b      	ldrb	r3, [r3, #0]
1000439e:	9f12      	ldr	r7, [sp, #72]	; 0x48
100043a0:	4699      	mov	r9, r3
100043a2:	4694      	mov	ip, r2
100043a4:	9c0d      	ldr	r4, [sp, #52]	; 0x34
100043a6:	9b10      	ldr	r3, [sp, #64]	; 0x40
100043a8:	9e11      	ldr	r6, [sp, #68]	; 0x44
100043aa:	07ba      	lsls	r2, r7, #30
100043ac:	d425      	bmi.n	100043fa <_ntoa_format+0x6e>
100043ae:	2e00      	cmp	r6, #0
100043b0:	d169      	bne.n	10004486 <_ntoa_format+0xfa>
100043b2:	429c      	cmp	r4, r3
100043b4:	d300      	bcc.n	100043b8 <_ntoa_format+0x2c>
100043b6:	e0c2      	b.n	1000453e <_ntoa_format+0x1b2>
100043b8:	2201      	movs	r2, #1
100043ba:	403a      	ands	r2, r7
100043bc:	4692      	mov	sl, r2
100043be:	2c1f      	cmp	r4, #31
100043c0:	d900      	bls.n	100043c4 <_ntoa_format+0x38>
100043c2:	e0bb      	b.n	1000453c <_ntoa_format+0x1b0>
100043c4:	9a0c      	ldr	r2, [sp, #48]	; 0x30
100043c6:	1e55      	subs	r5, r2, #1
100043c8:	2230      	movs	r2, #48	; 0x30
100043ca:	e001      	b.n	100043d0 <_ntoa_format+0x44>
100043cc:	2c20      	cmp	r4, #32
100043ce:	d003      	beq.n	100043d8 <_ntoa_format+0x4c>
100043d0:	3401      	adds	r4, #1
100043d2:	552a      	strb	r2, [r5, r4]
100043d4:	42a3      	cmp	r3, r4
100043d6:	d8f9      	bhi.n	100043cc <_ntoa_format+0x40>
100043d8:	4652      	mov	r2, sl
100043da:	2a00      	cmp	r2, #0
100043dc:	d00d      	beq.n	100043fa <_ntoa_format+0x6e>
100043de:	42b4      	cmp	r4, r6
100043e0:	d20b      	bcs.n	100043fa <_ntoa_format+0x6e>
100043e2:	2c1f      	cmp	r4, #31
100043e4:	d862      	bhi.n	100044ac <_ntoa_format+0x120>
100043e6:	9a0c      	ldr	r2, [sp, #48]	; 0x30
100043e8:	1e55      	subs	r5, r2, #1
100043ea:	2230      	movs	r2, #48	; 0x30
100043ec:	e001      	b.n	100043f2 <_ntoa_format+0x66>
100043ee:	2c20      	cmp	r4, #32
100043f0:	d05c      	beq.n	100044ac <_ntoa_format+0x120>
100043f2:	3401      	adds	r4, #1
100043f4:	552a      	strb	r2, [r5, r4]
100043f6:	42b4      	cmp	r4, r6
100043f8:	d1f9      	bne.n	100043ee <_ntoa_format+0x62>
100043fa:	06fa      	lsls	r2, r7, #27
100043fc:	d535      	bpl.n	1000446a <_ntoa_format+0xde>
100043fe:	057a      	lsls	r2, r7, #21
10004400:	d45d      	bmi.n	100044be <_ntoa_format+0x132>
10004402:	2c00      	cmp	r4, #0
10004404:	d157      	bne.n	100044b6 <_ntoa_format+0x12a>
10004406:	9b0f      	ldr	r3, [sp, #60]	; 0x3c
10004408:	2b10      	cmp	r3, #16
1000440a:	d100      	bne.n	1000440e <_ntoa_format+0x82>
1000440c:	e07c      	b.n	10004508 <_ntoa_format+0x17c>
1000440e:	9b0f      	ldr	r3, [sp, #60]	; 0x3c
10004410:	2b02      	cmp	r3, #2
10004412:	d100      	bne.n	10004416 <_ntoa_format+0x8a>
10004414:	e08d      	b.n	10004532 <_ntoa_format+0x1a6>
10004416:	2330      	movs	r3, #48	; 0x30
10004418:	9a0c      	ldr	r2, [sp, #48]	; 0x30
1000441a:	2401      	movs	r4, #1
1000441c:	7013      	strb	r3, [r2, #0]
1000441e:	464b      	mov	r3, r9
10004420:	2b00      	cmp	r3, #0
10004422:	d027      	beq.n	10004474 <_ntoa_format+0xe8>
10004424:	232d      	movs	r3, #45	; 0x2d
10004426:	9a0c      	ldr	r2, [sp, #48]	; 0x30
10004428:	5513      	strb	r3, [r2, r4]
1000442a:	3401      	adds	r4, #1
1000442c:	9b0c      	ldr	r3, [sp, #48]	; 0x30
1000442e:	4662      	mov	r2, ip
10004430:	9300      	str	r3, [sp, #0]
10004432:	9703      	str	r7, [sp, #12]
10004434:	4643      	mov	r3, r8
10004436:	9602      	str	r6, [sp, #8]
10004438:	9401      	str	r4, [sp, #4]
1000443a:	f7ff ff3f 	bl	100042bc <_out_rev>
1000443e:	b004      	add	sp, #16
10004440:	bc1c      	pop	{r2, r3, r4}
10004442:	4690      	mov	r8, r2
10004444:	4699      	mov	r9, r3
10004446:	46a2      	mov	sl, r4
10004448:	bdf0      	pop	{r4, r5, r6, r7, pc}
1000444a:	06bb      	lsls	r3, r7, #26
1000444c:	d463      	bmi.n	10004516 <_ntoa_format+0x18a>
1000444e:	2c20      	cmp	r4, #32
10004450:	d0ec      	beq.n	1000442c <_ntoa_format+0xa0>
10004452:	9b0c      	ldr	r3, [sp, #48]	; 0x30
10004454:	191a      	adds	r2, r3, r4
10004456:	3401      	adds	r4, #1
10004458:	2378      	movs	r3, #120	; 0x78
1000445a:	7013      	strb	r3, [r2, #0]
1000445c:	2c20      	cmp	r4, #32
1000445e:	d0e5      	beq.n	1000442c <_ntoa_format+0xa0>
10004460:	2230      	movs	r2, #48	; 0x30
10004462:	9b0c      	ldr	r3, [sp, #48]	; 0x30
10004464:	191b      	adds	r3, r3, r4
10004466:	701a      	strb	r2, [r3, #0]
10004468:	3401      	adds	r4, #1
1000446a:	2c20      	cmp	r4, #32
1000446c:	d0de      	beq.n	1000442c <_ntoa_format+0xa0>
1000446e:	464b      	mov	r3, r9
10004470:	2b00      	cmp	r3, #0
10004472:	d1d7      	bne.n	10004424 <_ntoa_format+0x98>
10004474:	077b      	lsls	r3, r7, #29
10004476:	d435      	bmi.n	100044e4 <_ntoa_format+0x158>
10004478:	073b      	lsls	r3, r7, #28
1000447a:	d5d7      	bpl.n	1000442c <_ntoa_format+0xa0>
1000447c:	2320      	movs	r3, #32
1000447e:	9a0c      	ldr	r2, [sp, #48]	; 0x30
10004480:	5513      	strb	r3, [r2, r4]
10004482:	3401      	adds	r4, #1
10004484:	e7d2      	b.n	1000442c <_ntoa_format+0xa0>
10004486:	2201      	movs	r2, #1
10004488:	0015      	movs	r5, r2
1000448a:	403d      	ands	r5, r7
1000448c:	46aa      	mov	sl, r5
1000448e:	423a      	tst	r2, r7
10004490:	d020      	beq.n	100044d4 <_ntoa_format+0x148>
10004492:	464a      	mov	r2, r9
10004494:	2a00      	cmp	r2, #0
10004496:	d12a      	bne.n	100044ee <_ntoa_format+0x162>
10004498:	320c      	adds	r2, #12
1000449a:	423a      	tst	r2, r7
1000449c:	d127      	bne.n	100044ee <_ntoa_format+0x162>
1000449e:	429c      	cmp	r4, r3
100044a0:	d29d      	bcs.n	100043de <_ntoa_format+0x52>
100044a2:	2c1f      	cmp	r4, #31
100044a4:	d800      	bhi.n	100044a8 <_ntoa_format+0x11c>
100044a6:	e78d      	b.n	100043c4 <_ntoa_format+0x38>
100044a8:	2e20      	cmp	r6, #32
100044aa:	d919      	bls.n	100044e0 <_ntoa_format+0x154>
100044ac:	2420      	movs	r4, #32
100044ae:	06fa      	lsls	r2, r7, #27
100044b0:	d5bc      	bpl.n	1000442c <_ntoa_format+0xa0>
100044b2:	057a      	lsls	r2, r7, #21
100044b4:	d403      	bmi.n	100044be <_ntoa_format+0x132>
100044b6:	42a3      	cmp	r3, r4
100044b8:	d01b      	beq.n	100044f2 <_ntoa_format+0x166>
100044ba:	42a6      	cmp	r6, r4
100044bc:	d019      	beq.n	100044f2 <_ntoa_format+0x166>
100044be:	9b0f      	ldr	r3, [sp, #60]	; 0x3c
100044c0:	2b10      	cmp	r3, #16
100044c2:	d0c2      	beq.n	1000444a <_ntoa_format+0xbe>
100044c4:	2b02      	cmp	r3, #2
100044c6:	d1c9      	bne.n	1000445c <_ntoa_format+0xd0>
100044c8:	2c20      	cmp	r4, #32
100044ca:	d0af      	beq.n	1000442c <_ntoa_format+0xa0>
100044cc:	9b0c      	ldr	r3, [sp, #48]	; 0x30
100044ce:	191b      	adds	r3, r3, r4
100044d0:	3401      	adds	r4, #1
100044d2:	e040      	b.n	10004556 <_ntoa_format+0x1ca>
100044d4:	429c      	cmp	r4, r3
100044d6:	d300      	bcc.n	100044da <_ntoa_format+0x14e>
100044d8:	e78f      	b.n	100043fa <_ntoa_format+0x6e>
100044da:	2c1f      	cmp	r4, #31
100044dc:	d800      	bhi.n	100044e0 <_ntoa_format+0x154>
100044de:	e771      	b.n	100043c4 <_ntoa_format+0x38>
100044e0:	2420      	movs	r4, #32
100044e2:	e78a      	b.n	100043fa <_ntoa_format+0x6e>
100044e4:	232b      	movs	r3, #43	; 0x2b
100044e6:	9a0c      	ldr	r2, [sp, #48]	; 0x30
100044e8:	5513      	strb	r3, [r2, r4]
100044ea:	3401      	adds	r4, #1
100044ec:	e79e      	b.n	1000442c <_ntoa_format+0xa0>
100044ee:	3e01      	subs	r6, #1
100044f0:	e7d5      	b.n	1000449e <_ntoa_format+0x112>
100044f2:	1e63      	subs	r3, r4, #1
100044f4:	2c01      	cmp	r4, #1
100044f6:	d100      	bne.n	100044fa <_ntoa_format+0x16e>
100044f8:	e785      	b.n	10004406 <_ntoa_format+0x7a>
100044fa:	9a0f      	ldr	r2, [sp, #60]	; 0x3c
100044fc:	2a10      	cmp	r2, #16
100044fe:	d020      	beq.n	10004542 <_ntoa_format+0x1b6>
10004500:	2a02      	cmp	r2, #2
10004502:	d025      	beq.n	10004550 <_ntoa_format+0x1c4>
10004504:	001c      	movs	r4, r3
10004506:	e7ab      	b.n	10004460 <_ntoa_format+0xd4>
10004508:	06bb      	lsls	r3, r7, #26
1000450a:	d40d      	bmi.n	10004528 <_ntoa_format+0x19c>
1000450c:	2378      	movs	r3, #120	; 0x78
1000450e:	9a0c      	ldr	r2, [sp, #48]	; 0x30
10004510:	2401      	movs	r4, #1
10004512:	7013      	strb	r3, [r2, #0]
10004514:	e7a4      	b.n	10004460 <_ntoa_format+0xd4>
10004516:	2c20      	cmp	r4, #32
10004518:	d100      	bne.n	1000451c <_ntoa_format+0x190>
1000451a:	e787      	b.n	1000442c <_ntoa_format+0xa0>
1000451c:	2258      	movs	r2, #88	; 0x58
1000451e:	9b0c      	ldr	r3, [sp, #48]	; 0x30
10004520:	191b      	adds	r3, r3, r4
10004522:	701a      	strb	r2, [r3, #0]
10004524:	3401      	adds	r4, #1
10004526:	e799      	b.n	1000445c <_ntoa_format+0xd0>
10004528:	2358      	movs	r3, #88	; 0x58
1000452a:	9a0c      	ldr	r2, [sp, #48]	; 0x30
1000452c:	2401      	movs	r4, #1
1000452e:	7013      	strb	r3, [r2, #0]
10004530:	e796      	b.n	10004460 <_ntoa_format+0xd4>
10004532:	9a0c      	ldr	r2, [sp, #48]	; 0x30
10004534:	3360      	adds	r3, #96	; 0x60
10004536:	2401      	movs	r4, #1
10004538:	7013      	strb	r3, [r2, #0]
1000453a:	e791      	b.n	10004460 <_ntoa_format+0xd4>
1000453c:	2420      	movs	r4, #32
1000453e:	2600      	movs	r6, #0
10004540:	e75b      	b.n	100043fa <_ntoa_format+0x6e>
10004542:	3c02      	subs	r4, #2
10004544:	06ba      	lsls	r2, r7, #26
10004546:	d4e9      	bmi.n	1000451c <_ntoa_format+0x190>
10004548:	9a0c      	ldr	r2, [sp, #48]	; 0x30
1000454a:	1912      	adds	r2, r2, r4
1000454c:	001c      	movs	r4, r3
1000454e:	e783      	b.n	10004458 <_ntoa_format+0xcc>
10004550:	9a0c      	ldr	r2, [sp, #48]	; 0x30
10004552:	4692      	mov	sl, r2
10004554:	4453      	add	r3, sl
10004556:	2262      	movs	r2, #98	; 0x62
10004558:	701a      	strb	r2, [r3, #0]
1000455a:	e77f      	b.n	1000445c <_ntoa_format+0xd0>

1000455c <_out_char>:
1000455c:	b510      	push	{r4, lr}
1000455e:	2800      	cmp	r0, #0
10004560:	d100      	bne.n	10004564 <_out_char+0x8>
10004562:	bd10      	pop	{r4, pc}
10004564:	f002 fef8 	bl	10007358 <__wrap_putchar>
10004568:	e7fb      	b.n	10004562 <_out_char+0x6>
1000456a:	46c0      	nop			; (mov r8, r8)

1000456c <_out_fct>:
1000456c:	000b      	movs	r3, r1
1000456e:	b510      	push	{r4, lr}
10004570:	2800      	cmp	r0, #0
10004572:	d002      	beq.n	1000457a <_out_fct+0xe>
10004574:	6849      	ldr	r1, [r1, #4]
10004576:	681b      	ldr	r3, [r3, #0]
10004578:	4798      	blx	r3
1000457a:	bd10      	pop	{r4, pc}

1000457c <_etoa>:
1000457c:	b5f0      	push	{r4, r5, r6, r7, lr}
1000457e:	46de      	mov	lr, fp
10004580:	4657      	mov	r7, sl
10004582:	4645      	mov	r5, r8
10004584:	464e      	mov	r6, r9
10004586:	b5e0      	push	{r5, r6, r7, lr}
10004588:	b09b      	sub	sp, #108	; 0x6c
1000458a:	469b      	mov	fp, r3
1000458c:	9b24      	ldr	r3, [sp, #144]	; 0x90
1000458e:	900a      	str	r0, [sp, #40]	; 0x28
10004590:	4698      	mov	r8, r3
10004592:	9b25      	ldr	r3, [sp, #148]	; 0x94
10004594:	910b      	str	r1, [sp, #44]	; 0x2c
10004596:	920c      	str	r2, [sp, #48]	; 0x30
10004598:	4640      	mov	r0, r8
1000459a:	4642      	mov	r2, r8
1000459c:	0019      	movs	r1, r3
1000459e:	469a      	mov	sl, r3
100045a0:	f001 fd03 	bl	10005faa <__wrap___aeabi_dcmpun>
100045a4:	2800      	cmp	r0, #0
100045a6:	d000      	beq.n	100045aa <_etoa+0x2e>
100045a8:	e0e8      	b.n	1000477c <_etoa+0x200>
100045aa:	2201      	movs	r2, #1
100045ac:	4640      	mov	r0, r8
100045ae:	4651      	mov	r1, sl
100045b0:	4b7f      	ldr	r3, [pc, #508]	; (100047b0 <_etoa+0x234>)
100045b2:	4252      	negs	r2, r2
100045b4:	f001 fcf4 	bl	10005fa0 <__wrap___aeabi_dcmpgt>
100045b8:	2800      	cmp	r0, #0
100045ba:	d000      	beq.n	100045be <_etoa+0x42>
100045bc:	e0de      	b.n	1000477c <_etoa+0x200>
100045be:	2201      	movs	r2, #1
100045c0:	4640      	mov	r0, r8
100045c2:	4651      	mov	r1, sl
100045c4:	4b7b      	ldr	r3, [pc, #492]	; (100047b4 <_etoa+0x238>)
100045c6:	4252      	negs	r2, r2
100045c8:	f001 fcd4 	bl	10005f74 <__wrap___aeabi_dcmplt>
100045cc:	2800      	cmp	r0, #0
100045ce:	d000      	beq.n	100045d2 <_etoa+0x56>
100045d0:	e0d4      	b.n	1000477c <_etoa+0x200>
100045d2:	2200      	movs	r2, #0
100045d4:	2300      	movs	r3, #0
100045d6:	4640      	mov	r0, r8
100045d8:	4651      	mov	r1, sl
100045da:	f001 fccb 	bl	10005f74 <__wrap___aeabi_dcmplt>
100045de:	2800      	cmp	r0, #0
100045e0:	d000      	beq.n	100045e4 <_etoa+0x68>
100045e2:	e1ca      	b.n	1000497a <_etoa+0x3fe>
100045e4:	4653      	mov	r3, sl
100045e6:	46c1      	mov	r9, r8
100045e8:	9309      	str	r3, [sp, #36]	; 0x24
100045ea:	2380      	movs	r3, #128	; 0x80
100045ec:	9a28      	ldr	r2, [sp, #160]	; 0xa0
100045ee:	00db      	lsls	r3, r3, #3
100045f0:	401a      	ands	r2, r3
100045f2:	920e      	str	r2, [sp, #56]	; 0x38
100045f4:	9a28      	ldr	r2, [sp, #160]	; 0xa0
100045f6:	421a      	tst	r2, r3
100045f8:	d101      	bne.n	100045fe <_etoa+0x82>
100045fa:	2306      	movs	r3, #6
100045fc:	9326      	str	r3, [sp, #152]	; 0x98
100045fe:	464c      	mov	r4, r9
10004600:	9b09      	ldr	r3, [sp, #36]	; 0x24
10004602:	4323      	orrs	r3, r4
10004604:	d000      	beq.n	10004608 <_etoa+0x8c>
10004606:	e0d9      	b.n	100047bc <_etoa+0x240>
10004608:	9b28      	ldr	r3, [sp, #160]	; 0xa0
1000460a:	2600      	movs	r6, #0
1000460c:	2700      	movs	r7, #0
1000460e:	051b      	lsls	r3, r3, #20
10004610:	d400      	bmi.n	10004614 <_etoa+0x98>
10004612:	e1ae      	b.n	10004972 <_etoa+0x3f6>
10004614:	2300      	movs	r3, #0
10004616:	930d      	str	r3, [sp, #52]	; 0x34
10004618:	9b26      	ldr	r3, [sp, #152]	; 0x98
1000461a:	0019      	movs	r1, r3
1000461c:	9b0d      	ldr	r3, [sp, #52]	; 0x34
1000461e:	4299      	cmp	r1, r3
10004620:	dc00      	bgt.n	10004624 <_etoa+0xa8>
10004622:	e1b0      	b.n	10004986 <_etoa+0x40a>
10004624:	1ac8      	subs	r0, r1, r3
10004626:	1e43      	subs	r3, r0, #1
10004628:	9326      	str	r3, [sp, #152]	; 0x98
1000462a:	2380      	movs	r3, #128	; 0x80
1000462c:	9a28      	ldr	r2, [sp, #160]	; 0xa0
1000462e:	00db      	lsls	r3, r3, #3
10004630:	431a      	orrs	r2, r3
10004632:	2300      	movs	r3, #0
10004634:	2500      	movs	r5, #0
10004636:	9228      	str	r2, [sp, #160]	; 0xa0
10004638:	930d      	str	r3, [sp, #52]	; 0x34
1000463a:	9b27      	ldr	r3, [sp, #156]	; 0x9c
1000463c:	2400      	movs	r4, #0
1000463e:	42ab      	cmp	r3, r5
10004640:	d900      	bls.n	10004644 <_etoa+0xc8>
10004642:	1b5c      	subs	r4, r3, r5
10004644:	2302      	movs	r3, #2
10004646:	9a28      	ldr	r2, [sp, #160]	; 0xa0
10004648:	401a      	ands	r2, r3
1000464a:	920e      	str	r2, [sp, #56]	; 0x38
1000464c:	9a28      	ldr	r2, [sp, #160]	; 0xa0
1000464e:	4213      	tst	r3, r2
10004650:	d003      	beq.n	1000465a <_etoa+0xde>
10004652:	426b      	negs	r3, r5
10004654:	416b      	adcs	r3, r5
10004656:	425b      	negs	r3, r3
10004658:	401c      	ands	r4, r3
1000465a:	9b0d      	ldr	r3, [sp, #52]	; 0x34
1000465c:	2b00      	cmp	r3, #0
1000465e:	d007      	beq.n	10004670 <_etoa+0xf4>
10004660:	4648      	mov	r0, r9
10004662:	9909      	ldr	r1, [sp, #36]	; 0x24
10004664:	0032      	movs	r2, r6
10004666:	003b      	movs	r3, r7
10004668:	f001 fc39 	bl	10005ede <__wrap___aeabi_ddiv>
1000466c:	4681      	mov	r9, r0
1000466e:	9109      	str	r1, [sp, #36]	; 0x24
10004670:	2200      	movs	r2, #0
10004672:	2300      	movs	r3, #0
10004674:	4640      	mov	r0, r8
10004676:	4651      	mov	r1, sl
10004678:	f001 fc7c 	bl	10005f74 <__wrap___aeabi_dcmplt>
1000467c:	2800      	cmp	r0, #0
1000467e:	d005      	beq.n	1000468c <_etoa+0x110>
10004680:	2080      	movs	r0, #128	; 0x80
10004682:	0600      	lsls	r0, r0, #24
10004684:	4684      	mov	ip, r0
10004686:	9909      	ldr	r1, [sp, #36]	; 0x24
10004688:	4461      	add	r1, ip
1000468a:	9109      	str	r1, [sp, #36]	; 0x24
1000468c:	9a28      	ldr	r2, [sp, #160]	; 0xa0
1000468e:	4b4a      	ldr	r3, [pc, #296]	; (100047b8 <_etoa+0x23c>)
10004690:	9e0a      	ldr	r6, [sp, #40]	; 0x28
10004692:	4013      	ands	r3, r2
10004694:	464a      	mov	r2, r9
10004696:	9304      	str	r3, [sp, #16]
10004698:	9b26      	ldr	r3, [sp, #152]	; 0x98
1000469a:	990b      	ldr	r1, [sp, #44]	; 0x2c
1000469c:	9302      	str	r3, [sp, #8]
1000469e:	9b09      	ldr	r3, [sp, #36]	; 0x24
100046a0:	9403      	str	r4, [sp, #12]
100046a2:	9200      	str	r2, [sp, #0]
100046a4:	9301      	str	r3, [sp, #4]
100046a6:	0030      	movs	r0, r6
100046a8:	465b      	mov	r3, fp
100046aa:	9a0c      	ldr	r2, [sp, #48]	; 0x30
100046ac:	4688      	mov	r8, r1
100046ae:	f000 f9a1 	bl	100049f4 <_ftoa>
100046b2:	0004      	movs	r4, r0
100046b4:	2d00      	cmp	r5, #0
100046b6:	d072      	beq.n	1000479e <_etoa+0x222>
100046b8:	9b28      	ldr	r3, [sp, #160]	; 0xa0
100046ba:	0022      	movs	r2, r4
100046bc:	0698      	lsls	r0, r3, #26
100046be:	231f      	movs	r3, #31
100046c0:	17c0      	asrs	r0, r0, #31
100046c2:	4398      	bics	r0, r3
100046c4:	4641      	mov	r1, r8
100046c6:	465b      	mov	r3, fp
100046c8:	3065      	adds	r0, #101	; 0x65
100046ca:	47b0      	blx	r6
100046cc:	9b0d      	ldr	r3, [sp, #52]	; 0x34
100046ce:	1c67      	adds	r7, r4, #1
100046d0:	17da      	asrs	r2, r3, #31
100046d2:	189c      	adds	r4, r3, r2
100046d4:	0fdb      	lsrs	r3, r3, #31
100046d6:	4698      	mov	r8, r3
100046d8:	1e6b      	subs	r3, r5, #1
100046da:	4699      	mov	r9, r3
100046dc:	2500      	movs	r5, #0
100046de:	4054      	eors	r4, r2
100046e0:	e001      	b.n	100046e6 <_etoa+0x16a>
100046e2:	2d20      	cmp	r5, #32
100046e4:	d013      	beq.n	1000470e <_etoa+0x192>
100046e6:	aa0a      	add	r2, sp, #40	; 0x28
100046e8:	4694      	mov	ip, r2
100046ea:	231f      	movs	r3, #31
100046ec:	0020      	movs	r0, r4
100046ee:	4463      	add	r3, ip
100046f0:	210a      	movs	r1, #10
100046f2:	3501      	adds	r5, #1
100046f4:	195e      	adds	r6, r3, r5
100046f6:	f001 f98f 	bl	10005a18 <__wrap___aeabi_uidiv>
100046fa:	3130      	adds	r1, #48	; 0x30
100046fc:	7031      	strb	r1, [r6, #0]
100046fe:	0020      	movs	r0, r4
10004700:	210a      	movs	r1, #10
10004702:	f001 f989 	bl	10005a18 <__wrap___aeabi_uidiv>
10004706:	0026      	movs	r6, r4
10004708:	0004      	movs	r4, r0
1000470a:	2e09      	cmp	r6, #9
1000470c:	d8e9      	bhi.n	100046e2 <_etoa+0x166>
1000470e:	2305      	movs	r3, #5
10004710:	9306      	str	r3, [sp, #24]
10004712:	464b      	mov	r3, r9
10004714:	9305      	str	r3, [sp, #20]
10004716:	2300      	movs	r3, #0
10004718:	9304      	str	r3, [sp, #16]
1000471a:	330a      	adds	r3, #10
1000471c:	9303      	str	r3, [sp, #12]
1000471e:	4643      	mov	r3, r8
10004720:	003a      	movs	r2, r7
10004722:	9e0a      	ldr	r6, [sp, #40]	; 0x28
10004724:	9f0b      	ldr	r7, [sp, #44]	; 0x2c
10004726:	9302      	str	r3, [sp, #8]
10004728:	ab12      	add	r3, sp, #72	; 0x48
1000472a:	9300      	str	r3, [sp, #0]
1000472c:	0039      	movs	r1, r7
1000472e:	465b      	mov	r3, fp
10004730:	0030      	movs	r0, r6
10004732:	9501      	str	r5, [sp, #4]
10004734:	f7ff fe2a 	bl	1000438c <_ntoa_format>
10004738:	9b0e      	ldr	r3, [sp, #56]	; 0x38
1000473a:	0004      	movs	r4, r0
1000473c:	2b00      	cmp	r3, #0
1000473e:	d02e      	beq.n	1000479e <_etoa+0x222>
10004740:	9b0c      	ldr	r3, [sp, #48]	; 0x30
10004742:	9a27      	ldr	r2, [sp, #156]	; 0x9c
10004744:	1ac5      	subs	r5, r0, r3
10004746:	42aa      	cmp	r2, r5
10004748:	d929      	bls.n	1000479e <_etoa+0x222>
1000474a:	003c      	movs	r4, r7
1000474c:	4681      	mov	r9, r0
1000474e:	4698      	mov	r8, r3
10004750:	0017      	movs	r7, r2
10004752:	4643      	mov	r3, r8
10004754:	0021      	movs	r1, r4
10004756:	195a      	adds	r2, r3, r5
10004758:	2020      	movs	r0, #32
1000475a:	465b      	mov	r3, fp
1000475c:	3501      	adds	r5, #1
1000475e:	47b0      	blx	r6
10004760:	42af      	cmp	r7, r5
10004762:	d8f6      	bhi.n	10004752 <_etoa+0x1d6>
10004764:	464c      	mov	r4, r9
10004766:	990c      	ldr	r1, [sp, #48]	; 0x30
10004768:	9827      	ldr	r0, [sp, #156]	; 0x9c
1000476a:	1a63      	subs	r3, r4, r1
1000476c:	3301      	adds	r3, #1
1000476e:	2200      	movs	r2, #0
10004770:	4298      	cmp	r0, r3
10004772:	d300      	bcc.n	10004776 <_etoa+0x1fa>
10004774:	e10a      	b.n	1000498c <_etoa+0x410>
10004776:	3401      	adds	r4, #1
10004778:	1914      	adds	r4, r2, r4
1000477a:	e010      	b.n	1000479e <_etoa+0x222>
1000477c:	9b28      	ldr	r3, [sp, #160]	; 0xa0
1000477e:	4642      	mov	r2, r8
10004780:	9304      	str	r3, [sp, #16]
10004782:	9b27      	ldr	r3, [sp, #156]	; 0x9c
10004784:	990b      	ldr	r1, [sp, #44]	; 0x2c
10004786:	9303      	str	r3, [sp, #12]
10004788:	9b26      	ldr	r3, [sp, #152]	; 0x98
1000478a:	980a      	ldr	r0, [sp, #40]	; 0x28
1000478c:	9302      	str	r3, [sp, #8]
1000478e:	4653      	mov	r3, sl
10004790:	9200      	str	r2, [sp, #0]
10004792:	9301      	str	r3, [sp, #4]
10004794:	465b      	mov	r3, fp
10004796:	9a0c      	ldr	r2, [sp, #48]	; 0x30
10004798:	f000 f92c 	bl	100049f4 <_ftoa>
1000479c:	0004      	movs	r4, r0
1000479e:	0020      	movs	r0, r4
100047a0:	b01b      	add	sp, #108	; 0x6c
100047a2:	bc3c      	pop	{r2, r3, r4, r5}
100047a4:	4690      	mov	r8, r2
100047a6:	4699      	mov	r9, r3
100047a8:	46a2      	mov	sl, r4
100047aa:	46ab      	mov	fp, r5
100047ac:	bdf0      	pop	{r4, r5, r6, r7, pc}
100047ae:	46c0      	nop			; (mov r8, r8)
100047b0:	7fefffff 	.word	0x7fefffff
100047b4:	ffefffff 	.word	0xffefffff
100047b8:	fffff7ff 	.word	0xfffff7ff
100047bc:	4b76      	ldr	r3, [pc, #472]	; (10004998 <_etoa+0x41c>)
100047be:	9d09      	ldr	r5, [sp, #36]	; 0x24
100047c0:	469c      	mov	ip, r3
100047c2:	0068      	lsls	r0, r5, #1
100047c4:	0d40      	lsrs	r0, r0, #21
100047c6:	4460      	add	r0, ip
100047c8:	f001 fc02 	bl	10005fd0 <__wrap___aeabi_i2d>
100047cc:	4a73      	ldr	r2, [pc, #460]	; (1000499c <_etoa+0x420>)
100047ce:	4b74      	ldr	r3, [pc, #464]	; (100049a0 <_etoa+0x424>)
100047d0:	f001 fb8e 	bl	10005ef0 <__wrap___aeabi_dmul>
100047d4:	4a73      	ldr	r2, [pc, #460]	; (100049a4 <_etoa+0x428>)
100047d6:	4b74      	ldr	r3, [pc, #464]	; (100049a8 <_etoa+0x42c>)
100047d8:	f001 fb78 	bl	10005ecc <__wrap___aeabi_dadd>
100047dc:	032b      	lsls	r3, r5, #12
100047de:	4a73      	ldr	r2, [pc, #460]	; (100049ac <_etoa+0x430>)
100047e0:	0b1b      	lsrs	r3, r3, #12
100047e2:	431a      	orrs	r2, r3
100047e4:	0006      	movs	r6, r0
100047e6:	000f      	movs	r7, r1
100047e8:	4b71      	ldr	r3, [pc, #452]	; (100049b0 <_etoa+0x434>)
100047ea:	0011      	movs	r1, r2
100047ec:	4648      	mov	r0, r9
100047ee:	2200      	movs	r2, #0
100047f0:	9509      	str	r5, [sp, #36]	; 0x24
100047f2:	f001 fb62 	bl	10005eba <__wrap___aeabi_dsub>
100047f6:	4a6f      	ldr	r2, [pc, #444]	; (100049b4 <_etoa+0x438>)
100047f8:	4b6f      	ldr	r3, [pc, #444]	; (100049b8 <_etoa+0x43c>)
100047fa:	f001 fb79 	bl	10005ef0 <__wrap___aeabi_dmul>
100047fe:	0002      	movs	r2, r0
10004800:	000b      	movs	r3, r1
10004802:	0030      	movs	r0, r6
10004804:	0039      	movs	r1, r7
10004806:	f001 fb61 	bl	10005ecc <__wrap___aeabi_dadd>
1000480a:	f001 fbf9 	bl	10006000 <__wrap___aeabi_d2iz>
1000480e:	900d      	str	r0, [sp, #52]	; 0x34
10004810:	f001 fbde 	bl	10005fd0 <__wrap___aeabi_i2d>
10004814:	4a69      	ldr	r2, [pc, #420]	; (100049bc <_etoa+0x440>)
10004816:	4b6a      	ldr	r3, [pc, #424]	; (100049c0 <_etoa+0x444>)
10004818:	0004      	movs	r4, r0
1000481a:	000d      	movs	r5, r1
1000481c:	f001 fb68 	bl	10005ef0 <__wrap___aeabi_dmul>
10004820:	2200      	movs	r2, #0
10004822:	4b68      	ldr	r3, [pc, #416]	; (100049c4 <_etoa+0x448>)
10004824:	f001 fb52 	bl	10005ecc <__wrap___aeabi_dadd>
10004828:	f001 fbea 	bl	10006000 <__wrap___aeabi_d2iz>
1000482c:	4a66      	ldr	r2, [pc, #408]	; (100049c8 <_etoa+0x44c>)
1000482e:	0006      	movs	r6, r0
10004830:	4b66      	ldr	r3, [pc, #408]	; (100049cc <_etoa+0x450>)
10004832:	0020      	movs	r0, r4
10004834:	0029      	movs	r1, r5
10004836:	f001 fb5b 	bl	10005ef0 <__wrap___aeabi_dmul>
1000483a:	0004      	movs	r4, r0
1000483c:	0030      	movs	r0, r6
1000483e:	000d      	movs	r5, r1
10004840:	960f      	str	r6, [sp, #60]	; 0x3c
10004842:	f001 fbc5 	bl	10005fd0 <__wrap___aeabi_i2d>
10004846:	4a62      	ldr	r2, [pc, #392]	; (100049d0 <_etoa+0x454>)
10004848:	4b62      	ldr	r3, [pc, #392]	; (100049d4 <_etoa+0x458>)
1000484a:	f001 fb51 	bl	10005ef0 <__wrap___aeabi_dmul>
1000484e:	0002      	movs	r2, r0
10004850:	000b      	movs	r3, r1
10004852:	0020      	movs	r0, r4
10004854:	0029      	movs	r1, r5
10004856:	f001 fb30 	bl	10005eba <__wrap___aeabi_dsub>
1000485a:	0002      	movs	r2, r0
1000485c:	000b      	movs	r3, r1
1000485e:	0006      	movs	r6, r0
10004860:	000f      	movs	r7, r1
10004862:	f001 fb45 	bl	10005ef0 <__wrap___aeabi_dmul>
10004866:	0032      	movs	r2, r6
10004868:	0004      	movs	r4, r0
1000486a:	000d      	movs	r5, r1
1000486c:	003b      	movs	r3, r7
1000486e:	0030      	movs	r0, r6
10004870:	0039      	movs	r1, r7
10004872:	f001 fb2b 	bl	10005ecc <__wrap___aeabi_dadd>
10004876:	2200      	movs	r2, #0
10004878:	9010      	str	r0, [sp, #64]	; 0x40
1000487a:	9111      	str	r1, [sp, #68]	; 0x44
1000487c:	4b56      	ldr	r3, [pc, #344]	; (100049d8 <_etoa+0x45c>)
1000487e:	0020      	movs	r0, r4
10004880:	0029      	movs	r1, r5
10004882:	f001 fb2c 	bl	10005ede <__wrap___aeabi_ddiv>
10004886:	2200      	movs	r2, #0
10004888:	4b54      	ldr	r3, [pc, #336]	; (100049dc <_etoa+0x460>)
1000488a:	f001 fb1f 	bl	10005ecc <__wrap___aeabi_dadd>
1000488e:	0002      	movs	r2, r0
10004890:	000b      	movs	r3, r1
10004892:	0020      	movs	r0, r4
10004894:	0029      	movs	r1, r5
10004896:	f001 fb22 	bl	10005ede <__wrap___aeabi_ddiv>
1000489a:	2200      	movs	r2, #0
1000489c:	4b50      	ldr	r3, [pc, #320]	; (100049e0 <_etoa+0x464>)
1000489e:	f001 fb15 	bl	10005ecc <__wrap___aeabi_dadd>
100048a2:	0002      	movs	r2, r0
100048a4:	000b      	movs	r3, r1
100048a6:	0020      	movs	r0, r4
100048a8:	0029      	movs	r1, r5
100048aa:	f001 fb18 	bl	10005ede <__wrap___aeabi_ddiv>
100048ae:	000d      	movs	r5, r1
100048b0:	2180      	movs	r1, #128	; 0x80
100048b2:	0032      	movs	r2, r6
100048b4:	003b      	movs	r3, r7
100048b6:	0004      	movs	r4, r0
100048b8:	05c9      	lsls	r1, r1, #23
100048ba:	2000      	movs	r0, #0
100048bc:	f001 fafd 	bl	10005eba <__wrap___aeabi_dsub>
100048c0:	0002      	movs	r2, r0
100048c2:	000b      	movs	r3, r1
100048c4:	0020      	movs	r0, r4
100048c6:	0029      	movs	r1, r5
100048c8:	f001 fb00 	bl	10005ecc <__wrap___aeabi_dadd>
100048cc:	0002      	movs	r2, r0
100048ce:	000b      	movs	r3, r1
100048d0:	9810      	ldr	r0, [sp, #64]	; 0x40
100048d2:	9911      	ldr	r1, [sp, #68]	; 0x44
100048d4:	f001 fb03 	bl	10005ede <__wrap___aeabi_ddiv>
100048d8:	2200      	movs	r2, #0
100048da:	4b34      	ldr	r3, [pc, #208]	; (100049ac <_etoa+0x430>)
100048dc:	f001 faf6 	bl	10005ecc <__wrap___aeabi_dadd>
100048e0:	4a40      	ldr	r2, [pc, #256]	; (100049e4 <_etoa+0x468>)
100048e2:	9b0f      	ldr	r3, [sp, #60]	; 0x3c
100048e4:	4694      	mov	ip, r2
100048e6:	4463      	add	r3, ip
100048e8:	2200      	movs	r2, #0
100048ea:	051b      	lsls	r3, r3, #20
100048ec:	f001 fb00 	bl	10005ef0 <__wrap___aeabi_dmul>
100048f0:	0006      	movs	r6, r0
100048f2:	000f      	movs	r7, r1
100048f4:	0002      	movs	r2, r0
100048f6:	000b      	movs	r3, r1
100048f8:	4648      	mov	r0, r9
100048fa:	9909      	ldr	r1, [sp, #36]	; 0x24
100048fc:	f001 fb3a 	bl	10005f74 <__wrap___aeabi_dcmplt>
10004900:	2800      	cmp	r0, #0
10004902:	d00a      	beq.n	1000491a <_etoa+0x39e>
10004904:	9b0d      	ldr	r3, [sp, #52]	; 0x34
10004906:	0030      	movs	r0, r6
10004908:	3b01      	subs	r3, #1
1000490a:	0039      	movs	r1, r7
1000490c:	930d      	str	r3, [sp, #52]	; 0x34
1000490e:	2200      	movs	r2, #0
10004910:	4b32      	ldr	r3, [pc, #200]	; (100049dc <_etoa+0x460>)
10004912:	f001 fae4 	bl	10005ede <__wrap___aeabi_ddiv>
10004916:	0006      	movs	r6, r0
10004918:	000f      	movs	r7, r1
1000491a:	25c6      	movs	r5, #198	; 0xc6
1000491c:	990d      	ldr	r1, [sp, #52]	; 0x34
1000491e:	0033      	movs	r3, r6
10004920:	3163      	adds	r1, #99	; 0x63
10004922:	428d      	cmp	r5, r1
10004924:	41ad      	sbcs	r5, r5
10004926:	9928      	ldr	r1, [sp, #160]	; 0xa0
10004928:	426d      	negs	r5, r5
1000492a:	3504      	adds	r5, #4
1000492c:	0509      	lsls	r1, r1, #20
1000492e:	d400      	bmi.n	10004932 <_etoa+0x3b6>
10004930:	e683      	b.n	1000463a <_etoa+0xbe>
10004932:	433b      	orrs	r3, r7
10004934:	d100      	bne.n	10004938 <_etoa+0x3bc>
10004936:	e66f      	b.n	10004618 <_etoa+0x9c>
10004938:	9c09      	ldr	r4, [sp, #36]	; 0x24
1000493a:	4648      	mov	r0, r9
1000493c:	0021      	movs	r1, r4
1000493e:	4a2a      	ldr	r2, [pc, #168]	; (100049e8 <_etoa+0x46c>)
10004940:	4b2a      	ldr	r3, [pc, #168]	; (100049ec <_etoa+0x470>)
10004942:	f001 fb25 	bl	10005f90 <__wrap___aeabi_dcmpge>
10004946:	2800      	cmp	r0, #0
10004948:	d008      	beq.n	1000495c <_etoa+0x3e0>
1000494a:	2200      	movs	r2, #0
1000494c:	4648      	mov	r0, r9
1000494e:	0021      	movs	r1, r4
10004950:	4b27      	ldr	r3, [pc, #156]	; (100049f0 <_etoa+0x474>)
10004952:	f001 fb0f 	bl	10005f74 <__wrap___aeabi_dcmplt>
10004956:	2800      	cmp	r0, #0
10004958:	d000      	beq.n	1000495c <_etoa+0x3e0>
1000495a:	e65d      	b.n	10004618 <_etoa+0x9c>
1000495c:	9b26      	ldr	r3, [sp, #152]	; 0x98
1000495e:	2b00      	cmp	r3, #0
10004960:	d100      	bne.n	10004964 <_etoa+0x3e8>
10004962:	e66a      	b.n	1000463a <_etoa+0xbe>
10004964:	9b0e      	ldr	r3, [sp, #56]	; 0x38
10004966:	1e5a      	subs	r2, r3, #1
10004968:	4193      	sbcs	r3, r2
1000496a:	9a26      	ldr	r2, [sp, #152]	; 0x98
1000496c:	1ad3      	subs	r3, r2, r3
1000496e:	9326      	str	r3, [sp, #152]	; 0x98
10004970:	e663      	b.n	1000463a <_etoa+0xbe>
10004972:	2300      	movs	r3, #0
10004974:	2504      	movs	r5, #4
10004976:	930d      	str	r3, [sp, #52]	; 0x34
10004978:	e65f      	b.n	1000463a <_etoa+0xbe>
1000497a:	2380      	movs	r3, #128	; 0x80
1000497c:	061b      	lsls	r3, r3, #24
1000497e:	4453      	add	r3, sl
10004980:	46c1      	mov	r9, r8
10004982:	9309      	str	r3, [sp, #36]	; 0x24
10004984:	e631      	b.n	100045ea <_etoa+0x6e>
10004986:	2300      	movs	r3, #0
10004988:	9326      	str	r3, [sp, #152]	; 0x98
1000498a:	e64e      	b.n	1000462a <_etoa+0xae>
1000498c:	000a      	movs	r2, r1
1000498e:	4684      	mov	ip, r0
10004990:	3a01      	subs	r2, #1
10004992:	4462      	add	r2, ip
10004994:	1b12      	subs	r2, r2, r4
10004996:	e6ee      	b.n	10004776 <_etoa+0x1fa>
10004998:	fffffc01 	.word	0xfffffc01
1000499c:	509f79fb 	.word	0x509f79fb
100049a0:	3fd34413 	.word	0x3fd34413
100049a4:	8b60c8b3 	.word	0x8b60c8b3
100049a8:	3fc68a28 	.word	0x3fc68a28
100049ac:	3ff00000 	.word	0x3ff00000
100049b0:	3ff80000 	.word	0x3ff80000
100049b4:	636f4361 	.word	0x636f4361
100049b8:	3fd287a7 	.word	0x3fd287a7
100049bc:	0979a371 	.word	0x0979a371
100049c0:	400a934f 	.word	0x400a934f
100049c4:	3fe00000 	.word	0x3fe00000
100049c8:	bbb55516 	.word	0xbbb55516
100049cc:	40026bb1 	.word	0x40026bb1
100049d0:	fefa39ef 	.word	0xfefa39ef
100049d4:	3fe62e42 	.word	0x3fe62e42
100049d8:	402c0000 	.word	0x402c0000
100049dc:	40240000 	.word	0x40240000
100049e0:	40180000 	.word	0x40180000
100049e4:	000003ff 	.word	0x000003ff
100049e8:	eb1c432d 	.word	0xeb1c432d
100049ec:	3f1a36e2 	.word	0x3f1a36e2
100049f0:	412e8480 	.word	0x412e8480

100049f4 <_ftoa>:
100049f4:	b5f0      	push	{r4, r5, r6, r7, lr}
100049f6:	464e      	mov	r6, r9
100049f8:	46de      	mov	lr, fp
100049fa:	4657      	mov	r7, sl
100049fc:	4645      	mov	r5, r8
100049fe:	b5e0      	push	{r5, r6, r7, lr}
10004a00:	b097      	sub	sp, #92	; 0x5c
10004a02:	4699      	mov	r9, r3
10004a04:	9e20      	ldr	r6, [sp, #128]	; 0x80
10004a06:	9f21      	ldr	r7, [sp, #132]	; 0x84
10004a08:	9b22      	ldr	r3, [sp, #136]	; 0x88
10004a0a:	4683      	mov	fp, r0
10004a0c:	4698      	mov	r8, r3
10004a0e:	9107      	str	r1, [sp, #28]
10004a10:	920c      	str	r2, [sp, #48]	; 0x30
10004a12:	003b      	movs	r3, r7
10004a14:	0032      	movs	r2, r6
10004a16:	0030      	movs	r0, r6
10004a18:	0039      	movs	r1, r7
10004a1a:	f001 fac6 	bl	10005faa <__wrap___aeabi_dcmpun>
10004a1e:	2800      	cmp	r0, #0
10004a20:	d000      	beq.n	10004a24 <_ftoa+0x30>
10004a22:	e1c1      	b.n	10004da8 <_ftoa+0x3b4>
10004a24:	2201      	movs	r2, #1
10004a26:	0030      	movs	r0, r6
10004a28:	0039      	movs	r1, r7
10004a2a:	4bca      	ldr	r3, [pc, #808]	; (10004d54 <_ftoa+0x360>)
10004a2c:	4252      	negs	r2, r2
10004a2e:	f001 faa1 	bl	10005f74 <__wrap___aeabi_dcmplt>
10004a32:	2800      	cmp	r0, #0
10004a34:	d000      	beq.n	10004a38 <_ftoa+0x44>
10004a36:	e0e0      	b.n	10004bfa <_ftoa+0x206>
10004a38:	2201      	movs	r2, #1
10004a3a:	0030      	movs	r0, r6
10004a3c:	0039      	movs	r1, r7
10004a3e:	4bc6      	ldr	r3, [pc, #792]	; (10004d58 <_ftoa+0x364>)
10004a40:	4252      	negs	r2, r2
10004a42:	f001 faad 	bl	10005fa0 <__wrap___aeabi_dcmpgt>
10004a46:	2800      	cmp	r0, #0
10004a48:	d000      	beq.n	10004a4c <_ftoa+0x58>
10004a4a:	e0b6      	b.n	10004bba <_ftoa+0x1c6>
10004a4c:	2200      	movs	r2, #0
10004a4e:	0030      	movs	r0, r6
10004a50:	0039      	movs	r1, r7
10004a52:	4bc2      	ldr	r3, [pc, #776]	; (10004d5c <_ftoa+0x368>)
10004a54:	f001 faa4 	bl	10005fa0 <__wrap___aeabi_dcmpgt>
10004a58:	2800      	cmp	r0, #0
10004a5a:	d000      	beq.n	10004a5e <_ftoa+0x6a>
10004a5c:	e098      	b.n	10004b90 <_ftoa+0x19c>
10004a5e:	2200      	movs	r2, #0
10004a60:	0030      	movs	r0, r6
10004a62:	0039      	movs	r1, r7
10004a64:	4bbe      	ldr	r3, [pc, #760]	; (10004d60 <_ftoa+0x36c>)
10004a66:	f001 fa85 	bl	10005f74 <__wrap___aeabi_dcmplt>
10004a6a:	2800      	cmp	r0, #0
10004a6c:	d000      	beq.n	10004a70 <_ftoa+0x7c>
10004a6e:	e08f      	b.n	10004b90 <_ftoa+0x19c>
10004a70:	2200      	movs	r2, #0
10004a72:	2300      	movs	r3, #0
10004a74:	0030      	movs	r0, r6
10004a76:	0039      	movs	r1, r7
10004a78:	f001 fa7c 	bl	10005f74 <__wrap___aeabi_dcmplt>
10004a7c:	2800      	cmp	r0, #0
10004a7e:	d000      	beq.n	10004a82 <_ftoa+0x8e>
10004a80:	e0b0      	b.n	10004be4 <_ftoa+0x1f0>
10004a82:	2300      	movs	r3, #0
10004a84:	930d      	str	r3, [sp, #52]	; 0x34
10004a86:	9b24      	ldr	r3, [sp, #144]	; 0x90
10004a88:	055b      	lsls	r3, r3, #21
10004a8a:	d401      	bmi.n	10004a90 <_ftoa+0x9c>
10004a8c:	2306      	movs	r3, #6
10004a8e:	4698      	mov	r8, r3
10004a90:	ab08      	add	r3, sp, #32
10004a92:	469c      	mov	ip, r3
10004a94:	2217      	movs	r2, #23
10004a96:	2400      	movs	r4, #0
10004a98:	2330      	movs	r3, #48	; 0x30
10004a9a:	4641      	mov	r1, r8
10004a9c:	4462      	add	r2, ip
10004a9e:	e004      	b.n	10004aaa <_ftoa+0xb6>
10004aa0:	3401      	adds	r4, #1
10004aa2:	5513      	strb	r3, [r2, r4]
10004aa4:	3901      	subs	r1, #1
10004aa6:	2c20      	cmp	r4, #32
10004aa8:	d001      	beq.n	10004aae <_ftoa+0xba>
10004aaa:	2909      	cmp	r1, #9
10004aac:	d8f8      	bhi.n	10004aa0 <_ftoa+0xac>
10004aae:	4688      	mov	r8, r1
10004ab0:	0030      	movs	r0, r6
10004ab2:	0039      	movs	r1, r7
10004ab4:	f001 faa4 	bl	10006000 <__wrap___aeabi_d2iz>
10004ab8:	4643      	mov	r3, r8
10004aba:	00da      	lsls	r2, r3, #3
10004abc:	4ba9      	ldr	r3, [pc, #676]	; (10004d64 <_ftoa+0x370>)
10004abe:	0005      	movs	r5, r0
10004ac0:	189b      	adds	r3, r3, r2
10004ac2:	681a      	ldr	r2, [r3, #0]
10004ac4:	685b      	ldr	r3, [r3, #4]
10004ac6:	9208      	str	r2, [sp, #32]
10004ac8:	9309      	str	r3, [sp, #36]	; 0x24
10004aca:	f001 fa81 	bl	10005fd0 <__wrap___aeabi_i2d>
10004ace:	0002      	movs	r2, r0
10004ad0:	000b      	movs	r3, r1
10004ad2:	0030      	movs	r0, r6
10004ad4:	0039      	movs	r1, r7
10004ad6:	f001 f9f0 	bl	10005eba <__wrap___aeabi_dsub>
10004ada:	9a08      	ldr	r2, [sp, #32]
10004adc:	9b09      	ldr	r3, [sp, #36]	; 0x24
10004ade:	f001 fa07 	bl	10005ef0 <__wrap___aeabi_dmul>
10004ae2:	900a      	str	r0, [sp, #40]	; 0x28
10004ae4:	910b      	str	r1, [sp, #44]	; 0x2c
10004ae6:	f001 faaf 	bl	10006048 <__wrap___aeabi_d2uiz>
10004aea:	4682      	mov	sl, r0
10004aec:	f001 fa6c 	bl	10005fc8 <__wrap___aeabi_ui2d>
10004af0:	0002      	movs	r2, r0
10004af2:	000b      	movs	r3, r1
10004af4:	980a      	ldr	r0, [sp, #40]	; 0x28
10004af6:	990b      	ldr	r1, [sp, #44]	; 0x2c
10004af8:	f001 f9df 	bl	10005eba <__wrap___aeabi_dsub>
10004afc:	2200      	movs	r2, #0
10004afe:	4b9a      	ldr	r3, [pc, #616]	; (10004d68 <_ftoa+0x374>)
10004b00:	900a      	str	r0, [sp, #40]	; 0x28
10004b02:	910b      	str	r1, [sp, #44]	; 0x2c
10004b04:	f001 fa4c 	bl	10005fa0 <__wrap___aeabi_dcmpgt>
10004b08:	2800      	cmp	r0, #0
10004b0a:	d100      	bne.n	10004b0e <_ftoa+0x11a>
10004b0c:	e0c0      	b.n	10004c90 <_ftoa+0x29c>
10004b0e:	2301      	movs	r3, #1
10004b10:	469c      	mov	ip, r3
10004b12:	44e2      	add	sl, ip
10004b14:	4650      	mov	r0, sl
10004b16:	f001 fa57 	bl	10005fc8 <__wrap___aeabi_ui2d>
10004b1a:	0002      	movs	r2, r0
10004b1c:	000b      	movs	r3, r1
10004b1e:	9808      	ldr	r0, [sp, #32]
10004b20:	9909      	ldr	r1, [sp, #36]	; 0x24
10004b22:	f001 fa2d 	bl	10005f80 <__wrap___aeabi_dcmple>
10004b26:	2800      	cmp	r0, #0
10004b28:	d002      	beq.n	10004b30 <_ftoa+0x13c>
10004b2a:	2300      	movs	r3, #0
10004b2c:	469a      	mov	sl, r3
10004b2e:	3501      	adds	r5, #1
10004b30:	4643      	mov	r3, r8
10004b32:	2b00      	cmp	r3, #0
10004b34:	d069      	beq.n	10004c0a <_ftoa+0x216>
10004b36:	ab08      	add	r3, sp, #32
10004b38:	2617      	movs	r6, #23
10004b3a:	469c      	mov	ip, r3
10004b3c:	9508      	str	r5, [sp, #32]
10004b3e:	4466      	add	r6, ip
10004b40:	4655      	mov	r5, sl
10004b42:	e014      	b.n	10004b6e <_ftoa+0x17a>
10004b44:	2301      	movs	r3, #1
10004b46:	425b      	negs	r3, r3
10004b48:	4443      	add	r3, r8
10004b4a:	210a      	movs	r1, #10
10004b4c:	0028      	movs	r0, r5
10004b4e:	469a      	mov	sl, r3
10004b50:	f000 ff62 	bl	10005a18 <__wrap___aeabi_uidiv>
10004b54:	3401      	adds	r4, #1
10004b56:	3130      	adds	r1, #48	; 0x30
10004b58:	1937      	adds	r7, r6, r4
10004b5a:	7039      	strb	r1, [r7, #0]
10004b5c:	0028      	movs	r0, r5
10004b5e:	210a      	movs	r1, #10
10004b60:	f000 ff5a 	bl	10005a18 <__wrap___aeabi_uidiv>
10004b64:	2d09      	cmp	r5, #9
10004b66:	d800      	bhi.n	10004b6a <_ftoa+0x176>
10004b68:	e0d5      	b.n	10004d16 <_ftoa+0x322>
10004b6a:	46d0      	mov	r8, sl
10004b6c:	0005      	movs	r5, r0
10004b6e:	2c20      	cmp	r4, #32
10004b70:	d1e8      	bne.n	10004b44 <_ftoa+0x150>
10004b72:	2303      	movs	r3, #3
10004b74:	9a24      	ldr	r2, [sp, #144]	; 0x90
10004b76:	4013      	ands	r3, r2
10004b78:	2b01      	cmp	r3, #1
10004b7a:	d100      	bne.n	10004b7e <_ftoa+0x18a>
10004b7c:	e100      	b.n	10004d80 <_ftoa+0x38c>
10004b7e:	ab0e      	add	r3, sp, #56	; 0x38
10004b80:	4698      	mov	r8, r3
10004b82:	9b24      	ldr	r3, [sp, #144]	; 0x90
10004b84:	9401      	str	r4, [sp, #4]
10004b86:	9303      	str	r3, [sp, #12]
10004b88:	9b23      	ldr	r3, [sp, #140]	; 0x8c
10004b8a:	9302      	str	r3, [sp, #8]
10004b8c:	4643      	mov	r3, r8
10004b8e:	e01e      	b.n	10004bce <_ftoa+0x1da>
10004b90:	9b24      	ldr	r3, [sp, #144]	; 0x90
10004b92:	4658      	mov	r0, fp
10004b94:	9304      	str	r3, [sp, #16]
10004b96:	9b23      	ldr	r3, [sp, #140]	; 0x8c
10004b98:	9600      	str	r6, [sp, #0]
10004b9a:	9701      	str	r7, [sp, #4]
10004b9c:	9303      	str	r3, [sp, #12]
10004b9e:	4643      	mov	r3, r8
10004ba0:	9a0c      	ldr	r2, [sp, #48]	; 0x30
10004ba2:	9302      	str	r3, [sp, #8]
10004ba4:	9907      	ldr	r1, [sp, #28]
10004ba6:	464b      	mov	r3, r9
10004ba8:	f7ff fce8 	bl	1000457c <_etoa>
10004bac:	b017      	add	sp, #92	; 0x5c
10004bae:	bc3c      	pop	{r2, r3, r4, r5}
10004bb0:	4690      	mov	r8, r2
10004bb2:	4699      	mov	r9, r3
10004bb4:	46a2      	mov	sl, r4
10004bb6:	46ab      	mov	fp, r5
10004bb8:	bdf0      	pop	{r4, r5, r6, r7, pc}
10004bba:	9b24      	ldr	r3, [sp, #144]	; 0x90
10004bbc:	075b      	lsls	r3, r3, #29
10004bbe:	d40e      	bmi.n	10004bde <_ftoa+0x1ea>
10004bc0:	2203      	movs	r2, #3
10004bc2:	4b6a      	ldr	r3, [pc, #424]	; (10004d6c <_ftoa+0x378>)
10004bc4:	9924      	ldr	r1, [sp, #144]	; 0x90
10004bc6:	9201      	str	r2, [sp, #4]
10004bc8:	9103      	str	r1, [sp, #12]
10004bca:	9923      	ldr	r1, [sp, #140]	; 0x8c
10004bcc:	9102      	str	r1, [sp, #8]
10004bce:	9300      	str	r3, [sp, #0]
10004bd0:	4658      	mov	r0, fp
10004bd2:	464b      	mov	r3, r9
10004bd4:	9a0c      	ldr	r2, [sp, #48]	; 0x30
10004bd6:	9907      	ldr	r1, [sp, #28]
10004bd8:	f7ff fb70 	bl	100042bc <_out_rev>
10004bdc:	e7e6      	b.n	10004bac <_ftoa+0x1b8>
10004bde:	2204      	movs	r2, #4
10004be0:	4b63      	ldr	r3, [pc, #396]	; (10004d70 <_ftoa+0x37c>)
10004be2:	e7ef      	b.n	10004bc4 <_ftoa+0x1d0>
10004be4:	003b      	movs	r3, r7
10004be6:	0032      	movs	r2, r6
10004be8:	2000      	movs	r0, #0
10004bea:	2100      	movs	r1, #0
10004bec:	f001 f965 	bl	10005eba <__wrap___aeabi_dsub>
10004bf0:	2301      	movs	r3, #1
10004bf2:	0006      	movs	r6, r0
10004bf4:	000f      	movs	r7, r1
10004bf6:	930d      	str	r3, [sp, #52]	; 0x34
10004bf8:	e745      	b.n	10004a86 <_ftoa+0x92>
10004bfa:	9b24      	ldr	r3, [sp, #144]	; 0x90
10004bfc:	9303      	str	r3, [sp, #12]
10004bfe:	9b23      	ldr	r3, [sp, #140]	; 0x8c
10004c00:	9302      	str	r3, [sp, #8]
10004c02:	2304      	movs	r3, #4
10004c04:	9301      	str	r3, [sp, #4]
10004c06:	4b5b      	ldr	r3, [pc, #364]	; (10004d74 <_ftoa+0x380>)
10004c08:	e7e1      	b.n	10004bce <_ftoa+0x1da>
10004c0a:	0028      	movs	r0, r5
10004c0c:	f001 f9e0 	bl	10005fd0 <__wrap___aeabi_i2d>
10004c10:	0002      	movs	r2, r0
10004c12:	000b      	movs	r3, r1
10004c14:	0030      	movs	r0, r6
10004c16:	0039      	movs	r1, r7
10004c18:	f001 f94f 	bl	10005eba <__wrap___aeabi_dsub>
10004c1c:	4b52      	ldr	r3, [pc, #328]	; (10004d68 <_ftoa+0x374>)
10004c1e:	2200      	movs	r2, #0
10004c20:	0006      	movs	r6, r0
10004c22:	000f      	movs	r7, r1
10004c24:	f001 f9a6 	bl	10005f74 <__wrap___aeabi_dcmplt>
10004c28:	ab0e      	add	r3, sp, #56	; 0x38
10004c2a:	4698      	mov	r8, r3
10004c2c:	2800      	cmp	r0, #0
10004c2e:	d10a      	bne.n	10004c46 <_ftoa+0x252>
10004c30:	2200      	movs	r2, #0
10004c32:	0030      	movs	r0, r6
10004c34:	0039      	movs	r1, r7
10004c36:	4b4c      	ldr	r3, [pc, #304]	; (10004d68 <_ftoa+0x374>)
10004c38:	f001 f9b2 	bl	10005fa0 <__wrap___aeabi_dcmpgt>
10004c3c:	2800      	cmp	r0, #0
10004c3e:	d102      	bne.n	10004c46 <_ftoa+0x252>
10004c40:	07eb      	lsls	r3, r5, #31
10004c42:	d500      	bpl.n	10004c46 <_ftoa+0x252>
10004c44:	3501      	adds	r5, #1
10004c46:	2c20      	cmp	r4, #32
10004c48:	d032      	beq.n	10004cb0 <_ftoa+0x2bc>
10004c4a:	aa08      	add	r2, sp, #32
10004c4c:	4694      	mov	ip, r2
10004c4e:	2317      	movs	r3, #23
10004c50:	0028      	movs	r0, r5
10004c52:	4463      	add	r3, ip
10004c54:	210a      	movs	r1, #10
10004c56:	3401      	adds	r4, #1
10004c58:	191e      	adds	r6, r3, r4
10004c5a:	f000 feb1 	bl	100059c0 <__wrap___aeabi_idiv>
10004c5e:	3130      	adds	r1, #48	; 0x30
10004c60:	0028      	movs	r0, r5
10004c62:	7031      	strb	r1, [r6, #0]
10004c64:	210a      	movs	r1, #10
10004c66:	f000 feab 	bl	100059c0 <__wrap___aeabi_idiv>
10004c6a:	1e05      	subs	r5, r0, #0
10004c6c:	d1eb      	bne.n	10004c46 <_ftoa+0x252>
10004c6e:	2303      	movs	r3, #3
10004c70:	9a24      	ldr	r2, [sp, #144]	; 0x90
10004c72:	4013      	ands	r3, r2
10004c74:	2b01      	cmp	r3, #1
10004c76:	d100      	bne.n	10004c7a <_ftoa+0x286>
10004c78:	e091      	b.n	10004d9e <_ftoa+0x3aa>
10004c7a:	2c1f      	cmp	r4, #31
10004c7c:	d900      	bls.n	10004c80 <_ftoa+0x28c>
10004c7e:	e780      	b.n	10004b82 <_ftoa+0x18e>
10004c80:	9b0d      	ldr	r3, [sp, #52]	; 0x34
10004c82:	2b00      	cmp	r3, #0
10004c84:	d03b      	beq.n	10004cfe <_ftoa+0x30a>
10004c86:	232d      	movs	r3, #45	; 0x2d
10004c88:	4642      	mov	r2, r8
10004c8a:	5513      	strb	r3, [r2, r4]
10004c8c:	3401      	adds	r4, #1
10004c8e:	e778      	b.n	10004b82 <_ftoa+0x18e>
10004c90:	2200      	movs	r2, #0
10004c92:	980a      	ldr	r0, [sp, #40]	; 0x28
10004c94:	990b      	ldr	r1, [sp, #44]	; 0x2c
10004c96:	4b34      	ldr	r3, [pc, #208]	; (10004d68 <_ftoa+0x374>)
10004c98:	f001 f96c 	bl	10005f74 <__wrap___aeabi_dcmplt>
10004c9c:	2800      	cmp	r0, #0
10004c9e:	d000      	beq.n	10004ca2 <_ftoa+0x2ae>
10004ca0:	e746      	b.n	10004b30 <_ftoa+0x13c>
10004ca2:	4653      	mov	r3, sl
10004ca4:	2b00      	cmp	r3, #0
10004ca6:	d167      	bne.n	10004d78 <_ftoa+0x384>
10004ca8:	2301      	movs	r3, #1
10004caa:	469c      	mov	ip, r3
10004cac:	44e2      	add	sl, ip
10004cae:	e73f      	b.n	10004b30 <_ftoa+0x13c>
10004cb0:	2303      	movs	r3, #3
10004cb2:	9a24      	ldr	r2, [sp, #144]	; 0x90
10004cb4:	4013      	ands	r3, r2
10004cb6:	2b01      	cmp	r3, #1
10004cb8:	d000      	beq.n	10004cbc <_ftoa+0x2c8>
10004cba:	e762      	b.n	10004b82 <_ftoa+0x18e>
10004cbc:	9b23      	ldr	r3, [sp, #140]	; 0x8c
10004cbe:	2b00      	cmp	r3, #0
10004cc0:	d100      	bne.n	10004cc4 <_ftoa+0x2d0>
10004cc2:	e75e      	b.n	10004b82 <_ftoa+0x18e>
10004cc4:	9b0d      	ldr	r3, [sp, #52]	; 0x34
10004cc6:	2b00      	cmp	r3, #0
10004cc8:	d103      	bne.n	10004cd2 <_ftoa+0x2de>
10004cca:	9a24      	ldr	r2, [sp, #144]	; 0x90
10004ccc:	330c      	adds	r3, #12
10004cce:	4213      	tst	r3, r2
10004cd0:	d002      	beq.n	10004cd8 <_ftoa+0x2e4>
10004cd2:	9b23      	ldr	r3, [sp, #140]	; 0x8c
10004cd4:	3b01      	subs	r3, #1
10004cd6:	9323      	str	r3, [sp, #140]	; 0x8c
10004cd8:	9b23      	ldr	r3, [sp, #140]	; 0x8c
10004cda:	429c      	cmp	r4, r3
10004cdc:	d2cd      	bcs.n	10004c7a <_ftoa+0x286>
10004cde:	ab08      	add	r3, sp, #32
10004ce0:	469c      	mov	ip, r3
10004ce2:	2217      	movs	r2, #23
10004ce4:	2330      	movs	r3, #48	; 0x30
10004ce6:	4462      	add	r2, ip
10004ce8:	2c1f      	cmp	r4, #31
10004cea:	d806      	bhi.n	10004cfa <_ftoa+0x306>
10004cec:	9923      	ldr	r1, [sp, #140]	; 0x8c
10004cee:	3401      	adds	r4, #1
10004cf0:	5513      	strb	r3, [r2, r4]
10004cf2:	428c      	cmp	r4, r1
10004cf4:	d0c1      	beq.n	10004c7a <_ftoa+0x286>
10004cf6:	2c20      	cmp	r4, #32
10004cf8:	d1f8      	bne.n	10004cec <_ftoa+0x2f8>
10004cfa:	2420      	movs	r4, #32
10004cfc:	e741      	b.n	10004b82 <_ftoa+0x18e>
10004cfe:	9b24      	ldr	r3, [sp, #144]	; 0x90
10004d00:	075b      	lsls	r3, r3, #29
10004d02:	d421      	bmi.n	10004d48 <_ftoa+0x354>
10004d04:	9b24      	ldr	r3, [sp, #144]	; 0x90
10004d06:	071b      	lsls	r3, r3, #28
10004d08:	d400      	bmi.n	10004d0c <_ftoa+0x318>
10004d0a:	e73a      	b.n	10004b82 <_ftoa+0x18e>
10004d0c:	2320      	movs	r3, #32
10004d0e:	4642      	mov	r2, r8
10004d10:	5513      	strb	r3, [r2, r4]
10004d12:	3401      	adds	r4, #1
10004d14:	e735      	b.n	10004b82 <_ftoa+0x18e>
10004d16:	4657      	mov	r7, sl
10004d18:	9d08      	ldr	r5, [sp, #32]
10004d1a:	2c20      	cmp	r4, #32
10004d1c:	d037      	beq.n	10004d8e <_ftoa+0x39a>
10004d1e:	0022      	movs	r2, r4
10004d20:	2130      	movs	r1, #48	; 0x30
10004d22:	4640      	mov	r0, r8
10004d24:	2f00      	cmp	r7, #0
10004d26:	d008      	beq.n	10004d3a <_ftoa+0x346>
10004d28:	3201      	adds	r2, #1
10004d2a:	54b1      	strb	r1, [r6, r2]
10004d2c:	2a20      	cmp	r2, #32
10004d2e:	d043      	beq.n	10004db8 <_ftoa+0x3c4>
10004d30:	43d3      	mvns	r3, r2
10004d32:	191b      	adds	r3, r3, r4
10004d34:	181b      	adds	r3, r3, r0
10004d36:	2b00      	cmp	r3, #0
10004d38:	d1f6      	bne.n	10004d28 <_ftoa+0x334>
10004d3a:	ab0e      	add	r3, sp, #56	; 0x38
10004d3c:	4698      	mov	r8, r3
10004d3e:	232e      	movs	r3, #46	; 0x2e
10004d40:	4641      	mov	r1, r8
10004d42:	1c54      	adds	r4, r2, #1
10004d44:	548b      	strb	r3, [r1, r2]
10004d46:	e77e      	b.n	10004c46 <_ftoa+0x252>
10004d48:	232b      	movs	r3, #43	; 0x2b
10004d4a:	4642      	mov	r2, r8
10004d4c:	5513      	strb	r3, [r2, r4]
10004d4e:	3401      	adds	r4, #1
10004d50:	e717      	b.n	10004b82 <_ftoa+0x18e>
10004d52:	46c0      	nop			; (mov r8, r8)
10004d54:	ffefffff 	.word	0xffefffff
10004d58:	7fefffff 	.word	0x7fefffff
10004d5c:	41cdcd65 	.word	0x41cdcd65
10004d60:	c1cdcd65 	.word	0xc1cdcd65
10004d64:	10007ec0 	.word	0x10007ec0
10004d68:	3fe00000 	.word	0x3fe00000
10004d6c:	10007cc8 	.word	0x10007cc8
10004d70:	10007ccc 	.word	0x10007ccc
10004d74:	10007cd8 	.word	0x10007cd8
10004d78:	07db      	lsls	r3, r3, #31
10004d7a:	d400      	bmi.n	10004d7e <_ftoa+0x38a>
10004d7c:	e6d8      	b.n	10004b30 <_ftoa+0x13c>
10004d7e:	e793      	b.n	10004ca8 <_ftoa+0x2b4>
10004d80:	9b23      	ldr	r3, [sp, #140]	; 0x8c
10004d82:	2b00      	cmp	r3, #0
10004d84:	d100      	bne.n	10004d88 <_ftoa+0x394>
10004d86:	e6fa      	b.n	10004b7e <_ftoa+0x18a>
10004d88:	ab0e      	add	r3, sp, #56	; 0x38
10004d8a:	4698      	mov	r8, r3
10004d8c:	e79a      	b.n	10004cc4 <_ftoa+0x2d0>
10004d8e:	2303      	movs	r3, #3
10004d90:	9a24      	ldr	r2, [sp, #144]	; 0x90
10004d92:	4013      	ands	r3, r2
10004d94:	2b01      	cmp	r3, #1
10004d96:	d000      	beq.n	10004d9a <_ftoa+0x3a6>
10004d98:	e6f1      	b.n	10004b7e <_ftoa+0x18a>
10004d9a:	ab0e      	add	r3, sp, #56	; 0x38
10004d9c:	4698      	mov	r8, r3
10004d9e:	9b23      	ldr	r3, [sp, #140]	; 0x8c
10004da0:	2b00      	cmp	r3, #0
10004da2:	d100      	bne.n	10004da6 <_ftoa+0x3b2>
10004da4:	e769      	b.n	10004c7a <_ftoa+0x286>
10004da6:	e78d      	b.n	10004cc4 <_ftoa+0x2d0>
10004da8:	9b24      	ldr	r3, [sp, #144]	; 0x90
10004daa:	9303      	str	r3, [sp, #12]
10004dac:	9b23      	ldr	r3, [sp, #140]	; 0x8c
10004dae:	9302      	str	r3, [sp, #8]
10004db0:	2303      	movs	r3, #3
10004db2:	9301      	str	r3, [sp, #4]
10004db4:	4b06      	ldr	r3, [pc, #24]	; (10004dd0 <_ftoa+0x3dc>)
10004db6:	e70a      	b.n	10004bce <_ftoa+0x1da>
10004db8:	2303      	movs	r3, #3
10004dba:	9a24      	ldr	r2, [sp, #144]	; 0x90
10004dbc:	2420      	movs	r4, #32
10004dbe:	4013      	ands	r3, r2
10004dc0:	2b01      	cmp	r3, #1
10004dc2:	d000      	beq.n	10004dc6 <_ftoa+0x3d2>
10004dc4:	e6db      	b.n	10004b7e <_ftoa+0x18a>
10004dc6:	9b23      	ldr	r3, [sp, #140]	; 0x8c
10004dc8:	2420      	movs	r4, #32
10004dca:	2b00      	cmp	r3, #0
10004dcc:	d1dc      	bne.n	10004d88 <_ftoa+0x394>
10004dce:	e6d6      	b.n	10004b7e <_ftoa+0x18a>
10004dd0:	10007cd4 	.word	0x10007cd4

10004dd4 <_vsnprintf>:
10004dd4:	b5f0      	push	{r4, r5, r6, r7, lr}
10004dd6:	46de      	mov	lr, fp
10004dd8:	464e      	mov	r6, r9
10004dda:	4657      	mov	r7, sl
10004ddc:	4645      	mov	r5, r8
10004dde:	b5e0      	push	{r5, r6, r7, lr}
10004de0:	b09f      	sub	sp, #124	; 0x7c
10004de2:	001c      	movs	r4, r3
10004de4:	9b28      	ldr	r3, [sp, #160]	; 0xa0
10004de6:	4693      	mov	fp, r2
10004de8:	9309      	str	r3, [sp, #36]	; 0x24
10004dea:	4acf      	ldr	r2, [pc, #828]	; (10005128 <_vsnprintf+0x354>)
10004dec:	4bcf      	ldr	r3, [pc, #828]	; (1000512c <_vsnprintf+0x358>)
10004dee:	4689      	mov	r9, r1
10004df0:	9008      	str	r0, [sp, #32]
10004df2:	601a      	str	r2, [r3, #0]
10004df4:	2900      	cmp	r1, #0
10004df6:	d100      	bne.n	10004dfa <_vsnprintf+0x26>
10004df8:	e216      	b.n	10005228 <_vsnprintf+0x454>
10004dfa:	2300      	movs	r3, #0
10004dfc:	7820      	ldrb	r0, [r4, #0]
10004dfe:	469a      	mov	sl, r3
10004e00:	2800      	cmp	r0, #0
10004e02:	d100      	bne.n	10004e06 <_vsnprintf+0x32>
10004e04:	e218      	b.n	10005238 <_vsnprintf+0x464>
10004e06:	0026      	movs	r6, r4
10004e08:	001d      	movs	r5, r3
10004e0a:	464c      	mov	r4, r9
10004e0c:	e00a      	b.n	10004e24 <_vsnprintf+0x50>
10004e0e:	002a      	movs	r2, r5
10004e10:	1c6f      	adds	r7, r5, #1
10004e12:	465b      	mov	r3, fp
10004e14:	9d08      	ldr	r5, [sp, #32]
10004e16:	0021      	movs	r1, r4
10004e18:	47a8      	blx	r5
10004e1a:	003d      	movs	r5, r7
10004e1c:	3601      	adds	r6, #1
10004e1e:	7830      	ldrb	r0, [r6, #0]
10004e20:	2800      	cmp	r0, #0
10004e22:	d07a      	beq.n	10004f1a <_vsnprintf+0x146>
10004e24:	2825      	cmp	r0, #37	; 0x25
10004e26:	d1f2      	bne.n	10004e0e <_vsnprintf+0x3a>
10004e28:	2310      	movs	r3, #16
10004e2a:	469a      	mov	sl, r3
10004e2c:	3b08      	subs	r3, #8
10004e2e:	4699      	mov	r9, r3
10004e30:	3b04      	subs	r3, #4
10004e32:	4698      	mov	r8, r3
10004e34:	3b02      	subs	r3, #2
10004e36:	2100      	movs	r1, #0
10004e38:	469c      	mov	ip, r3
10004e3a:	1c72      	adds	r2, r6, #1
10004e3c:	7810      	ldrb	r0, [r2, #0]
10004e3e:	0016      	movs	r6, r2
10004e40:	0003      	movs	r3, r0
10004e42:	3b20      	subs	r3, #32
10004e44:	b2db      	uxtb	r3, r3
10004e46:	2b10      	cmp	r3, #16
10004e48:	d803      	bhi.n	10004e52 <_vsnprintf+0x7e>
10004e4a:	4fb9      	ldr	r7, [pc, #740]	; (10005130 <_vsnprintf+0x35c>)
10004e4c:	009b      	lsls	r3, r3, #2
10004e4e:	58fb      	ldr	r3, [r7, r3]
10004e50:	469f      	mov	pc, r3
10004e52:	0003      	movs	r3, r0
10004e54:	3b30      	subs	r3, #48	; 0x30
10004e56:	2b09      	cmp	r3, #9
10004e58:	d93c      	bls.n	10004ed4 <_vsnprintf+0x100>
10004e5a:	2300      	movs	r3, #0
10004e5c:	930a      	str	r3, [sp, #40]	; 0x28
10004e5e:	282a      	cmp	r0, #42	; 0x2a
10004e60:	d100      	bne.n	10004e64 <_vsnprintf+0x90>
10004e62:	e071      	b.n	10004f48 <_vsnprintf+0x174>
10004e64:	2300      	movs	r3, #0
10004e66:	4698      	mov	r8, r3
10004e68:	282e      	cmp	r0, #46	; 0x2e
10004e6a:	d047      	beq.n	10004efc <_vsnprintf+0x128>
10004e6c:	0003      	movs	r3, r0
10004e6e:	3b68      	subs	r3, #104	; 0x68
10004e70:	b2db      	uxtb	r3, r3
10004e72:	2b12      	cmp	r3, #18
10004e74:	d81f      	bhi.n	10004eb6 <_vsnprintf+0xe2>
10004e76:	4aaf      	ldr	r2, [pc, #700]	; (10005134 <_vsnprintf+0x360>)
10004e78:	009b      	lsls	r3, r3, #2
10004e7a:	58d3      	ldr	r3, [r2, r3]
10004e7c:	469f      	mov	pc, r3
10004e7e:	2301      	movs	r3, #1
10004e80:	3201      	adds	r2, #1
10004e82:	4319      	orrs	r1, r3
10004e84:	e7da      	b.n	10004e3c <_vsnprintf+0x68>
10004e86:	4663      	mov	r3, ip
10004e88:	3201      	adds	r2, #1
10004e8a:	4319      	orrs	r1, r3
10004e8c:	e7d6      	b.n	10004e3c <_vsnprintf+0x68>
10004e8e:	4643      	mov	r3, r8
10004e90:	3201      	adds	r2, #1
10004e92:	4319      	orrs	r1, r3
10004e94:	e7d2      	b.n	10004e3c <_vsnprintf+0x68>
10004e96:	4653      	mov	r3, sl
10004e98:	3201      	adds	r2, #1
10004e9a:	4319      	orrs	r1, r3
10004e9c:	e7ce      	b.n	10004e3c <_vsnprintf+0x68>
10004e9e:	464b      	mov	r3, r9
10004ea0:	3201      	adds	r2, #1
10004ea2:	4319      	orrs	r1, r3
10004ea4:	e7ca      	b.n	10004e3c <_vsnprintf+0x68>
10004ea6:	7870      	ldrb	r0, [r6, #1]
10004ea8:	286c      	cmp	r0, #108	; 0x6c
10004eaa:	d100      	bne.n	10004eae <_vsnprintf+0xda>
10004eac:	e2bf      	b.n	1000542e <_vsnprintf+0x65a>
10004eae:	2380      	movs	r3, #128	; 0x80
10004eb0:	005b      	lsls	r3, r3, #1
10004eb2:	4319      	orrs	r1, r3
10004eb4:	3601      	adds	r6, #1
10004eb6:	0003      	movs	r3, r0
10004eb8:	3b25      	subs	r3, #37	; 0x25
10004eba:	b2db      	uxtb	r3, r3
10004ebc:	2b53      	cmp	r3, #83	; 0x53
10004ebe:	d8a6      	bhi.n	10004e0e <_vsnprintf+0x3a>
10004ec0:	4a9d      	ldr	r2, [pc, #628]	; (10005138 <_vsnprintf+0x364>)
10004ec2:	009b      	lsls	r3, r3, #2
10004ec4:	58d3      	ldr	r3, [r2, r3]
10004ec6:	469f      	mov	pc, r3
10004ec8:	2380      	movs	r3, #128	; 0x80
10004eca:	005b      	lsls	r3, r3, #1
10004ecc:	7870      	ldrb	r0, [r6, #1]
10004ece:	4319      	orrs	r1, r3
10004ed0:	3601      	adds	r6, #1
10004ed2:	e7f0      	b.n	10004eb6 <_vsnprintf+0xe2>
10004ed4:	2700      	movs	r7, #0
10004ed6:	0003      	movs	r3, r0
10004ed8:	00b8      	lsls	r0, r7, #2
10004eda:	19c0      	adds	r0, r0, r7
10004edc:	3601      	adds	r6, #1
10004ede:	0040      	lsls	r0, r0, #1
10004ee0:	18c0      	adds	r0, r0, r3
10004ee2:	7833      	ldrb	r3, [r6, #0]
10004ee4:	3830      	subs	r0, #48	; 0x30
10004ee6:	001a      	movs	r2, r3
10004ee8:	3a30      	subs	r2, #48	; 0x30
10004eea:	0007      	movs	r7, r0
10004eec:	2a09      	cmp	r2, #9
10004eee:	d9f3      	bls.n	10004ed8 <_vsnprintf+0x104>
10004ef0:	900a      	str	r0, [sp, #40]	; 0x28
10004ef2:	0018      	movs	r0, r3
10004ef4:	2300      	movs	r3, #0
10004ef6:	4698      	mov	r8, r3
10004ef8:	282e      	cmp	r0, #46	; 0x2e
10004efa:	d1b7      	bne.n	10004e6c <_vsnprintf+0x98>
10004efc:	2380      	movs	r3, #128	; 0x80
10004efe:	7870      	ldrb	r0, [r6, #1]
10004f00:	00db      	lsls	r3, r3, #3
10004f02:	4319      	orrs	r1, r3
10004f04:	0003      	movs	r3, r0
10004f06:	3b30      	subs	r3, #48	; 0x30
10004f08:	1c72      	adds	r2, r6, #1
10004f0a:	2b09      	cmp	r3, #9
10004f0c:	d800      	bhi.n	10004f10 <_vsnprintf+0x13c>
10004f0e:	e195      	b.n	1000523c <_vsnprintf+0x468>
10004f10:	282a      	cmp	r0, #42	; 0x2a
10004f12:	d100      	bne.n	10004f16 <_vsnprintf+0x142>
10004f14:	e1a6      	b.n	10005264 <_vsnprintf+0x490>
10004f16:	0016      	movs	r6, r2
10004f18:	e7a8      	b.n	10004e6c <_vsnprintf+0x98>
10004f1a:	46a1      	mov	r9, r4
10004f1c:	46aa      	mov	sl, r5
10004f1e:	002c      	movs	r4, r5
10004f20:	45d3      	cmp	fp, sl
10004f22:	d803      	bhi.n	10004f2c <_vsnprintf+0x158>
10004f24:	2301      	movs	r3, #1
10004f26:	425b      	negs	r3, r3
10004f28:	445b      	add	r3, fp
10004f2a:	469a      	mov	sl, r3
10004f2c:	465b      	mov	r3, fp
10004f2e:	4652      	mov	r2, sl
10004f30:	4649      	mov	r1, r9
10004f32:	2000      	movs	r0, #0
10004f34:	9d08      	ldr	r5, [sp, #32]
10004f36:	47a8      	blx	r5
10004f38:	0020      	movs	r0, r4
10004f3a:	b01f      	add	sp, #124	; 0x7c
10004f3c:	bc3c      	pop	{r2, r3, r4, r5}
10004f3e:	4690      	mov	r8, r2
10004f40:	4699      	mov	r9, r3
10004f42:	46a2      	mov	sl, r4
10004f44:	46ab      	mov	fp, r5
10004f46:	bdf0      	pop	{r4, r5, r6, r7, pc}
10004f48:	9b09      	ldr	r3, [sp, #36]	; 0x24
10004f4a:	cb40      	ldmia	r3!, {r6}
10004f4c:	960a      	str	r6, [sp, #40]	; 0x28
10004f4e:	2e00      	cmp	r6, #0
10004f50:	db03      	blt.n	10004f5a <_vsnprintf+0x186>
10004f52:	7850      	ldrb	r0, [r2, #1]
10004f54:	9309      	str	r3, [sp, #36]	; 0x24
10004f56:	1c56      	adds	r6, r2, #1
10004f58:	e784      	b.n	10004e64 <_vsnprintf+0x90>
10004f5a:	3828      	subs	r0, #40	; 0x28
10004f5c:	4301      	orrs	r1, r0
10004f5e:	4270      	negs	r0, r6
10004f60:	900a      	str	r0, [sp, #40]	; 0x28
10004f62:	9309      	str	r3, [sp, #36]	; 0x24
10004f64:	7850      	ldrb	r0, [r2, #1]
10004f66:	1c56      	adds	r6, r2, #1
10004f68:	e77c      	b.n	10004e64 <_vsnprintf+0x90>
10004f6a:	2878      	cmp	r0, #120	; 0x78
10004f6c:	d100      	bne.n	10004f70 <_vsnprintf+0x19c>
10004f6e:	e1d4      	b.n	1000531a <_vsnprintf+0x546>
10004f70:	2858      	cmp	r0, #88	; 0x58
10004f72:	d100      	bne.n	10004f76 <_vsnprintf+0x1a2>
10004f74:	e268      	b.n	10005448 <_vsnprintf+0x674>
10004f76:	286f      	cmp	r0, #111	; 0x6f
10004f78:	d100      	bne.n	10004f7c <_vsnprintf+0x1a8>
10004f7a:	e352      	b.n	10005622 <_vsnprintf+0x84e>
10004f7c:	2862      	cmp	r0, #98	; 0x62
10004f7e:	d100      	bne.n	10004f82 <_vsnprintf+0x1ae>
10004f80:	e1d8      	b.n	10005334 <_vsnprintf+0x560>
10004f82:	2310      	movs	r3, #16
10004f84:	000a      	movs	r2, r1
10004f86:	439a      	bics	r2, r3
10004f88:	920b      	str	r2, [sp, #44]	; 0x2c
10004f8a:	2869      	cmp	r0, #105	; 0x69
10004f8c:	d001      	beq.n	10004f92 <_vsnprintf+0x1be>
10004f8e:	f000 fca2 	bl	100058d6 <_vsnprintf+0xb02>
10004f92:	230a      	movs	r3, #10
10004f94:	930c      	str	r3, [sp, #48]	; 0x30
10004f96:	054b      	lsls	r3, r1, #21
10004f98:	d400      	bmi.n	10004f9c <_vsnprintf+0x1c8>
10004f9a:	e1d5      	b.n	10005348 <_vsnprintf+0x574>
10004f9c:	2301      	movs	r3, #1
10004f9e:	9a0b      	ldr	r2, [sp, #44]	; 0x2c
10004fa0:	439a      	bics	r2, r3
10004fa2:	920b      	str	r2, [sp, #44]	; 0x2c
10004fa4:	2869      	cmp	r0, #105	; 0x69
10004fa6:	d100      	bne.n	10004faa <_vsnprintf+0x1d6>
10004fa8:	e1ce      	b.n	10005348 <_vsnprintf+0x574>
10004faa:	2864      	cmp	r0, #100	; 0x64
10004fac:	d100      	bne.n	10004fb0 <_vsnprintf+0x1dc>
10004fae:	e1cb      	b.n	10005348 <_vsnprintf+0x574>
10004fb0:	9a0b      	ldr	r2, [sp, #44]	; 0x2c
10004fb2:	2380      	movs	r3, #128	; 0x80
10004fb4:	0011      	movs	r1, r2
10004fb6:	009b      	lsls	r3, r3, #2
10004fb8:	4019      	ands	r1, r3
10004fba:	468a      	mov	sl, r1
10004fbc:	421a      	tst	r2, r3
10004fbe:	d000      	beq.n	10004fc2 <_vsnprintf+0x1ee>
10004fc0:	e332      	b.n	10005628 <_vsnprintf+0x854>
10004fc2:	2380      	movs	r3, #128	; 0x80
10004fc4:	0011      	movs	r1, r2
10004fc6:	005b      	lsls	r3, r3, #1
10004fc8:	4019      	ands	r1, r3
10004fca:	4689      	mov	r9, r1
10004fcc:	421a      	tst	r2, r3
10004fce:	d001      	beq.n	10004fd4 <_vsnprintf+0x200>
10004fd0:	f000 fc02 	bl	100057d8 <_vsnprintf+0xa04>
10004fd4:	0013      	movs	r3, r2
10004fd6:	065b      	lsls	r3, r3, #25
10004fd8:	d500      	bpl.n	10004fdc <_vsnprintf+0x208>
10004fda:	e310      	b.n	100055fe <_vsnprintf+0x82a>
10004fdc:	9b0b      	ldr	r3, [sp, #44]	; 0x2c
10004fde:	061b      	lsls	r3, r3, #24
10004fe0:	d401      	bmi.n	10004fe6 <_vsnprintf+0x212>
10004fe2:	f000 fc6e 	bl	100058c2 <_vsnprintf+0xaee>
10004fe6:	9b09      	ldr	r3, [sp, #36]	; 0x24
10004fe8:	cb04      	ldmia	r3!, {r2}
10004fea:	0412      	lsls	r2, r2, #16
10004fec:	0c12      	lsrs	r2, r2, #16
10004fee:	4692      	mov	sl, r2
10004ff0:	9309      	str	r3, [sp, #36]	; 0x24
10004ff2:	4653      	mov	r3, sl
10004ff4:	2b00      	cmp	r3, #0
10004ff6:	d000      	beq.n	10004ffa <_vsnprintf+0x226>
10004ff8:	e364      	b.n	100056c4 <_vsnprintf+0x8f0>
10004ffa:	9a0b      	ldr	r2, [sp, #44]	; 0x2c
10004ffc:	3310      	adds	r3, #16
10004ffe:	0011      	movs	r1, r2
10005000:	4399      	bics	r1, r3
10005002:	910b      	str	r1, [sp, #44]	; 0x2c
10005004:	0552      	lsls	r2, r2, #21
10005006:	d400      	bmi.n	1000500a <_vsnprintf+0x236>
10005008:	e35c      	b.n	100056c4 <_vsnprintf+0x8f0>
1000500a:	2300      	movs	r3, #0
1000500c:	4699      	mov	r9, r3
1000500e:	9b0b      	ldr	r3, [sp, #44]	; 0x2c
10005010:	9306      	str	r3, [sp, #24]
10005012:	9b0a      	ldr	r3, [sp, #40]	; 0x28
10005014:	9305      	str	r3, [sp, #20]
10005016:	4643      	mov	r3, r8
10005018:	9304      	str	r3, [sp, #16]
1000501a:	9b0c      	ldr	r3, [sp, #48]	; 0x30
1000501c:	9303      	str	r3, [sp, #12]
1000501e:	2300      	movs	r3, #0
10005020:	e2de      	b.n	100055e0 <_vsnprintf+0x80c>
10005022:	7870      	ldrb	r0, [r6, #1]
10005024:	2868      	cmp	r0, #104	; 0x68
10005026:	d100      	bne.n	1000502a <_vsnprintf+0x256>
10005028:	e207      	b.n	1000543a <_vsnprintf+0x666>
1000502a:	2380      	movs	r3, #128	; 0x80
1000502c:	3601      	adds	r6, #1
1000502e:	4319      	orrs	r1, r3
10005030:	e741      	b.n	10004eb6 <_vsnprintf+0xe2>
10005032:	2380      	movs	r3, #128	; 0x80
10005034:	009b      	lsls	r3, r3, #2
10005036:	7870      	ldrb	r0, [r6, #1]
10005038:	4319      	orrs	r1, r3
1000503a:	3601      	adds	r6, #1
1000503c:	e73b      	b.n	10004eb6 <_vsnprintf+0xe2>
1000503e:	2846      	cmp	r0, #70	; 0x46
10005040:	d100      	bne.n	10005044 <_vsnprintf+0x270>
10005042:	e174      	b.n	1000532e <_vsnprintf+0x55a>
10005044:	2207      	movs	r2, #7
10005046:	9b09      	ldr	r3, [sp, #36]	; 0x24
10005048:	9104      	str	r1, [sp, #16]
1000504a:	3307      	adds	r3, #7
1000504c:	4393      	bics	r3, r2
1000504e:	9a0a      	ldr	r2, [sp, #40]	; 0x28
10005050:	0019      	movs	r1, r3
10005052:	9203      	str	r2, [sp, #12]
10005054:	4642      	mov	r2, r8
10005056:	9202      	str	r2, [sp, #8]
10005058:	c90c      	ldmia	r1!, {r2, r3}
1000505a:	9808      	ldr	r0, [sp, #32]
1000505c:	9200      	str	r2, [sp, #0]
1000505e:	9301      	str	r3, [sp, #4]
10005060:	9109      	str	r1, [sp, #36]	; 0x24
10005062:	002a      	movs	r2, r5
10005064:	465b      	mov	r3, fp
10005066:	0021      	movs	r1, r4
10005068:	f7ff fcc4 	bl	100049f4 <_ftoa>
1000506c:	3601      	adds	r6, #1
1000506e:	0005      	movs	r5, r0
10005070:	e6d5      	b.n	10004e1e <_vsnprintf+0x4a>
10005072:	9b09      	ldr	r3, [sp, #36]	; 0x24
10005074:	001a      	movs	r2, r3
10005076:	ca08      	ldmia	r2!, {r3}
10005078:	4691      	mov	r9, r2
1000507a:	2b00      	cmp	r3, #0
1000507c:	d100      	bne.n	10005080 <_vsnprintf+0x2ac>
1000507e:	e105      	b.n	1000528c <_vsnprintf+0x4b8>
10005080:	2221      	movs	r2, #33	; 0x21
10005082:	4311      	orrs	r1, r2
10005084:	468a      	mov	sl, r1
10005086:	a80e      	add	r0, sp, #56	; 0x38
10005088:	4684      	mov	ip, r0
1000508a:	211f      	movs	r1, #31
1000508c:	4461      	add	r1, ip
1000508e:	9509      	str	r5, [sp, #36]	; 0x24
10005090:	2200      	movs	r2, #0
10005092:	270f      	movs	r7, #15
10005094:	46a4      	mov	ip, r4
10005096:	000d      	movs	r5, r1
10005098:	e002      	b.n	100050a0 <_vsnprintf+0x2cc>
1000509a:	2a20      	cmp	r2, #32
1000509c:	d00c      	beq.n	100050b8 <_vsnprintf+0x2e4>
1000509e:	000b      	movs	r3, r1
100050a0:	003c      	movs	r4, r7
100050a2:	401c      	ands	r4, r3
100050a4:	0020      	movs	r0, r4
100050a6:	3037      	adds	r0, #55	; 0x37
100050a8:	2c09      	cmp	r4, #9
100050aa:	d800      	bhi.n	100050ae <_vsnprintf+0x2da>
100050ac:	3807      	subs	r0, #7
100050ae:	3201      	adds	r2, #1
100050b0:	54a8      	strb	r0, [r5, r2]
100050b2:	0919      	lsrs	r1, r3, #4
100050b4:	2b0f      	cmp	r3, #15
100050b6:	d8f0      	bhi.n	1000509a <_vsnprintf+0x2c6>
100050b8:	4664      	mov	r4, ip
100050ba:	9d09      	ldr	r5, [sp, #36]	; 0x24
100050bc:	e0f0      	b.n	100052a0 <_vsnprintf+0x4cc>
100050be:	078b      	lsls	r3, r1, #30
100050c0:	d400      	bmi.n	100050c4 <_vsnprintf+0x2f0>
100050c2:	e1d1      	b.n	10005468 <_vsnprintf+0x694>
100050c4:	9b09      	ldr	r3, [sp, #36]	; 0x24
100050c6:	002a      	movs	r2, r5
100050c8:	4699      	mov	r9, r3
100050ca:	1c6b      	adds	r3, r5, #1
100050cc:	4698      	mov	r8, r3
100050ce:	464b      	mov	r3, r9
100050d0:	cb01      	ldmia	r3!, {r0}
100050d2:	0021      	movs	r1, r4
100050d4:	4699      	mov	r9, r3
100050d6:	9f08      	ldr	r7, [sp, #32]
100050d8:	465b      	mov	r3, fp
100050da:	b2c0      	uxtb	r0, r0
100050dc:	47b8      	blx	r7
100050de:	9b0a      	ldr	r3, [sp, #40]	; 0x28
100050e0:	469c      	mov	ip, r3
100050e2:	4465      	add	r5, ip
100050e4:	2b01      	cmp	r3, #1
100050e6:	d800      	bhi.n	100050ea <_vsnprintf+0x316>
100050e8:	e290      	b.n	1000560c <_vsnprintf+0x838>
100050ea:	46b2      	mov	sl, r6
100050ec:	465e      	mov	r6, fp
100050ee:	4647      	mov	r7, r8
100050f0:	46a8      	mov	r8, r5
100050f2:	9d08      	ldr	r5, [sp, #32]
100050f4:	003a      	movs	r2, r7
100050f6:	0033      	movs	r3, r6
100050f8:	3701      	adds	r7, #1
100050fa:	0021      	movs	r1, r4
100050fc:	2020      	movs	r0, #32
100050fe:	47a8      	blx	r5
10005100:	4547      	cmp	r7, r8
10005102:	d1f7      	bne.n	100050f4 <_vsnprintf+0x320>
10005104:	46b3      	mov	fp, r6
10005106:	464b      	mov	r3, r9
10005108:	4656      	mov	r6, sl
1000510a:	003d      	movs	r5, r7
1000510c:	9309      	str	r3, [sp, #36]	; 0x24
1000510e:	3601      	adds	r6, #1
10005110:	e685      	b.n	10004e1e <_vsnprintf+0x4a>
10005112:	002a      	movs	r2, r5
10005114:	1c6f      	adds	r7, r5, #1
10005116:	465b      	mov	r3, fp
10005118:	9d08      	ldr	r5, [sp, #32]
1000511a:	0021      	movs	r1, r4
1000511c:	2025      	movs	r0, #37	; 0x25
1000511e:	47a8      	blx	r5
10005120:	3601      	adds	r6, #1
10005122:	003d      	movs	r5, r7
10005124:	e67b      	b.n	10004e1e <_vsnprintf+0x4a>
10005126:	46c0      	nop			; (mov r8, r8)
10005128:	10004dd5 	.word	0x10004dd5
1000512c:	20000890 	.word	0x20000890
10005130:	10007ce0 	.word	0x10007ce0
10005134:	10007d24 	.word	0x10007d24
10005138:	10007d70 	.word	0x10007d70
1000513c:	9b09      	ldr	r3, [sp, #36]	; 0x24
1000513e:	cb04      	ldmia	r3!, {r2}
10005140:	4699      	mov	r9, r3
10005142:	4643      	mov	r3, r8
10005144:	9209      	str	r2, [sp, #36]	; 0x24
10005146:	2b00      	cmp	r3, #0
10005148:	d000      	beq.n	1000514c <_vsnprintf+0x378>
1000514a:	e097      	b.n	1000527c <_vsnprintf+0x4a8>
1000514c:	7813      	ldrb	r3, [r2, #0]
1000514e:	469c      	mov	ip, r3
10005150:	2b00      	cmp	r3, #0
10005152:	d100      	bne.n	10005156 <_vsnprintf+0x382>
10005154:	e3b3      	b.n	100058be <_vsnprintf+0xaea>
10005156:	2302      	movs	r3, #2
10005158:	425b      	negs	r3, r3
1000515a:	1c5a      	adds	r2, r3, #1
1000515c:	9b09      	ldr	r3, [sp, #36]	; 0x24
1000515e:	4692      	mov	sl, r2
10005160:	0018      	movs	r0, r3
10005162:	9f0a      	ldr	r7, [sp, #40]	; 0x28
10005164:	920b      	str	r2, [sp, #44]	; 0x2c
10005166:	4450      	add	r0, sl
10005168:	e002      	b.n	10005170 <_vsnprintf+0x39c>
1000516a:	4283      	cmp	r3, r0
1000516c:	d100      	bne.n	10005170 <_vsnprintf+0x39c>
1000516e:	e169      	b.n	10005444 <_vsnprintf+0x670>
10005170:	785a      	ldrb	r2, [r3, #1]
10005172:	3301      	adds	r3, #1
10005174:	2a00      	cmp	r2, #0
10005176:	d1f8      	bne.n	1000516a <_vsnprintf+0x396>
10005178:	9a09      	ldr	r2, [sp, #36]	; 0x24
1000517a:	970a      	str	r7, [sp, #40]	; 0x28
1000517c:	1a9b      	subs	r3, r3, r2
1000517e:	930b      	str	r3, [sp, #44]	; 0x2c
10005180:	2380      	movs	r3, #128	; 0x80
10005182:	000a      	movs	r2, r1
10005184:	00db      	lsls	r3, r3, #3
10005186:	401a      	ands	r2, r3
10005188:	920c      	str	r2, [sp, #48]	; 0x30
1000518a:	4219      	tst	r1, r3
1000518c:	d004      	beq.n	10005198 <_vsnprintf+0x3c4>
1000518e:	9b0b      	ldr	r3, [sp, #44]	; 0x2c
10005190:	4543      	cmp	r3, r8
10005192:	d901      	bls.n	10005198 <_vsnprintf+0x3c4>
10005194:	4643      	mov	r3, r8
10005196:	930b      	str	r3, [sp, #44]	; 0x2c
10005198:	2302      	movs	r3, #2
1000519a:	001a      	movs	r2, r3
1000519c:	400a      	ands	r2, r1
1000519e:	920d      	str	r2, [sp, #52]	; 0x34
100051a0:	420b      	tst	r3, r1
100051a2:	d100      	bne.n	100051a6 <_vsnprintf+0x3d2>
100051a4:	e184      	b.n	100054b0 <_vsnprintf+0x6dc>
100051a6:	4660      	mov	r0, ip
100051a8:	2800      	cmp	r0, #0
100051aa:	d023      	beq.n	100051f4 <_vsnprintf+0x420>
100051ac:	9b0c      	ldr	r3, [sp, #48]	; 0x30
100051ae:	2b00      	cmp	r3, #0
100051b0:	d100      	bne.n	100051b4 <_vsnprintf+0x3e0>
100051b2:	e124      	b.n	100053fe <_vsnprintf+0x62a>
100051b4:	44a8      	add	r8, r5
100051b6:	46c2      	mov	sl, r8
100051b8:	9b09      	ldr	r3, [sp, #36]	; 0x24
100051ba:	4657      	mov	r7, sl
100051bc:	1b5b      	subs	r3, r3, r5
100051be:	4698      	mov	r8, r3
100051c0:	9b08      	ldr	r3, [sp, #32]
100051c2:	46b2      	mov	sl, r6
100051c4:	002a      	movs	r2, r5
100051c6:	0026      	movs	r6, r4
100051c8:	465c      	mov	r4, fp
100051ca:	469b      	mov	fp, r3
100051cc:	e009      	b.n	100051e2 <_vsnprintf+0x40e>
100051ce:	0023      	movs	r3, r4
100051d0:	0031      	movs	r1, r6
100051d2:	1c55      	adds	r5, r2, #1
100051d4:	47d8      	blx	fp
100051d6:	4643      	mov	r3, r8
100051d8:	5d58      	ldrb	r0, [r3, r5]
100051da:	2800      	cmp	r0, #0
100051dc:	d100      	bne.n	100051e0 <_vsnprintf+0x40c>
100051de:	e13f      	b.n	10005460 <_vsnprintf+0x68c>
100051e0:	002a      	movs	r2, r5
100051e2:	4297      	cmp	r7, r2
100051e4:	d1f3      	bne.n	100051ce <_vsnprintf+0x3fa>
100051e6:	46a3      	mov	fp, r4
100051e8:	003d      	movs	r5, r7
100051ea:	0034      	movs	r4, r6
100051ec:	4656      	mov	r6, sl
100051ee:	9b0d      	ldr	r3, [sp, #52]	; 0x34
100051f0:	2b00      	cmp	r3, #0
100051f2:	d069      	beq.n	100052c8 <_vsnprintf+0x4f4>
100051f4:	9b0b      	ldr	r3, [sp, #44]	; 0x2c
100051f6:	990a      	ldr	r1, [sp, #40]	; 0x28
100051f8:	46a8      	mov	r8, r5
100051fa:	4299      	cmp	r1, r3
100051fc:	d964      	bls.n	100052c8 <_vsnprintf+0x4f4>
100051fe:	468c      	mov	ip, r1
10005200:	4465      	add	r5, ip
10005202:	1aed      	subs	r5, r5, r3
10005204:	9b08      	ldr	r3, [sp, #32]
10005206:	4647      	mov	r7, r8
10005208:	469a      	mov	sl, r3
1000520a:	46b0      	mov	r8, r6
1000520c:	0026      	movs	r6, r4
1000520e:	465c      	mov	r4, fp
10005210:	003a      	movs	r2, r7
10005212:	0023      	movs	r3, r4
10005214:	3701      	adds	r7, #1
10005216:	0031      	movs	r1, r6
10005218:	2020      	movs	r0, #32
1000521a:	47d0      	blx	sl
1000521c:	42af      	cmp	r7, r5
1000521e:	d1f7      	bne.n	10005210 <_vsnprintf+0x43c>
10005220:	46a3      	mov	fp, r4
10005222:	0034      	movs	r4, r6
10005224:	4646      	mov	r6, r8
10005226:	e04f      	b.n	100052c8 <_vsnprintf+0x4f4>
10005228:	4bd2      	ldr	r3, [pc, #840]	; (10005574 <_vsnprintf+0x7a0>)
1000522a:	7820      	ldrb	r0, [r4, #0]
1000522c:	9308      	str	r3, [sp, #32]
1000522e:	2300      	movs	r3, #0
10005230:	469a      	mov	sl, r3
10005232:	2800      	cmp	r0, #0
10005234:	d000      	beq.n	10005238 <_vsnprintf+0x464>
10005236:	e5e6      	b.n	10004e06 <_vsnprintf+0x32>
10005238:	2400      	movs	r4, #0
1000523a:	e671      	b.n	10004f20 <_vsnprintf+0x14c>
1000523c:	4643      	mov	r3, r8
1000523e:	0006      	movs	r6, r0
10005240:	9f0a      	ldr	r7, [sp, #40]	; 0x28
10005242:	0098      	lsls	r0, r3, #2
10005244:	18c0      	adds	r0, r0, r3
10005246:	3201      	adds	r2, #1
10005248:	0040      	lsls	r0, r0, #1
1000524a:	1980      	adds	r0, r0, r6
1000524c:	7816      	ldrb	r6, [r2, #0]
1000524e:	0003      	movs	r3, r0
10005250:	0030      	movs	r0, r6
10005252:	3830      	subs	r0, #48	; 0x30
10005254:	3b30      	subs	r3, #48	; 0x30
10005256:	2809      	cmp	r0, #9
10005258:	d9f3      	bls.n	10005242 <_vsnprintf+0x46e>
1000525a:	0030      	movs	r0, r6
1000525c:	4698      	mov	r8, r3
1000525e:	0016      	movs	r6, r2
10005260:	970a      	str	r7, [sp, #40]	; 0x28
10005262:	e603      	b.n	10004e6c <_vsnprintf+0x98>
10005264:	9b09      	ldr	r3, [sp, #36]	; 0x24
10005266:	3602      	adds	r6, #2
10005268:	cb04      	ldmia	r3!, {r2}
1000526a:	4690      	mov	r8, r2
1000526c:	43d2      	mvns	r2, r2
1000526e:	4640      	mov	r0, r8
10005270:	17d2      	asrs	r2, r2, #31
10005272:	4010      	ands	r0, r2
10005274:	4680      	mov	r8, r0
10005276:	9309      	str	r3, [sp, #36]	; 0x24
10005278:	7830      	ldrb	r0, [r6, #0]
1000527a:	e5f7      	b.n	10004e6c <_vsnprintf+0x98>
1000527c:	7813      	ldrb	r3, [r2, #0]
1000527e:	469c      	mov	ip, r3
10005280:	2b00      	cmp	r3, #0
10005282:	d100      	bne.n	10005286 <_vsnprintf+0x4b2>
10005284:	e31a      	b.n	100058bc <_vsnprintf+0xae8>
10005286:	4643      	mov	r3, r8
10005288:	3b01      	subs	r3, #1
1000528a:	e766      	b.n	1000515a <_vsnprintf+0x386>
1000528c:	2210      	movs	r2, #16
1000528e:	0008      	movs	r0, r1
10005290:	4390      	bics	r0, r2
10005292:	3211      	adds	r2, #17
10005294:	4310      	orrs	r0, r2
10005296:	4682      	mov	sl, r0
10005298:	2200      	movs	r2, #0
1000529a:	0549      	lsls	r1, r1, #21
1000529c:	d400      	bmi.n	100052a0 <_vsnprintf+0x4cc>
1000529e:	e6f2      	b.n	10005086 <_vsnprintf+0x2b2>
100052a0:	4653      	mov	r3, sl
100052a2:	9306      	str	r3, [sp, #24]
100052a4:	2308      	movs	r3, #8
100052a6:	9305      	str	r3, [sp, #20]
100052a8:	4643      	mov	r3, r8
100052aa:	9304      	str	r3, [sp, #16]
100052ac:	2310      	movs	r3, #16
100052ae:	9303      	str	r3, [sp, #12]
100052b0:	2300      	movs	r3, #0
100052b2:	9302      	str	r3, [sp, #8]
100052b4:	ab16      	add	r3, sp, #88	; 0x58
100052b6:	9201      	str	r2, [sp, #4]
100052b8:	9300      	str	r3, [sp, #0]
100052ba:	002a      	movs	r2, r5
100052bc:	465b      	mov	r3, fp
100052be:	0021      	movs	r1, r4
100052c0:	9808      	ldr	r0, [sp, #32]
100052c2:	f7ff f863 	bl	1000438c <_ntoa_format>
100052c6:	0005      	movs	r5, r0
100052c8:	464b      	mov	r3, r9
100052ca:	3601      	adds	r6, #1
100052cc:	9309      	str	r3, [sp, #36]	; 0x24
100052ce:	e5a6      	b.n	10004e1e <_vsnprintf+0x4a>
100052d0:	2320      	movs	r3, #32
100052d2:	0002      	movs	r2, r0
100052d4:	439a      	bics	r2, r3
100052d6:	2a47      	cmp	r2, #71	; 0x47
100052d8:	d104      	bne.n	100052e4 <_vsnprintf+0x510>
100052da:	2380      	movs	r3, #128	; 0x80
100052dc:	011b      	lsls	r3, r3, #4
100052de:	4319      	orrs	r1, r3
100052e0:	2302      	movs	r3, #2
100052e2:	4398      	bics	r0, r3
100052e4:	2845      	cmp	r0, #69	; 0x45
100052e6:	d101      	bne.n	100052ec <_vsnprintf+0x518>
100052e8:	2320      	movs	r3, #32
100052ea:	4319      	orrs	r1, r3
100052ec:	2207      	movs	r2, #7
100052ee:	9b09      	ldr	r3, [sp, #36]	; 0x24
100052f0:	9104      	str	r1, [sp, #16]
100052f2:	3307      	adds	r3, #7
100052f4:	4393      	bics	r3, r2
100052f6:	9a0a      	ldr	r2, [sp, #40]	; 0x28
100052f8:	0019      	movs	r1, r3
100052fa:	9203      	str	r2, [sp, #12]
100052fc:	4642      	mov	r2, r8
100052fe:	9202      	str	r2, [sp, #8]
10005300:	c90c      	ldmia	r1!, {r2, r3}
10005302:	9808      	ldr	r0, [sp, #32]
10005304:	9200      	str	r2, [sp, #0]
10005306:	9301      	str	r3, [sp, #4]
10005308:	9109      	str	r1, [sp, #36]	; 0x24
1000530a:	002a      	movs	r2, r5
1000530c:	465b      	mov	r3, fp
1000530e:	0021      	movs	r1, r4
10005310:	f7ff f934 	bl	1000457c <_etoa>
10005314:	3601      	adds	r6, #1
10005316:	0005      	movs	r5, r0
10005318:	e581      	b.n	10004e1e <_vsnprintf+0x4a>
1000531a:	2310      	movs	r3, #16
1000531c:	930c      	str	r3, [sp, #48]	; 0x30
1000531e:	230c      	movs	r3, #12
10005320:	000a      	movs	r2, r1
10005322:	439a      	bics	r2, r3
10005324:	920b      	str	r2, [sp, #44]	; 0x2c
10005326:	054b      	lsls	r3, r1, #21
10005328:	d400      	bmi.n	1000532c <_vsnprintf+0x558>
1000532a:	e63b      	b.n	10004fa4 <_vsnprintf+0x1d0>
1000532c:	e636      	b.n	10004f9c <_vsnprintf+0x1c8>
1000532e:	2320      	movs	r3, #32
10005330:	4319      	orrs	r1, r3
10005332:	e687      	b.n	10005044 <_vsnprintf+0x270>
10005334:	2302      	movs	r3, #2
10005336:	930c      	str	r3, [sp, #48]	; 0x30
10005338:	910b      	str	r1, [sp, #44]	; 0x2c
1000533a:	990b      	ldr	r1, [sp, #44]	; 0x2c
1000533c:	2864      	cmp	r0, #100	; 0x64
1000533e:	d1ee      	bne.n	1000531e <_vsnprintf+0x54a>
10005340:	9b0b      	ldr	r3, [sp, #44]	; 0x2c
10005342:	055b      	lsls	r3, r3, #21
10005344:	d500      	bpl.n	10005348 <_vsnprintf+0x574>
10005346:	e629      	b.n	10004f9c <_vsnprintf+0x1c8>
10005348:	9a0b      	ldr	r2, [sp, #44]	; 0x2c
1000534a:	2380      	movs	r3, #128	; 0x80
1000534c:	0011      	movs	r1, r2
1000534e:	009b      	lsls	r3, r3, #2
10005350:	4019      	ands	r1, r3
10005352:	468a      	mov	sl, r1
10005354:	421a      	tst	r2, r3
10005356:	d000      	beq.n	1000535a <_vsnprintf+0x586>
10005358:	e0ce      	b.n	100054f8 <_vsnprintf+0x724>
1000535a:	2380      	movs	r3, #128	; 0x80
1000535c:	0011      	movs	r1, r2
1000535e:	005b      	lsls	r3, r3, #1
10005360:	4019      	ands	r1, r3
10005362:	4689      	mov	r9, r1
10005364:	421a      	tst	r2, r3
10005366:	d000      	beq.n	1000536a <_vsnprintf+0x596>
10005368:	e1db      	b.n	10005722 <_vsnprintf+0x94e>
1000536a:	0013      	movs	r3, r2
1000536c:	065b      	lsls	r3, r3, #25
1000536e:	d500      	bpl.n	10005372 <_vsnprintf+0x59e>
10005370:	e11d      	b.n	100055ae <_vsnprintf+0x7da>
10005372:	9b0b      	ldr	r3, [sp, #44]	; 0x2c
10005374:	9909      	ldr	r1, [sp, #36]	; 0x24
10005376:	061b      	lsls	r3, r3, #24
10005378:	d400      	bmi.n	1000537c <_vsnprintf+0x5a8>
1000537a:	e299      	b.n	100058b0 <_vsnprintf+0xadc>
1000537c:	c908      	ldmia	r1!, {r3}
1000537e:	b21b      	sxth	r3, r3
10005380:	17d8      	asrs	r0, r3, #31
10005382:	181a      	adds	r2, r3, r0
10005384:	4042      	eors	r2, r0
10005386:	b292      	uxth	r2, r2
10005388:	9109      	str	r1, [sp, #36]	; 0x24
1000538a:	4692      	mov	sl, r2
1000538c:	0fda      	lsrs	r2, r3, #31
1000538e:	9212      	str	r2, [sp, #72]	; 0x48
10005390:	2b00      	cmp	r3, #0
10005392:	d109      	bne.n	100053a8 <_vsnprintf+0x5d4>
10005394:	2380      	movs	r3, #128	; 0x80
10005396:	2210      	movs	r2, #16
10005398:	990b      	ldr	r1, [sp, #44]	; 0x2c
1000539a:	00db      	lsls	r3, r3, #3
1000539c:	400b      	ands	r3, r1
1000539e:	4391      	bics	r1, r2
100053a0:	910b      	str	r1, [sp, #44]	; 0x2c
100053a2:	2b00      	cmp	r3, #0
100053a4:	d000      	beq.n	100053a8 <_vsnprintf+0x5d4>
100053a6:	e112      	b.n	100055ce <_vsnprintf+0x7fa>
100053a8:	9a0b      	ldr	r2, [sp, #44]	; 0x2c
100053aa:	2361      	movs	r3, #97	; 0x61
100053ac:	0692      	lsls	r2, r2, #26
100053ae:	d500      	bpl.n	100053b2 <_vsnprintf+0x5de>
100053b0:	2341      	movs	r3, #65	; 0x41
100053b2:	a90e      	add	r1, sp, #56	; 0x38
100053b4:	221f      	movs	r2, #31
100053b6:	468c      	mov	ip, r1
100053b8:	b2db      	uxtb	r3, r3
100053ba:	4462      	add	r2, ip
100053bc:	3b0a      	subs	r3, #10
100053be:	4657      	mov	r7, sl
100053c0:	9513      	str	r5, [sp, #76]	; 0x4c
100053c2:	46a2      	mov	sl, r4
100053c4:	464d      	mov	r5, r9
100053c6:	9c0c      	ldr	r4, [sp, #48]	; 0x30
100053c8:	46b1      	mov	r9, r6
100053ca:	930d      	str	r3, [sp, #52]	; 0x34
100053cc:	0016      	movs	r6, r2
100053ce:	e00a      	b.n	100053e6 <_vsnprintf+0x612>
100053d0:	3330      	adds	r3, #48	; 0x30
100053d2:	b2db      	uxtb	r3, r3
100053d4:	3501      	adds	r5, #1
100053d6:	5573      	strb	r3, [r6, r5]
100053d8:	42a7      	cmp	r7, r4
100053da:	d200      	bcs.n	100053de <_vsnprintf+0x60a>
100053dc:	e11c      	b.n	10005618 <_vsnprintf+0x844>
100053de:	2d20      	cmp	r5, #32
100053e0:	d100      	bne.n	100053e4 <_vsnprintf+0x610>
100053e2:	e119      	b.n	10005618 <_vsnprintf+0x844>
100053e4:	0007      	movs	r7, r0
100053e6:	0021      	movs	r1, r4
100053e8:	0038      	movs	r0, r7
100053ea:	f000 fb15 	bl	10005a18 <__wrap___aeabi_uidiv>
100053ee:	b2cb      	uxtb	r3, r1
100053f0:	2909      	cmp	r1, #9
100053f2:	d9ed      	bls.n	100053d0 <_vsnprintf+0x5fc>
100053f4:	9a0d      	ldr	r2, [sp, #52]	; 0x34
100053f6:	4694      	mov	ip, r2
100053f8:	4463      	add	r3, ip
100053fa:	b2db      	uxtb	r3, r3
100053fc:	e7ea      	b.n	100053d4 <_vsnprintf+0x600>
100053fe:	9b09      	ldr	r3, [sp, #36]	; 0x24
10005400:	465f      	mov	r7, fp
10005402:	1b5b      	subs	r3, r3, r5
10005404:	4698      	mov	r8, r3
10005406:	9b0a      	ldr	r3, [sp, #40]	; 0x28
10005408:	46b3      	mov	fp, r6
1000540a:	469a      	mov	sl, r3
1000540c:	0026      	movs	r6, r4
1000540e:	9c08      	ldr	r4, [sp, #32]
10005410:	002a      	movs	r2, r5
10005412:	003b      	movs	r3, r7
10005414:	0031      	movs	r1, r6
10005416:	47a0      	blx	r4
10005418:	4643      	mov	r3, r8
1000541a:	3501      	adds	r5, #1
1000541c:	5d58      	ldrb	r0, [r3, r5]
1000541e:	2800      	cmp	r0, #0
10005420:	d1f6      	bne.n	10005410 <_vsnprintf+0x63c>
10005422:	4653      	mov	r3, sl
10005424:	0034      	movs	r4, r6
10005426:	930a      	str	r3, [sp, #40]	; 0x28
10005428:	465e      	mov	r6, fp
1000542a:	46bb      	mov	fp, r7
1000542c:	e6df      	b.n	100051ee <_vsnprintf+0x41a>
1000542e:	23c0      	movs	r3, #192	; 0xc0
10005430:	009b      	lsls	r3, r3, #2
10005432:	78b0      	ldrb	r0, [r6, #2]
10005434:	4319      	orrs	r1, r3
10005436:	3602      	adds	r6, #2
10005438:	e53d      	b.n	10004eb6 <_vsnprintf+0xe2>
1000543a:	23c0      	movs	r3, #192	; 0xc0
1000543c:	78b0      	ldrb	r0, [r6, #2]
1000543e:	4319      	orrs	r1, r3
10005440:	3602      	adds	r6, #2
10005442:	e538      	b.n	10004eb6 <_vsnprintf+0xe2>
10005444:	970a      	str	r7, [sp, #40]	; 0x28
10005446:	e69b      	b.n	10005180 <_vsnprintf+0x3ac>
10005448:	230c      	movs	r3, #12
1000544a:	000a      	movs	r2, r1
1000544c:	439a      	bics	r2, r3
1000544e:	3314      	adds	r3, #20
10005450:	431a      	orrs	r2, r3
10005452:	2310      	movs	r3, #16
10005454:	920b      	str	r2, [sp, #44]	; 0x2c
10005456:	930c      	str	r3, [sp, #48]	; 0x30
10005458:	054b      	lsls	r3, r1, #21
1000545a:	d400      	bmi.n	1000545e <_vsnprintf+0x68a>
1000545c:	e5a8      	b.n	10004fb0 <_vsnprintf+0x1dc>
1000545e:	e59d      	b.n	10004f9c <_vsnprintf+0x1c8>
10005460:	46a3      	mov	fp, r4
10005462:	0034      	movs	r4, r6
10005464:	4656      	mov	r6, sl
10005466:	e6c2      	b.n	100051ee <_vsnprintf+0x41a>
10005468:	9a0a      	ldr	r2, [sp, #40]	; 0x28
1000546a:	2a01      	cmp	r2, #1
1000546c:	d800      	bhi.n	10005470 <_vsnprintf+0x69c>
1000546e:	e22e      	b.n	100058ce <_vsnprintf+0xafa>
10005470:	1e6b      	subs	r3, r5, #1
10005472:	189f      	adds	r7, r3, r2
10005474:	9b08      	ldr	r3, [sp, #32]
10005476:	46b0      	mov	r8, r6
10005478:	4699      	mov	r9, r3
1000547a:	0026      	movs	r6, r4
1000547c:	465c      	mov	r4, fp
1000547e:	002a      	movs	r2, r5
10005480:	0023      	movs	r3, r4
10005482:	3501      	adds	r5, #1
10005484:	0031      	movs	r1, r6
10005486:	2020      	movs	r0, #32
10005488:	47c8      	blx	r9
1000548a:	42bd      	cmp	r5, r7
1000548c:	d1f7      	bne.n	1000547e <_vsnprintf+0x6aa>
1000548e:	46a3      	mov	fp, r4
10005490:	0034      	movs	r4, r6
10005492:	4646      	mov	r6, r8
10005494:	9b09      	ldr	r3, [sp, #36]	; 0x24
10005496:	003a      	movs	r2, r7
10005498:	cb01      	ldmia	r3!, {r0}
1000549a:	0021      	movs	r1, r4
1000549c:	4698      	mov	r8, r3
1000549e:	1c7d      	adds	r5, r7, #1
100054a0:	465b      	mov	r3, fp
100054a2:	9f08      	ldr	r7, [sp, #32]
100054a4:	b2c0      	uxtb	r0, r0
100054a6:	47b8      	blx	r7
100054a8:	4643      	mov	r3, r8
100054aa:	3601      	adds	r6, #1
100054ac:	9309      	str	r3, [sp, #36]	; 0x24
100054ae:	e4b6      	b.n	10004e1e <_vsnprintf+0x4a>
100054b0:	9a0b      	ldr	r2, [sp, #44]	; 0x2c
100054b2:	980a      	ldr	r0, [sp, #40]	; 0x28
100054b4:	1c53      	adds	r3, r2, #1
100054b6:	4290      	cmp	r0, r2
100054b8:	d800      	bhi.n	100054bc <_vsnprintf+0x6e8>
100054ba:	e20a      	b.n	100058d2 <_vsnprintf+0xafe>
100054bc:	1943      	adds	r3, r0, r5
100054be:	1a9b      	subs	r3, r3, r2
100054c0:	001f      	movs	r7, r3
100054c2:	9b08      	ldr	r3, [sp, #32]
100054c4:	46b2      	mov	sl, r6
100054c6:	0026      	movs	r6, r4
100054c8:	465c      	mov	r4, fp
100054ca:	469b      	mov	fp, r3
100054cc:	002a      	movs	r2, r5
100054ce:	0023      	movs	r3, r4
100054d0:	3501      	adds	r5, #1
100054d2:	0031      	movs	r1, r6
100054d4:	2020      	movs	r0, #32
100054d6:	47d8      	blx	fp
100054d8:	42bd      	cmp	r5, r7
100054da:	d1f7      	bne.n	100054cc <_vsnprintf+0x6f8>
100054dc:	9b0a      	ldr	r3, [sp, #40]	; 0x28
100054de:	46a3      	mov	fp, r4
100054e0:	3301      	adds	r3, #1
100054e2:	930b      	str	r3, [sp, #44]	; 0x2c
100054e4:	9b09      	ldr	r3, [sp, #36]	; 0x24
100054e6:	0034      	movs	r4, r6
100054e8:	781b      	ldrb	r3, [r3, #0]
100054ea:	4656      	mov	r6, sl
100054ec:	469c      	mov	ip, r3
100054ee:	4660      	mov	r0, ip
100054f0:	2800      	cmp	r0, #0
100054f2:	d000      	beq.n	100054f6 <_vsnprintf+0x722>
100054f4:	e65a      	b.n	100051ac <_vsnprintf+0x3d8>
100054f6:	e6e7      	b.n	100052c8 <_vsnprintf+0x4f4>
100054f8:	2207      	movs	r2, #7
100054fa:	9b09      	ldr	r3, [sp, #36]	; 0x24
100054fc:	3307      	adds	r3, #7
100054fe:	4393      	bics	r3, r2
10005500:	3201      	adds	r2, #1
10005502:	4694      	mov	ip, r2
10005504:	449c      	add	ip, r3
10005506:	4662      	mov	r2, ip
10005508:	685f      	ldr	r7, [r3, #4]
1000550a:	9209      	str	r2, [sp, #36]	; 0x24
1000550c:	681a      	ldr	r2, [r3, #0]
1000550e:	17fb      	asrs	r3, r7, #31
10005510:	9310      	str	r3, [sp, #64]	; 0x40
10005512:	9311      	str	r3, [sp, #68]	; 0x44
10005514:	9810      	ldr	r0, [sp, #64]	; 0x40
10005516:	9911      	ldr	r1, [sp, #68]	; 0x44
10005518:	0003      	movs	r3, r0
1000551a:	4053      	eors	r3, r2
1000551c:	930e      	str	r3, [sp, #56]	; 0x38
1000551e:	000b      	movs	r3, r1
10005520:	407b      	eors	r3, r7
10005522:	930f      	str	r3, [sp, #60]	; 0x3c
10005524:	4694      	mov	ip, r2
10005526:	9a0e      	ldr	r2, [sp, #56]	; 0x38
10005528:	9b0f      	ldr	r3, [sp, #60]	; 0x3c
1000552a:	1a12      	subs	r2, r2, r0
1000552c:	418b      	sbcs	r3, r1
1000552e:	920e      	str	r2, [sp, #56]	; 0x38
10005530:	930f      	str	r3, [sp, #60]	; 0x3c
10005532:	0ffb      	lsrs	r3, r7, #31
10005534:	4662      	mov	r2, ip
10005536:	9312      	str	r3, [sp, #72]	; 0x48
10005538:	2300      	movs	r3, #0
1000553a:	433a      	orrs	r2, r7
1000553c:	469a      	mov	sl, r3
1000553e:	d03d      	beq.n	100055bc <_vsnprintf+0x7e8>
10005540:	9a0b      	ldr	r2, [sp, #44]	; 0x2c
10005542:	2361      	movs	r3, #97	; 0x61
10005544:	0692      	lsls	r2, r2, #26
10005546:	d500      	bpl.n	1000554a <_vsnprintf+0x776>
10005548:	2341      	movs	r3, #65	; 0x41
1000554a:	2200      	movs	r2, #0
1000554c:	b2db      	uxtb	r3, r3
1000554e:	a90e      	add	r1, sp, #56	; 0x38
10005550:	3b0a      	subs	r3, #10
10005552:	468c      	mov	ip, r1
10005554:	4691      	mov	r9, r2
10005556:	930d      	str	r3, [sp, #52]	; 0x34
10005558:	4643      	mov	r3, r8
1000555a:	321f      	adds	r2, #31
1000555c:	4462      	add	r2, ip
1000555e:	9513      	str	r5, [sp, #76]	; 0x4c
10005560:	9615      	str	r6, [sp, #84]	; 0x54
10005562:	464d      	mov	r5, r9
10005564:	9e0e      	ldr	r6, [sp, #56]	; 0x38
10005566:	9f0f      	ldr	r7, [sp, #60]	; 0x3c
10005568:	46a1      	mov	r9, r4
1000556a:	4690      	mov	r8, r2
1000556c:	9c0c      	ldr	r4, [sp, #48]	; 0x30
1000556e:	9314      	str	r3, [sp, #80]	; 0x50
10005570:	e00f      	b.n	10005592 <_vsnprintf+0x7be>
10005572:	46c0      	nop			; (mov r8, r8)
10005574:	100042b9 	.word	0x100042b9
10005578:	3230      	adds	r2, #48	; 0x30
1000557a:	b2d2      	uxtb	r2, r2
1000557c:	4643      	mov	r3, r8
1000557e:	3501      	adds	r5, #1
10005580:	555a      	strb	r2, [r3, r5]
10005582:	45ba      	cmp	sl, r7
10005584:	d100      	bne.n	10005588 <_vsnprintf+0x7b4>
10005586:	e17c      	b.n	10005882 <_vsnprintf+0xaae>
10005588:	2d20      	cmp	r5, #32
1000558a:	d100      	bne.n	1000558e <_vsnprintf+0x7ba>
1000558c:	e17c      	b.n	10005888 <_vsnprintf+0xab4>
1000558e:	0006      	movs	r6, r0
10005590:	000f      	movs	r7, r1
10005592:	0022      	movs	r2, r4
10005594:	2300      	movs	r3, #0
10005596:	0030      	movs	r0, r6
10005598:	0039      	movs	r1, r7
1000559a:	f000 fa83 	bl	10005aa4 <__wrap___aeabi_uldivmod>
1000559e:	b2d2      	uxtb	r2, r2
100055a0:	2a09      	cmp	r2, #9
100055a2:	d9e9      	bls.n	10005578 <_vsnprintf+0x7a4>
100055a4:	9b0d      	ldr	r3, [sp, #52]	; 0x34
100055a6:	469c      	mov	ip, r3
100055a8:	4462      	add	r2, ip
100055aa:	b2d2      	uxtb	r2, r2
100055ac:	e7e6      	b.n	1000557c <_vsnprintf+0x7a8>
100055ae:	23ff      	movs	r3, #255	; 0xff
100055b0:	9909      	ldr	r1, [sp, #36]	; 0x24
100055b2:	c904      	ldmia	r1!, {r2}
100055b4:	4013      	ands	r3, r2
100055b6:	001a      	movs	r2, r3
100055b8:	9109      	str	r1, [sp, #36]	; 0x24
100055ba:	e6e6      	b.n	1000538a <_vsnprintf+0x5b6>
100055bc:	9a0b      	ldr	r2, [sp, #44]	; 0x2c
100055be:	3310      	adds	r3, #16
100055c0:	0011      	movs	r1, r2
100055c2:	4399      	bics	r1, r3
100055c4:	910b      	str	r1, [sp, #44]	; 0x2c
100055c6:	0552      	lsls	r2, r2, #21
100055c8:	d5ba      	bpl.n	10005540 <_vsnprintf+0x76c>
100055ca:	2300      	movs	r3, #0
100055cc:	4699      	mov	r9, r3
100055ce:	9b0b      	ldr	r3, [sp, #44]	; 0x2c
100055d0:	9306      	str	r3, [sp, #24]
100055d2:	9b0a      	ldr	r3, [sp, #40]	; 0x28
100055d4:	9305      	str	r3, [sp, #20]
100055d6:	4643      	mov	r3, r8
100055d8:	9304      	str	r3, [sp, #16]
100055da:	9b0c      	ldr	r3, [sp, #48]	; 0x30
100055dc:	9303      	str	r3, [sp, #12]
100055de:	9b12      	ldr	r3, [sp, #72]	; 0x48
100055e0:	9302      	str	r3, [sp, #8]
100055e2:	464b      	mov	r3, r9
100055e4:	9301      	str	r3, [sp, #4]
100055e6:	ab16      	add	r3, sp, #88	; 0x58
100055e8:	002a      	movs	r2, r5
100055ea:	9300      	str	r3, [sp, #0]
100055ec:	0021      	movs	r1, r4
100055ee:	465b      	mov	r3, fp
100055f0:	9808      	ldr	r0, [sp, #32]
100055f2:	f7fe fecb 	bl	1000438c <_ntoa_format>
100055f6:	3601      	adds	r6, #1
100055f8:	0005      	movs	r5, r0
100055fa:	f7ff fc10 	bl	10004e1e <_vsnprintf+0x4a>
100055fe:	22ff      	movs	r2, #255	; 0xff
10005600:	9b09      	ldr	r3, [sp, #36]	; 0x24
10005602:	cb02      	ldmia	r3!, {r1}
10005604:	4011      	ands	r1, r2
10005606:	468a      	mov	sl, r1
10005608:	9309      	str	r3, [sp, #36]	; 0x24
1000560a:	e4f2      	b.n	10004ff2 <_vsnprintf+0x21e>
1000560c:	464b      	mov	r3, r9
1000560e:	4645      	mov	r5, r8
10005610:	9309      	str	r3, [sp, #36]	; 0x24
10005612:	3601      	adds	r6, #1
10005614:	f7ff fc03 	bl	10004e1e <_vsnprintf+0x4a>
10005618:	464e      	mov	r6, r9
1000561a:	4654      	mov	r4, sl
1000561c:	46a9      	mov	r9, r5
1000561e:	9d13      	ldr	r5, [sp, #76]	; 0x4c
10005620:	e7d5      	b.n	100055ce <_vsnprintf+0x7fa>
10005622:	2308      	movs	r3, #8
10005624:	930c      	str	r3, [sp, #48]	; 0x30
10005626:	e687      	b.n	10005338 <_vsnprintf+0x564>
10005628:	2207      	movs	r2, #7
1000562a:	9b09      	ldr	r3, [sp, #36]	; 0x24
1000562c:	3307      	adds	r3, #7
1000562e:	4393      	bics	r3, r2
10005630:	3201      	adds	r2, #1
10005632:	4694      	mov	ip, r2
10005634:	449c      	add	ip, r3
10005636:	4662      	mov	r2, ip
10005638:	9209      	str	r2, [sp, #36]	; 0x24
1000563a:	681a      	ldr	r2, [r3, #0]
1000563c:	685b      	ldr	r3, [r3, #4]
1000563e:	0010      	movs	r0, r2
10005640:	469a      	mov	sl, r3
10005642:	0013      	movs	r3, r2
10005644:	4652      	mov	r2, sl
10005646:	4313      	orrs	r3, r2
10005648:	d107      	bne.n	1000565a <_vsnprintf+0x886>
1000564a:	9a0b      	ldr	r2, [sp, #44]	; 0x2c
1000564c:	3310      	adds	r3, #16
1000564e:	0011      	movs	r1, r2
10005650:	4399      	bics	r1, r3
10005652:	910b      	str	r1, [sp, #44]	; 0x2c
10005654:	0552      	lsls	r2, r2, #21
10005656:	d500      	bpl.n	1000565a <_vsnprintf+0x886>
10005658:	e4d7      	b.n	1000500a <_vsnprintf+0x236>
1000565a:	9a0b      	ldr	r2, [sp, #44]	; 0x2c
1000565c:	2361      	movs	r3, #97	; 0x61
1000565e:	0692      	lsls	r2, r2, #26
10005660:	d500      	bpl.n	10005664 <_vsnprintf+0x890>
10005662:	2341      	movs	r3, #65	; 0x41
10005664:	2200      	movs	r2, #0
10005666:	b2db      	uxtb	r3, r3
10005668:	a90e      	add	r1, sp, #56	; 0x38
1000566a:	3b0a      	subs	r3, #10
1000566c:	468c      	mov	ip, r1
1000566e:	4691      	mov	r9, r2
10005670:	930d      	str	r3, [sp, #52]	; 0x34
10005672:	4643      	mov	r3, r8
10005674:	321f      	adds	r2, #31
10005676:	4462      	add	r2, ip
10005678:	4657      	mov	r7, sl
1000567a:	9512      	str	r5, [sp, #72]	; 0x48
1000567c:	46a2      	mov	sl, r4
1000567e:	464d      	mov	r5, r9
10005680:	0004      	movs	r4, r0
10005682:	46b1      	mov	r9, r6
10005684:	4690      	mov	r8, r2
10005686:	9e0c      	ldr	r6, [sp, #48]	; 0x30
10005688:	9313      	str	r3, [sp, #76]	; 0x4c
1000568a:	e00d      	b.n	100056a8 <_vsnprintf+0x8d4>
1000568c:	3230      	adds	r2, #48	; 0x30
1000568e:	b2d2      	uxtb	r2, r2
10005690:	4643      	mov	r3, r8
10005692:	3501      	adds	r5, #1
10005694:	555a      	strb	r2, [r3, r5]
10005696:	2300      	movs	r3, #0
10005698:	42bb      	cmp	r3, r7
1000569a:	d100      	bne.n	1000569e <_vsnprintf+0x8ca>
1000569c:	e0fd      	b.n	1000589a <_vsnprintf+0xac6>
1000569e:	2d20      	cmp	r5, #32
100056a0:	d100      	bne.n	100056a4 <_vsnprintf+0x8d0>
100056a2:	e0fd      	b.n	100058a0 <_vsnprintf+0xacc>
100056a4:	0004      	movs	r4, r0
100056a6:	000f      	movs	r7, r1
100056a8:	0032      	movs	r2, r6
100056aa:	2300      	movs	r3, #0
100056ac:	0020      	movs	r0, r4
100056ae:	0039      	movs	r1, r7
100056b0:	f000 f9f8 	bl	10005aa4 <__wrap___aeabi_uldivmod>
100056b4:	b2d2      	uxtb	r2, r2
100056b6:	2a09      	cmp	r2, #9
100056b8:	d9e8      	bls.n	1000568c <_vsnprintf+0x8b8>
100056ba:	9b0d      	ldr	r3, [sp, #52]	; 0x34
100056bc:	469c      	mov	ip, r3
100056be:	4462      	add	r2, ip
100056c0:	b2d2      	uxtb	r2, r2
100056c2:	e7e5      	b.n	10005690 <_vsnprintf+0x8bc>
100056c4:	9a0b      	ldr	r2, [sp, #44]	; 0x2c
100056c6:	2361      	movs	r3, #97	; 0x61
100056c8:	0692      	lsls	r2, r2, #26
100056ca:	d500      	bpl.n	100056ce <_vsnprintf+0x8fa>
100056cc:	2341      	movs	r3, #65	; 0x41
100056ce:	b2db      	uxtb	r3, r3
100056d0:	a90e      	add	r1, sp, #56	; 0x38
100056d2:	3b0a      	subs	r3, #10
100056d4:	221f      	movs	r2, #31
100056d6:	468c      	mov	ip, r1
100056d8:	930d      	str	r3, [sp, #52]	; 0x34
100056da:	0023      	movs	r3, r4
100056dc:	4462      	add	r2, ip
100056de:	4654      	mov	r4, sl
100056e0:	9512      	str	r5, [sp, #72]	; 0x48
100056e2:	0017      	movs	r7, r2
100056e4:	464d      	mov	r5, r9
100056e6:	469a      	mov	sl, r3
100056e8:	46b1      	mov	r9, r6
100056ea:	9e0c      	ldr	r6, [sp, #48]	; 0x30
100056ec:	e008      	b.n	10005700 <_vsnprintf+0x92c>
100056ee:	3330      	adds	r3, #48	; 0x30
100056f0:	b2db      	uxtb	r3, r3
100056f2:	3501      	adds	r5, #1
100056f4:	557b      	strb	r3, [r7, r5]
100056f6:	42b4      	cmp	r4, r6
100056f8:	d30e      	bcc.n	10005718 <_vsnprintf+0x944>
100056fa:	2d20      	cmp	r5, #32
100056fc:	d00c      	beq.n	10005718 <_vsnprintf+0x944>
100056fe:	0004      	movs	r4, r0
10005700:	0031      	movs	r1, r6
10005702:	0020      	movs	r0, r4
10005704:	f000 f988 	bl	10005a18 <__wrap___aeabi_uidiv>
10005708:	b2cb      	uxtb	r3, r1
1000570a:	2909      	cmp	r1, #9
1000570c:	d9ef      	bls.n	100056ee <_vsnprintf+0x91a>
1000570e:	9a0d      	ldr	r2, [sp, #52]	; 0x34
10005710:	4694      	mov	ip, r2
10005712:	4463      	add	r3, ip
10005714:	b2db      	uxtb	r3, r3
10005716:	e7ec      	b.n	100056f2 <_vsnprintf+0x91e>
10005718:	464e      	mov	r6, r9
1000571a:	4654      	mov	r4, sl
1000571c:	46a9      	mov	r9, r5
1000571e:	9d12      	ldr	r5, [sp, #72]	; 0x48
10005720:	e475      	b.n	1000500e <_vsnprintf+0x23a>
10005722:	9b09      	ldr	r3, [sp, #36]	; 0x24
10005724:	001a      	movs	r2, r3
10005726:	ca08      	ldmia	r2!, {r3}
10005728:	17d9      	asrs	r1, r3, #31
1000572a:	9213      	str	r2, [sp, #76]	; 0x4c
1000572c:	185a      	adds	r2, r3, r1
1000572e:	404a      	eors	r2, r1
10005730:	4691      	mov	r9, r2
10005732:	0fda      	lsrs	r2, r3, #31
10005734:	9212      	str	r2, [sp, #72]	; 0x48
10005736:	2b00      	cmp	r3, #0
10005738:	d108      	bne.n	1000574c <_vsnprintf+0x978>
1000573a:	2380      	movs	r3, #128	; 0x80
1000573c:	2210      	movs	r2, #16
1000573e:	990b      	ldr	r1, [sp, #44]	; 0x2c
10005740:	00db      	lsls	r3, r3, #3
10005742:	400b      	ands	r3, r1
10005744:	4391      	bics	r1, r2
10005746:	910b      	str	r1, [sp, #44]	; 0x2c
10005748:	2b00      	cmp	r3, #0
1000574a:	d12b      	bne.n	100057a4 <_vsnprintf+0x9d0>
1000574c:	9a0b      	ldr	r2, [sp, #44]	; 0x2c
1000574e:	2361      	movs	r3, #97	; 0x61
10005750:	0692      	lsls	r2, r2, #26
10005752:	d500      	bpl.n	10005756 <_vsnprintf+0x982>
10005754:	2341      	movs	r3, #65	; 0x41
10005756:	aa0e      	add	r2, sp, #56	; 0x38
10005758:	271f      	movs	r7, #31
1000575a:	4694      	mov	ip, r2
1000575c:	b2db      	uxtb	r3, r3
1000575e:	3b0a      	subs	r3, #10
10005760:	950d      	str	r5, [sp, #52]	; 0x34
10005762:	4467      	add	r7, ip
10005764:	4655      	mov	r5, sl
10005766:	9309      	str	r3, [sp, #36]	; 0x24
10005768:	46a2      	mov	sl, r4
1000576a:	464c      	mov	r4, r9
1000576c:	46b1      	mov	r9, r6
1000576e:	9e0c      	ldr	r6, [sp, #48]	; 0x30
10005770:	e008      	b.n	10005784 <_vsnprintf+0x9b0>
10005772:	3330      	adds	r3, #48	; 0x30
10005774:	b2db      	uxtb	r3, r3
10005776:	3501      	adds	r5, #1
10005778:	557b      	strb	r3, [r7, r5]
1000577a:	42b4      	cmp	r4, r6
1000577c:	d30e      	bcc.n	1000579c <_vsnprintf+0x9c8>
1000577e:	2d20      	cmp	r5, #32
10005780:	d00c      	beq.n	1000579c <_vsnprintf+0x9c8>
10005782:	0004      	movs	r4, r0
10005784:	0031      	movs	r1, r6
10005786:	0020      	movs	r0, r4
10005788:	f000 f946 	bl	10005a18 <__wrap___aeabi_uidiv>
1000578c:	b2cb      	uxtb	r3, r1
1000578e:	2909      	cmp	r1, #9
10005790:	d9ef      	bls.n	10005772 <_vsnprintf+0x99e>
10005792:	9a09      	ldr	r2, [sp, #36]	; 0x24
10005794:	4694      	mov	ip, r2
10005796:	4463      	add	r3, ip
10005798:	b2db      	uxtb	r3, r3
1000579a:	e7ec      	b.n	10005776 <_vsnprintf+0x9a2>
1000579c:	464e      	mov	r6, r9
1000579e:	4654      	mov	r4, sl
100057a0:	46aa      	mov	sl, r5
100057a2:	9d0d      	ldr	r5, [sp, #52]	; 0x34
100057a4:	9b0b      	ldr	r3, [sp, #44]	; 0x2c
100057a6:	002a      	movs	r2, r5
100057a8:	9306      	str	r3, [sp, #24]
100057aa:	9b0a      	ldr	r3, [sp, #40]	; 0x28
100057ac:	0021      	movs	r1, r4
100057ae:	9305      	str	r3, [sp, #20]
100057b0:	4643      	mov	r3, r8
100057b2:	9304      	str	r3, [sp, #16]
100057b4:	9b0c      	ldr	r3, [sp, #48]	; 0x30
100057b6:	9808      	ldr	r0, [sp, #32]
100057b8:	9303      	str	r3, [sp, #12]
100057ba:	9b12      	ldr	r3, [sp, #72]	; 0x48
100057bc:	3601      	adds	r6, #1
100057be:	9302      	str	r3, [sp, #8]
100057c0:	4653      	mov	r3, sl
100057c2:	9301      	str	r3, [sp, #4]
100057c4:	ab16      	add	r3, sp, #88	; 0x58
100057c6:	9300      	str	r3, [sp, #0]
100057c8:	465b      	mov	r3, fp
100057ca:	f7fe fddf 	bl	1000438c <_ntoa_format>
100057ce:	9b13      	ldr	r3, [sp, #76]	; 0x4c
100057d0:	0005      	movs	r5, r0
100057d2:	9309      	str	r3, [sp, #36]	; 0x24
100057d4:	f7ff fb23 	bl	10004e1e <_vsnprintf+0x4a>
100057d8:	9b09      	ldr	r3, [sp, #36]	; 0x24
100057da:	cb04      	ldmia	r3!, {r2}
100057dc:	4691      	mov	r9, r2
100057de:	9312      	str	r3, [sp, #72]	; 0x48
100057e0:	2a00      	cmp	r2, #0
100057e2:	d108      	bne.n	100057f6 <_vsnprintf+0xa22>
100057e4:	2380      	movs	r3, #128	; 0x80
100057e6:	2210      	movs	r2, #16
100057e8:	990b      	ldr	r1, [sp, #44]	; 0x2c
100057ea:	00db      	lsls	r3, r3, #3
100057ec:	400b      	ands	r3, r1
100057ee:	4391      	bics	r1, r2
100057f0:	910b      	str	r1, [sp, #44]	; 0x2c
100057f2:	2b00      	cmp	r3, #0
100057f4:	d12b      	bne.n	1000584e <_vsnprintf+0xa7a>
100057f6:	9a0b      	ldr	r2, [sp, #44]	; 0x2c
100057f8:	2361      	movs	r3, #97	; 0x61
100057fa:	0692      	lsls	r2, r2, #26
100057fc:	d500      	bpl.n	10005800 <_vsnprintf+0xa2c>
100057fe:	2341      	movs	r3, #65	; 0x41
10005800:	aa0e      	add	r2, sp, #56	; 0x38
10005802:	271f      	movs	r7, #31
10005804:	4694      	mov	ip, r2
10005806:	b2db      	uxtb	r3, r3
10005808:	3b0a      	subs	r3, #10
1000580a:	950d      	str	r5, [sp, #52]	; 0x34
1000580c:	4467      	add	r7, ip
1000580e:	4655      	mov	r5, sl
10005810:	9309      	str	r3, [sp, #36]	; 0x24
10005812:	46a2      	mov	sl, r4
10005814:	464c      	mov	r4, r9
10005816:	46b1      	mov	r9, r6
10005818:	9e0c      	ldr	r6, [sp, #48]	; 0x30
1000581a:	e008      	b.n	1000582e <_vsnprintf+0xa5a>
1000581c:	3330      	adds	r3, #48	; 0x30
1000581e:	b2db      	uxtb	r3, r3
10005820:	3501      	adds	r5, #1
10005822:	557b      	strb	r3, [r7, r5]
10005824:	42b4      	cmp	r4, r6
10005826:	d30e      	bcc.n	10005846 <_vsnprintf+0xa72>
10005828:	2d20      	cmp	r5, #32
1000582a:	d00c      	beq.n	10005846 <_vsnprintf+0xa72>
1000582c:	0004      	movs	r4, r0
1000582e:	0031      	movs	r1, r6
10005830:	0020      	movs	r0, r4
10005832:	f000 f8f1 	bl	10005a18 <__wrap___aeabi_uidiv>
10005836:	b2cb      	uxtb	r3, r1
10005838:	2909      	cmp	r1, #9
1000583a:	d9ef      	bls.n	1000581c <_vsnprintf+0xa48>
1000583c:	9a09      	ldr	r2, [sp, #36]	; 0x24
1000583e:	4694      	mov	ip, r2
10005840:	4463      	add	r3, ip
10005842:	b2db      	uxtb	r3, r3
10005844:	e7ec      	b.n	10005820 <_vsnprintf+0xa4c>
10005846:	464e      	mov	r6, r9
10005848:	4654      	mov	r4, sl
1000584a:	46aa      	mov	sl, r5
1000584c:	9d0d      	ldr	r5, [sp, #52]	; 0x34
1000584e:	9b0b      	ldr	r3, [sp, #44]	; 0x2c
10005850:	002a      	movs	r2, r5
10005852:	9306      	str	r3, [sp, #24]
10005854:	9b0a      	ldr	r3, [sp, #40]	; 0x28
10005856:	0021      	movs	r1, r4
10005858:	9305      	str	r3, [sp, #20]
1000585a:	4643      	mov	r3, r8
1000585c:	9304      	str	r3, [sp, #16]
1000585e:	9b0c      	ldr	r3, [sp, #48]	; 0x30
10005860:	9808      	ldr	r0, [sp, #32]
10005862:	9303      	str	r3, [sp, #12]
10005864:	2300      	movs	r3, #0
10005866:	9302      	str	r3, [sp, #8]
10005868:	4653      	mov	r3, sl
1000586a:	9301      	str	r3, [sp, #4]
1000586c:	ab16      	add	r3, sp, #88	; 0x58
1000586e:	9300      	str	r3, [sp, #0]
10005870:	465b      	mov	r3, fp
10005872:	f7fe fd8b 	bl	1000438c <_ntoa_format>
10005876:	9b12      	ldr	r3, [sp, #72]	; 0x48
10005878:	0005      	movs	r5, r0
1000587a:	9309      	str	r3, [sp, #36]	; 0x24
1000587c:	3601      	adds	r6, #1
1000587e:	f7ff face 	bl	10004e1e <_vsnprintf+0x4a>
10005882:	42b4      	cmp	r4, r6
10005884:	d800      	bhi.n	10005888 <_vsnprintf+0xab4>
10005886:	e67f      	b.n	10005588 <_vsnprintf+0x7b4>
10005888:	9b14      	ldr	r3, [sp, #80]	; 0x50
1000588a:	464c      	mov	r4, r9
1000588c:	960e      	str	r6, [sp, #56]	; 0x38
1000588e:	970f      	str	r7, [sp, #60]	; 0x3c
10005890:	46a9      	mov	r9, r5
10005892:	4698      	mov	r8, r3
10005894:	9e15      	ldr	r6, [sp, #84]	; 0x54
10005896:	9d13      	ldr	r5, [sp, #76]	; 0x4c
10005898:	e699      	b.n	100055ce <_vsnprintf+0x7fa>
1000589a:	42a6      	cmp	r6, r4
1000589c:	d800      	bhi.n	100058a0 <_vsnprintf+0xacc>
1000589e:	e6fe      	b.n	1000569e <_vsnprintf+0x8ca>
100058a0:	9b13      	ldr	r3, [sp, #76]	; 0x4c
100058a2:	464e      	mov	r6, r9
100058a4:	4698      	mov	r8, r3
100058a6:	46a9      	mov	r9, r5
100058a8:	4654      	mov	r4, sl
100058aa:	9d12      	ldr	r5, [sp, #72]	; 0x48
100058ac:	f7ff fbaf 	bl	1000500e <_vsnprintf+0x23a>
100058b0:	c908      	ldmia	r1!, {r3}
100058b2:	17d8      	asrs	r0, r3, #31
100058b4:	181a      	adds	r2, r3, r0
100058b6:	4042      	eors	r2, r0
100058b8:	9109      	str	r1, [sp, #36]	; 0x24
100058ba:	e566      	b.n	1000538a <_vsnprintf+0x5b6>
100058bc:	2300      	movs	r3, #0
100058be:	930b      	str	r3, [sp, #44]	; 0x2c
100058c0:	e45e      	b.n	10005180 <_vsnprintf+0x3ac>
100058c2:	9b09      	ldr	r3, [sp, #36]	; 0x24
100058c4:	cb04      	ldmia	r3!, {r2}
100058c6:	4692      	mov	sl, r2
100058c8:	9309      	str	r3, [sp, #36]	; 0x24
100058ca:	f7ff fb92 	bl	10004ff2 <_vsnprintf+0x21e>
100058ce:	002f      	movs	r7, r5
100058d0:	e5e0      	b.n	10005494 <_vsnprintf+0x6c0>
100058d2:	930b      	str	r3, [sp, #44]	; 0x2c
100058d4:	e60b      	b.n	100054ee <_vsnprintf+0x71a>
100058d6:	3b06      	subs	r3, #6
100058d8:	930c      	str	r3, [sp, #48]	; 0x30
100058da:	e52e      	b.n	1000533a <_vsnprintf+0x566>

100058dc <__wrap_sprintf>:
100058dc:	b40e      	push	{r1, r2, r3}
100058de:	2201      	movs	r2, #1
100058e0:	b510      	push	{r4, lr}
100058e2:	b085      	sub	sp, #20
100058e4:	ac07      	add	r4, sp, #28
100058e6:	cc08      	ldmia	r4!, {r3}
100058e8:	0001      	movs	r1, r0
100058ea:	9400      	str	r4, [sp, #0]
100058ec:	4252      	negs	r2, r2
100058ee:	4804      	ldr	r0, [pc, #16]	; (10005900 <__wrap_sprintf+0x24>)
100058f0:	9403      	str	r4, [sp, #12]
100058f2:	f7ff fa6f 	bl	10004dd4 <_vsnprintf>
100058f6:	b005      	add	sp, #20
100058f8:	bc10      	pop	{r4}
100058fa:	bc08      	pop	{r3}
100058fc:	b003      	add	sp, #12
100058fe:	4718      	bx	r3
10005900:	100042b1 	.word	0x100042b1

10005904 <vfctprintf>:
10005904:	b500      	push	{lr}
10005906:	b085      	sub	sp, #20
10005908:	9103      	str	r1, [sp, #12]
1000590a:	2101      	movs	r1, #1
1000590c:	9002      	str	r0, [sp, #8]
1000590e:	9300      	str	r3, [sp, #0]
10005910:	4803      	ldr	r0, [pc, #12]	; (10005920 <vfctprintf+0x1c>)
10005912:	0013      	movs	r3, r2
10005914:	424a      	negs	r2, r1
10005916:	a902      	add	r1, sp, #8
10005918:	f7ff fa5c 	bl	10004dd4 <_vsnprintf>
1000591c:	b005      	add	sp, #20
1000591e:	bd00      	pop	{pc}
10005920:	1000456d 	.word	0x1000456d

10005924 <weak_raw_vprintf>:
10005924:	b510      	push	{r4, lr}
10005926:	4a09      	ldr	r2, [pc, #36]	; (1000594c <weak_raw_vprintf+0x28>)
10005928:	0003      	movs	r3, r0
1000592a:	6814      	ldr	r4, [r2, #0]
1000592c:	b084      	sub	sp, #16
1000592e:	2c00      	cmp	r4, #0
10005930:	d008      	beq.n	10005944 <weak_raw_vprintf+0x20>
10005932:	2201      	movs	r2, #1
10005934:	9100      	str	r1, [sp, #0]
10005936:	4806      	ldr	r0, [pc, #24]	; (10005950 <weak_raw_vprintf+0x2c>)
10005938:	4252      	negs	r2, r2
1000593a:	a903      	add	r1, sp, #12
1000593c:	47a0      	blx	r4
1000593e:	2001      	movs	r0, #1
10005940:	b004      	add	sp, #16
10005942:	bd10      	pop	{r4, pc}
10005944:	f001 fd16 	bl	10007374 <__wrap_puts>
10005948:	2000      	movs	r0, #0
1000594a:	e7f9      	b.n	10005940 <weak_raw_vprintf+0x1c>
1000594c:	20000890 	.word	0x20000890
10005950:	1000455d 	.word	0x1000455d

10005954 <__aeabi_bits_init>:
10005954:	4801      	ldr	r0, [pc, #4]	; (1000595c <__aeabi_bits_init+0x8>)
10005956:	2104      	movs	r1, #4
10005958:	4b01      	ldr	r3, [pc, #4]	; (10005960 <__aeabi_bits_init+0xc>)
1000595a:	4718      	bx	r3
1000595c:	20000260 	.word	0x20000260
10005960:	10005985 	.word	0x10005985

10005964 <rom_func_lookup>:
10005964:	2314      	movs	r3, #20
10005966:	b510      	push	{r4, lr}
10005968:	0001      	movs	r1, r0
1000596a:	8818      	ldrh	r0, [r3, #0]
1000596c:	3304      	adds	r3, #4
1000596e:	881b      	ldrh	r3, [r3, #0]
10005970:	4798      	blx	r3
10005972:	bd10      	pop	{r4, pc}

10005974 <rom_data_lookup>:
10005974:	2316      	movs	r3, #22
10005976:	b510      	push	{r4, lr}
10005978:	0001      	movs	r1, r0
1000597a:	8818      	ldrh	r0, [r3, #0]
1000597c:	3302      	adds	r3, #2
1000597e:	881b      	ldrh	r3, [r3, #0]
10005980:	4798      	blx	r3
10005982:	bd10      	pop	{r4, pc}

10005984 <rom_funcs_lookup>:
10005984:	b5f0      	push	{r4, r5, r6, r7, lr}
10005986:	46c6      	mov	lr, r8
10005988:	b500      	push	{lr}
1000598a:	2900      	cmp	r1, #0
1000598c:	d016      	beq.n	100059bc <rom_funcs_lookup+0x38>
1000598e:	2314      	movs	r3, #20
10005990:	0004      	movs	r4, r0
10005992:	2501      	movs	r5, #1
10005994:	4698      	mov	r8, r3
10005996:	2718      	movs	r7, #24
10005998:	0089      	lsls	r1, r1, #2
1000599a:	1846      	adds	r6, r0, r1
1000599c:	4643      	mov	r3, r8
1000599e:	6821      	ldr	r1, [r4, #0]
100059a0:	8818      	ldrh	r0, [r3, #0]
100059a2:	883b      	ldrh	r3, [r7, #0]
100059a4:	4798      	blx	r3
100059a6:	c401      	stmia	r4!, {r0}
100059a8:	1e43      	subs	r3, r0, #1
100059aa:	4198      	sbcs	r0, r3
100059ac:	4240      	negs	r0, r0
100059ae:	4005      	ands	r5, r0
100059b0:	42a6      	cmp	r6, r4
100059b2:	d1f3      	bne.n	1000599c <rom_funcs_lookup+0x18>
100059b4:	0028      	movs	r0, r5
100059b6:	bc04      	pop	{r2}
100059b8:	4690      	mov	r8, r2
100059ba:	bdf0      	pop	{r4, r5, r6, r7, pc}
100059bc:	2501      	movs	r5, #1
100059be:	e7f9      	b.n	100059b4 <rom_funcs_lookup+0x30>

100059c0 <__wrap___aeabi_idiv>:
100059c0:	4a14      	ldr	r2, [pc, #80]	; (10005a14 <divmod_s32s32_savestate+0x20>)
100059c2:	6f93      	ldr	r3, [r2, #120]	; 0x78
100059c4:	089b      	lsrs	r3, r3, #2
100059c6:	d215      	bcs.n	100059f4 <divmod_s32s32_savestate>

100059c8 <divmod_s32s32_unsafe>:
100059c8:	6690      	str	r0, [r2, #104]	; 0x68
100059ca:	66d1      	str	r1, [r2, #108]	; 0x6c
100059cc:	2900      	cmp	r1, #0
100059ce:	d005      	beq.n	100059dc <divmod_s32s32_unsafe+0x14>
100059d0:	e7ff      	b.n	100059d2 <divmod_s32s32_unsafe+0xa>
100059d2:	e7ff      	b.n	100059d4 <divmod_s32s32_unsafe+0xc>
100059d4:	e7ff      	b.n	100059d6 <divmod_s32s32_unsafe+0xe>
100059d6:	6f51      	ldr	r1, [r2, #116]	; 0x74
100059d8:	6f10      	ldr	r0, [r2, #112]	; 0x70
100059da:	4770      	bx	lr
100059dc:	b504      	push	{r2, lr}
100059de:	2180      	movs	r1, #128	; 0x80
100059e0:	0609      	lsls	r1, r1, #24
100059e2:	17c2      	asrs	r2, r0, #31
100059e4:	4051      	eors	r1, r2
100059e6:	2800      	cmp	r0, #0
100059e8:	d000      	beq.n	100059ec <divmod_s32s32_unsafe+0x24>
100059ea:	43c8      	mvns	r0, r1
100059ec:	f001 fe60 	bl	100076b0 <____aeabi_idiv0_veneer>
100059f0:	2100      	movs	r1, #0
100059f2:	bd04      	pop	{r2, pc}

100059f4 <divmod_s32s32_savestate>:
100059f4:	6f93      	ldr	r3, [r2, #120]	; 0x78
100059f6:	085b      	lsrs	r3, r3, #1
100059f8:	d3fd      	bcc.n	100059f6 <divmod_s32s32_savestate+0x2>
100059fa:	b5f0      	push	{r4, r5, r6, r7, lr}
100059fc:	6e94      	ldr	r4, [r2, #104]	; 0x68
100059fe:	6ed5      	ldr	r5, [r2, #108]	; 0x6c
10005a00:	6f57      	ldr	r7, [r2, #116]	; 0x74
10005a02:	6f16      	ldr	r6, [r2, #112]	; 0x70
10005a04:	f7ff ffe0 	bl	100059c8 <divmod_s32s32_unsafe>
10005a08:	6694      	str	r4, [r2, #104]	; 0x68
10005a0a:	66d5      	str	r5, [r2, #108]	; 0x6c
10005a0c:	6757      	str	r7, [r2, #116]	; 0x74
10005a0e:	6716      	str	r6, [r2, #112]	; 0x70
10005a10:	bdf0      	pop	{r4, r5, r6, r7, pc}
10005a12:	0000      	.short	0x0000
10005a14:	d0000000 	.word	0xd0000000

10005a18 <__wrap___aeabi_uidiv>:
10005a18:	4a13      	ldr	r2, [pc, #76]	; (10005a68 <divmod_u32u32_savestate+0x20>)
10005a1a:	6f93      	ldr	r3, [r2, #120]	; 0x78
10005a1c:	089b      	lsrs	r3, r3, #2
10005a1e:	d213      	bcs.n	10005a48 <divmod_u32u32_savestate>

10005a20 <divmod_u32u32_unsafe>:
10005a20:	6610      	str	r0, [r2, #96]	; 0x60
10005a22:	6651      	str	r1, [r2, #100]	; 0x64
10005a24:	2900      	cmp	r1, #0
10005a26:	d005      	beq.n	10005a34 <divmod_u32u32_unsafe+0x14>
10005a28:	e7ff      	b.n	10005a2a <divmod_u32u32_unsafe+0xa>
10005a2a:	e7ff      	b.n	10005a2c <divmod_u32u32_unsafe+0xc>
10005a2c:	e7ff      	b.n	10005a2e <divmod_u32u32_unsafe+0xe>
10005a2e:	6f51      	ldr	r1, [r2, #116]	; 0x74
10005a30:	6f10      	ldr	r0, [r2, #112]	; 0x70
10005a32:	4770      	bx	lr
10005a34:	b504      	push	{r2, lr}
10005a36:	2800      	cmp	r0, #0
10005a38:	d001      	beq.n	10005a3e <divmod_u32u32_unsafe+0x1e>
10005a3a:	2000      	movs	r0, #0
10005a3c:	43c0      	mvns	r0, r0
10005a3e:	f001 fe37 	bl	100076b0 <____aeabi_idiv0_veneer>
10005a42:	2100      	movs	r1, #0
10005a44:	bd04      	pop	{r2, pc}
10005a46:	46c0      	nop			; (mov r8, r8)

10005a48 <divmod_u32u32_savestate>:
10005a48:	6f93      	ldr	r3, [r2, #120]	; 0x78
10005a4a:	085b      	lsrs	r3, r3, #1
10005a4c:	d3fd      	bcc.n	10005a4a <divmod_u32u32_savestate+0x2>
10005a4e:	b5f0      	push	{r4, r5, r6, r7, lr}
10005a50:	6e94      	ldr	r4, [r2, #104]	; 0x68
10005a52:	6ed5      	ldr	r5, [r2, #108]	; 0x6c
10005a54:	6f57      	ldr	r7, [r2, #116]	; 0x74
10005a56:	6f16      	ldr	r6, [r2, #112]	; 0x70
10005a58:	f7ff ffe2 	bl	10005a20 <divmod_u32u32_unsafe>
10005a5c:	6694      	str	r4, [r2, #104]	; 0x68
10005a5e:	66d5      	str	r5, [r2, #108]	; 0x6c
10005a60:	6757      	str	r7, [r2, #116]	; 0x74
10005a62:	6716      	str	r6, [r2, #112]	; 0x70
10005a64:	bdf0      	pop	{r4, r5, r6, r7, pc}
10005a66:	0000      	.short	0x0000
10005a68:	d0000000 	.word	0xd0000000

10005a6c <__wrap___aeabi_ldivmod>:
10005a6c:	4694      	mov	ip, r2
10005a6e:	4a4e      	ldr	r2, [pc, #312]	; (10005ba8 <udiv0+0x1a>)
10005a70:	6f92      	ldr	r2, [r2, #120]	; 0x78
10005a72:	0892      	lsrs	r2, r2, #2
10005a74:	4662      	mov	r2, ip
10005a76:	d201      	bcs.n	10005a7c <divmod_s64s64_savestate>
10005a78:	e030      	b.n	10005adc <divmod_s64s64_unsafe>
10005a7a:	46c0      	nop			; (mov r8, r8)

10005a7c <divmod_s64s64_savestate>:
10005a7c:	b5f0      	push	{r4, r5, r6, r7, lr}
10005a7e:	4e4a      	ldr	r6, [pc, #296]	; (10005ba8 <udiv0+0x1a>)
10005a80:	6fb5      	ldr	r5, [r6, #120]	; 0x78
10005a82:	086d      	lsrs	r5, r5, #1
10005a84:	d3fc      	bcc.n	10005a80 <divmod_s64s64_savestate+0x4>
10005a86:	6e34      	ldr	r4, [r6, #96]	; 0x60
10005a88:	6e75      	ldr	r5, [r6, #100]	; 0x64
10005a8a:	6f77      	ldr	r7, [r6, #116]	; 0x74
10005a8c:	6f36      	ldr	r6, [r6, #112]	; 0x70
10005a8e:	f000 f825 	bl	10005adc <divmod_s64s64_unsafe>
10005a92:	4694      	mov	ip, r2
10005a94:	4a44      	ldr	r2, [pc, #272]	; (10005ba8 <udiv0+0x1a>)
10005a96:	6614      	str	r4, [r2, #96]	; 0x60
10005a98:	6655      	str	r5, [r2, #100]	; 0x64
10005a9a:	6757      	str	r7, [r2, #116]	; 0x74
10005a9c:	6716      	str	r6, [r2, #112]	; 0x70
10005a9e:	4662      	mov	r2, ip
10005aa0:	bdf0      	pop	{r4, r5, r6, r7, pc}
10005aa2:	46c0      	nop			; (mov r8, r8)

10005aa4 <__wrap___aeabi_uldivmod>:
10005aa4:	4694      	mov	ip, r2
10005aa6:	4a40      	ldr	r2, [pc, #256]	; (10005ba8 <udiv0+0x1a>)
10005aa8:	6f92      	ldr	r2, [r2, #120]	; 0x78
10005aaa:	0892      	lsrs	r2, r2, #2
10005aac:	4662      	mov	r2, ip
10005aae:	d201      	bcs.n	10005ab4 <divmod_u64u64_savestate>
10005ab0:	e058      	b.n	10005b64 <divmod_u64u64_unsafe>
10005ab2:	46c0      	nop			; (mov r8, r8)

10005ab4 <divmod_u64u64_savestate>:
10005ab4:	b5f0      	push	{r4, r5, r6, r7, lr}
10005ab6:	4e3c      	ldr	r6, [pc, #240]	; (10005ba8 <udiv0+0x1a>)
10005ab8:	6fb5      	ldr	r5, [r6, #120]	; 0x78
10005aba:	086d      	lsrs	r5, r5, #1
10005abc:	d3fc      	bcc.n	10005ab8 <divmod_u64u64_savestate+0x4>
10005abe:	6e34      	ldr	r4, [r6, #96]	; 0x60
10005ac0:	6e75      	ldr	r5, [r6, #100]	; 0x64
10005ac2:	6f77      	ldr	r7, [r6, #116]	; 0x74
10005ac4:	6f36      	ldr	r6, [r6, #112]	; 0x70
10005ac6:	f000 f84d 	bl	10005b64 <divmod_u64u64_unsafe>
10005aca:	4694      	mov	ip, r2
10005acc:	4a36      	ldr	r2, [pc, #216]	; (10005ba8 <udiv0+0x1a>)
10005ace:	6614      	str	r4, [r2, #96]	; 0x60
10005ad0:	6655      	str	r5, [r2, #100]	; 0x64
10005ad2:	6757      	str	r7, [r2, #116]	; 0x74
10005ad4:	6716      	str	r6, [r2, #112]	; 0x70
10005ad6:	4662      	mov	r2, ip
10005ad8:	bdf0      	pop	{r4, r5, r6, r7, pc}
10005ada:	46c0      	nop			; (mov r8, r8)

10005adc <divmod_s64s64_unsafe>:
10005adc:	2b00      	cmp	r3, #0
10005ade:	db24      	blt.n	10005b2a <l41_1+0x26>
10005ae0:	d011      	beq.n	10005b06 <l41_1+0x2>
10005ae2:	2900      	cmp	r1, #0
10005ae4:	da3e      	bge.n	10005b64 <divmod_u64u64_unsafe>
10005ae6:	b500      	push	{lr}
10005ae8:	43c9      	mvns	r1, r1
10005aea:	4240      	negs	r0, r0
10005aec:	d100      	bne.n	10005af0 <l39_1>
10005aee:	3101      	adds	r1, #1

10005af0 <l39_1>:
10005af0:	f000 f838 	bl	10005b64 <divmod_u64u64_unsafe>
10005af4:	43c9      	mvns	r1, r1
10005af6:	4240      	negs	r0, r0
10005af8:	d100      	bne.n	10005afc <l40_1>
10005afa:	3101      	adds	r1, #1

10005afc <l40_1>:
10005afc:	43db      	mvns	r3, r3
10005afe:	4252      	negs	r2, r2
10005b00:	d100      	bne.n	10005b04 <l41_1>
10005b02:	3301      	adds	r3, #1

10005b04 <l41_1>:
10005b04:	bd00      	pop	{pc}
10005b06:	2a00      	cmp	r2, #0
10005b08:	d1eb      	bne.n	10005ae2 <divmod_s64s64_unsafe+0x6>
10005b0a:	2800      	cmp	r0, #0
10005b0c:	d101      	bne.n	10005b12 <l41_1+0xe>
10005b0e:	2900      	cmp	r1, #0
10005b10:	d005      	beq.n	10005b1e <l41_1+0x1a>
10005b12:	2000      	movs	r0, #0
10005b14:	0fc9      	lsrs	r1, r1, #31
10005b16:	07c9      	lsls	r1, r1, #31
10005b18:	d101      	bne.n	10005b1e <l41_1+0x1a>
10005b1a:	43c0      	mvns	r0, r0
10005b1c:	0841      	lsrs	r1, r0, #1
10005b1e:	b500      	push	{lr}
10005b20:	f001 fdbe 	bl	100076a0 <____aeabi_ldiv0_veneer>
10005b24:	2200      	movs	r2, #0
10005b26:	2300      	movs	r3, #0
10005b28:	bd00      	pop	{pc}
10005b2a:	b500      	push	{lr}
10005b2c:	2900      	cmp	r1, #0
10005b2e:	db0a      	blt.n	10005b46 <l43_1+0x2>
10005b30:	43db      	mvns	r3, r3
10005b32:	4252      	negs	r2, r2
10005b34:	d100      	bne.n	10005b38 <l42_1>
10005b36:	3301      	adds	r3, #1

10005b38 <l42_1>:
10005b38:	f000 f814 	bl	10005b64 <divmod_u64u64_unsafe>
10005b3c:	43c9      	mvns	r1, r1
10005b3e:	4240      	negs	r0, r0
10005b40:	d100      	bne.n	10005b44 <l43_1>
10005b42:	3101      	adds	r1, #1

10005b44 <l43_1>:
10005b44:	bd00      	pop	{pc}
10005b46:	43c9      	mvns	r1, r1
10005b48:	4240      	negs	r0, r0
10005b4a:	d100      	bne.n	10005b4e <l44_1>
10005b4c:	3101      	adds	r1, #1

10005b4e <l44_1>:
10005b4e:	43db      	mvns	r3, r3
10005b50:	4252      	negs	r2, r2
10005b52:	d100      	bne.n	10005b56 <l45_1>
10005b54:	3301      	adds	r3, #1

10005b56 <l45_1>:
10005b56:	f000 f805 	bl	10005b64 <divmod_u64u64_unsafe>
10005b5a:	43db      	mvns	r3, r3
10005b5c:	4252      	negs	r2, r2
10005b5e:	d100      	bne.n	10005b62 <l46_1>
10005b60:	3301      	adds	r3, #1

10005b62 <l46_1>:
10005b62:	bd00      	pop	{pc}

10005b64 <divmod_u64u64_unsafe>:
10005b64:	2900      	cmp	r1, #0
10005b66:	d123      	bne.n	10005bb0 <y64>
10005b68:	2b00      	cmp	r3, #0
10005b6a:	d118      	bne.n	10005b9e <udiv0+0x10>
10005b6c:	2a00      	cmp	r2, #0
10005b6e:	d00c      	beq.n	10005b8a <divmod_u64u64_unsafe+0x26>
10005b70:	46bc      	mov	ip, r7
10005b72:	4f0d      	ldr	r7, [pc, #52]	; (10005ba8 <udiv0+0x1a>)
10005b74:	6638      	str	r0, [r7, #96]	; 0x60
10005b76:	667a      	str	r2, [r7, #100]	; 0x64
10005b78:	2100      	movs	r1, #0
10005b7a:	2300      	movs	r3, #0
10005b7c:	e7ff      	b.n	10005b7e <divmod_u64u64_unsafe+0x1a>
10005b7e:	e7ff      	b.n	10005b80 <divmod_u64u64_unsafe+0x1c>
10005b80:	e7ff      	b.n	10005b82 <divmod_u64u64_unsafe+0x1e>
10005b82:	6f7a      	ldr	r2, [r7, #116]	; 0x74
10005b84:	6f38      	ldr	r0, [r7, #112]	; 0x70
10005b86:	4667      	mov	r7, ip
10005b88:	4770      	bx	lr
10005b8a:	2800      	cmp	r0, #0
10005b8c:	d001      	beq.n	10005b92 <udiv0+0x4>

10005b8e <udiv0>:
10005b8e:	4807      	ldr	r0, [pc, #28]	; (10005bac <udiv0+0x1e>)
10005b90:	0001      	movs	r1, r0
10005b92:	b500      	push	{lr}
10005b94:	f001 fd84 	bl	100076a0 <____aeabi_ldiv0_veneer>
10005b98:	2200      	movs	r2, #0
10005b9a:	2300      	movs	r3, #0
10005b9c:	bd00      	pop	{pc}
10005b9e:	0002      	movs	r2, r0
10005ba0:	000b      	movs	r3, r1
10005ba2:	2000      	movs	r0, #0
10005ba4:	2100      	movs	r1, #0
10005ba6:	4770      	bx	lr
10005ba8:	d0000000 	.word	0xd0000000
10005bac:	ffffffff 	.word	0xffffffff

10005bb0 <y64>:
10005bb0:	2b00      	cmp	r3, #0
10005bb2:	d000      	beq.n	10005bb6 <y64+0x6>
10005bb4:	e0bd      	b.n	10005d32 <y64_x48>
10005bb6:	0c13      	lsrs	r3, r2, #16
10005bb8:	d126      	bne.n	10005c08 <y64_x32>
10005bba:	2a00      	cmp	r2, #0
10005bbc:	d0e7      	beq.n	10005b8e <udiv0>
10005bbe:	b480      	push	{r7}
10005bc0:	4f10      	ldr	r7, [pc, #64]	; (10005c04 <y64+0x54>)
10005bc2:	6639      	str	r1, [r7, #96]	; 0x60
10005bc4:	667a      	str	r2, [r7, #100]	; 0x64
10005bc6:	e7ff      	b.n	10005bc8 <y64+0x18>
10005bc8:	e7ff      	b.n	10005bca <y64+0x1a>
10005bca:	b430      	push	{r4, r5}
10005bcc:	0c04      	lsrs	r4, r0, #16
10005bce:	6f7b      	ldr	r3, [r7, #116]	; 0x74
10005bd0:	6f39      	ldr	r1, [r7, #112]	; 0x70
10005bd2:	041b      	lsls	r3, r3, #16
10005bd4:	4323      	orrs	r3, r4
10005bd6:	663b      	str	r3, [r7, #96]	; 0x60
10005bd8:	e7ff      	b.n	10005bda <y64+0x2a>
10005bda:	e7ff      	b.n	10005bdc <y64+0x2c>
10005bdc:	e7ff      	b.n	10005bde <y64+0x2e>
10005bde:	46c0      	nop			; (mov r8, r8)
10005be0:	b284      	uxth	r4, r0
10005be2:	6f7b      	ldr	r3, [r7, #116]	; 0x74
10005be4:	6f3d      	ldr	r5, [r7, #112]	; 0x70
10005be6:	041b      	lsls	r3, r3, #16
10005be8:	4323      	orrs	r3, r4
10005bea:	663b      	str	r3, [r7, #96]	; 0x60
10005bec:	e7ff      	b.n	10005bee <y64+0x3e>
10005bee:	e7ff      	b.n	10005bf0 <y64+0x40>
10005bf0:	46c0      	nop			; (mov r8, r8)
10005bf2:	2300      	movs	r3, #0
10005bf4:	042c      	lsls	r4, r5, #16
10005bf6:	0c2d      	lsrs	r5, r5, #16
10005bf8:	6f7a      	ldr	r2, [r7, #116]	; 0x74
10005bfa:	6f38      	ldr	r0, [r7, #112]	; 0x70
10005bfc:	1900      	adds	r0, r0, r4
10005bfe:	4169      	adcs	r1, r5
10005c00:	bcb0      	pop	{r4, r5, r7}
10005c02:	4770      	bx	lr
10005c04:	d0000000 	.word	0xd0000000

10005c08 <y64_x32>:
10005c08:	b5f0      	push	{r4, r5, r6, r7, lr}
10005c0a:	4694      	mov	ip, r2
10005c0c:	2500      	movs	r5, #0
10005c0e:	0e14      	lsrs	r4, r2, #24
10005c10:	d101      	bne.n	10005c16 <y64_x32+0xe>
10005c12:	0212      	lsls	r2, r2, #8
10005c14:	3508      	adds	r5, #8
10005c16:	0f14      	lsrs	r4, r2, #28
10005c18:	d101      	bne.n	10005c1e <y64_x32+0x16>
10005c1a:	0112      	lsls	r2, r2, #4
10005c1c:	3504      	adds	r5, #4
10005c1e:	0f94      	lsrs	r4, r2, #30
10005c20:	d101      	bne.n	10005c26 <y64_x32+0x1e>
10005c22:	0092      	lsls	r2, r2, #2
10005c24:	3502      	adds	r5, #2
10005c26:	0fd4      	lsrs	r4, r2, #31
10005c28:	d101      	bne.n	10005c2e <y64_x32+0x26>
10005c2a:	0052      	lsls	r2, r2, #1
10005c2c:	3501      	adds	r5, #1
10005c2e:	0bd4      	lsrs	r4, r2, #15
10005c30:	3401      	adds	r4, #1
10005c32:	4f25      	ldr	r7, [pc, #148]	; (10005cc8 <y64_x32+0xc0>)
10005c34:	667c      	str	r4, [r7, #100]	; 0x64
10005c36:	4c25      	ldr	r4, [pc, #148]	; (10005ccc <y64_x32+0xc4>)
10005c38:	663c      	str	r4, [r7, #96]	; 0x60
10005c3a:	0c0e      	lsrs	r6, r1, #16
10005c3c:	b293      	uxth	r3, r2
10005c3e:	e7ff      	b.n	10005c40 <y64_x32+0x38>
10005c40:	e7ff      	b.n	10005c42 <y64_x32+0x3a>
10005c42:	e7ff      	b.n	10005c44 <y64_x32+0x3c>
10005c44:	6f3c      	ldr	r4, [r7, #112]	; 0x70
10005c46:	4366      	muls	r6, r4
10005c48:	0c36      	lsrs	r6, r6, #16
10005c4a:	0377      	lsls	r7, r6, #13
10005c4c:	46be      	mov	lr, r7
10005c4e:	4373      	muls	r3, r6
10005c50:	0bdf      	lsrs	r7, r3, #15
10005c52:	045b      	lsls	r3, r3, #17
10005c54:	1ac0      	subs	r0, r0, r3
10005c56:	41b9      	sbcs	r1, r7
10005c58:	0c13      	lsrs	r3, r2, #16
10005c5a:	4373      	muls	r3, r6
10005c5c:	18db      	adds	r3, r3, r3
10005c5e:	1ac9      	subs	r1, r1, r3
10005c60:	08ce      	lsrs	r6, r1, #3
10005c62:	4366      	muls	r6, r4
10005c64:	0c36      	lsrs	r6, r6, #16
10005c66:	44b6      	add	lr, r6
10005c68:	b293      	uxth	r3, r2
10005c6a:	4373      	muls	r3, r6
10005c6c:	0f1f      	lsrs	r7, r3, #28
10005c6e:	011b      	lsls	r3, r3, #4
10005c70:	1ac0      	subs	r0, r0, r3
10005c72:	41b9      	sbcs	r1, r7
10005c74:	0c13      	lsrs	r3, r2, #16
10005c76:	4373      	muls	r3, r6
10005c78:	0b1f      	lsrs	r7, r3, #12
10005c7a:	051b      	lsls	r3, r3, #20
10005c7c:	1ac0      	subs	r0, r0, r3
10005c7e:	41b9      	sbcs	r1, r7
10005c80:	0d86      	lsrs	r6, r0, #22
10005c82:	028f      	lsls	r7, r1, #10
10005c84:	433e      	orrs	r6, r7
10005c86:	4366      	muls	r6, r4
10005c88:	0c36      	lsrs	r6, r6, #16
10005c8a:	2d09      	cmp	r5, #9
10005c8c:	db24      	blt.n	10005cd8 <last0>
10005c8e:	0a52      	lsrs	r2, r2, #9
10005c90:	4372      	muls	r2, r6
10005c92:	1a80      	subs	r0, r0, r2
10005c94:	0377      	lsls	r7, r6, #13
10005c96:	0a46      	lsrs	r6, r0, #9
10005c98:	4366      	muls	r6, r4
10005c9a:	0c36      	lsrs	r6, r6, #16
10005c9c:	2316      	movs	r3, #22
10005c9e:	1b5b      	subs	r3, r3, r5
10005ca0:	40de      	lsrs	r6, r3
10005ca2:	40df      	lsrs	r7, r3
10005ca4:	19bf      	adds	r7, r7, r6
10005ca6:	4664      	mov	r4, ip
10005ca8:	4366      	muls	r6, r4
10005caa:	1b82      	subs	r2, r0, r6
10005cac:	4670      	mov	r0, lr
10005cae:	3504      	adds	r5, #4
10005cb0:	3306      	adds	r3, #6
10005cb2:	0001      	movs	r1, r0
10005cb4:	40d9      	lsrs	r1, r3
10005cb6:	40a8      	lsls	r0, r5
10005cb8:	19c0      	adds	r0, r0, r7
10005cba:	d300      	bcc.n	10005cbe <y64_x32+0xb6>
10005cbc:	3101      	adds	r1, #1
10005cbe:	42a2      	cmp	r2, r4
10005cc0:	d206      	bcs.n	10005cd0 <y64_x32+0xc8>
10005cc2:	2300      	movs	r3, #0
10005cc4:	bdf0      	pop	{r4, r5, r6, r7, pc}
10005cc6:	0000      	.short	0x0000
10005cc8:	d0000000 	.word	0xd0000000
10005ccc:	ffffffff 	.word	0xffffffff
10005cd0:	1b12      	subs	r2, r2, r4
10005cd2:	3001      	adds	r0, #1
10005cd4:	d3f3      	bcc.n	10005cbe <y64_x32+0xb6>
10005cd6:	e7f1      	b.n	10005cbc <y64_x32+0xb4>

10005cd8 <last0>:
10005cd8:	2709      	movs	r7, #9
10005cda:	1b7f      	subs	r7, r7, r5
10005cdc:	40fe      	lsrs	r6, r7
10005cde:	4664      	mov	r4, ip
10005ce0:	b2a2      	uxth	r2, r4
10005ce2:	4372      	muls	r2, r6
10005ce4:	1a80      	subs	r0, r0, r2
10005ce6:	d200      	bcs.n	10005cea <last0+0x12>
10005ce8:	3901      	subs	r1, #1
10005cea:	0c22      	lsrs	r2, r4, #16
10005cec:	4372      	muls	r2, r6
10005cee:	0c13      	lsrs	r3, r2, #16
10005cf0:	0412      	lsls	r2, r2, #16
10005cf2:	1a82      	subs	r2, r0, r2
10005cf4:	4199      	sbcs	r1, r3
10005cf6:	000b      	movs	r3, r1
10005cf8:	4670      	mov	r0, lr
10005cfa:	3504      	adds	r5, #4
10005cfc:	3713      	adds	r7, #19
10005cfe:	0001      	movs	r1, r0
10005d00:	40f9      	lsrs	r1, r7
10005d02:	40a8      	lsls	r0, r5
10005d04:	1980      	adds	r0, r0, r6
10005d06:	d300      	bcc.n	10005d0a <last0+0x32>
10005d08:	3101      	adds	r1, #1
10005d0a:	2b00      	cmp	r3, #0
10005d0c:	d102      	bne.n	10005d14 <last0+0x3c>
10005d0e:	42a2      	cmp	r2, r4
10005d10:	d20a      	bcs.n	10005d28 <last0+0x50>
10005d12:	bdf0      	pop	{r4, r5, r6, r7, pc}
10005d14:	3001      	adds	r0, #1
10005d16:	d300      	bcc.n	10005d1a <last0+0x42>
10005d18:	3101      	adds	r1, #1
10005d1a:	1b12      	subs	r2, r2, r4
10005d1c:	d2fa      	bcs.n	10005d14 <last0+0x3c>
10005d1e:	3b01      	subs	r3, #1
10005d20:	d1f8      	bne.n	10005d14 <last0+0x3c>
10005d22:	42a2      	cmp	r2, r4
10005d24:	d200      	bcs.n	10005d28 <last0+0x50>
10005d26:	bdf0      	pop	{r4, r5, r6, r7, pc}
10005d28:	3001      	adds	r0, #1
10005d2a:	d300      	bcc.n	10005d2e <last0+0x56>
10005d2c:	3101      	adds	r1, #1
10005d2e:	1b12      	subs	r2, r2, r4
10005d30:	e7f7      	b.n	10005d22 <last0+0x4a>

10005d32 <y64_x48>:
10005d32:	b5f0      	push	{r4, r5, r6, r7, lr}
10005d34:	0c1c      	lsrs	r4, r3, #16
10005d36:	d000      	beq.n	10005d3a <y64_x48+0x8>
10005d38:	e080      	b.n	10005e3c <y64_x64>
10005d3a:	b40c      	push	{r2, r3}
10005d3c:	2500      	movs	r5, #0
10005d3e:	0a1c      	lsrs	r4, r3, #8
10005d40:	d104      	bne.n	10005d4c <y64_x48+0x1a>
10005d42:	021b      	lsls	r3, r3, #8
10005d44:	0e16      	lsrs	r6, r2, #24
10005d46:	4333      	orrs	r3, r6
10005d48:	0212      	lsls	r2, r2, #8
10005d4a:	3508      	adds	r5, #8
10005d4c:	0b1c      	lsrs	r4, r3, #12
10005d4e:	d104      	bne.n	10005d5a <y64_x48+0x28>
10005d50:	011b      	lsls	r3, r3, #4
10005d52:	0f16      	lsrs	r6, r2, #28
10005d54:	4333      	orrs	r3, r6
10005d56:	0112      	lsls	r2, r2, #4
10005d58:	3504      	adds	r5, #4
10005d5a:	0b9c      	lsrs	r4, r3, #14
10005d5c:	d104      	bne.n	10005d68 <y64_x48+0x36>
10005d5e:	009b      	lsls	r3, r3, #2
10005d60:	0f96      	lsrs	r6, r2, #30
10005d62:	4333      	orrs	r3, r6
10005d64:	0092      	lsls	r2, r2, #2
10005d66:	3502      	adds	r5, #2
10005d68:	0bdc      	lsrs	r4, r3, #15
10005d6a:	d102      	bne.n	10005d72 <y64_x48+0x40>
10005d6c:	1892      	adds	r2, r2, r2
10005d6e:	415b      	adcs	r3, r3
10005d70:	3501      	adds	r5, #1
10005d72:	001c      	movs	r4, r3
10005d74:	1897      	adds	r7, r2, r2
10005d76:	4164      	adcs	r4, r4
10005d78:	3401      	adds	r4, #1
10005d7a:	4f46      	ldr	r7, [pc, #280]	; (10005e94 <y64_x64+0x58>)
10005d7c:	667c      	str	r4, [r7, #100]	; 0x64
10005d7e:	4c46      	ldr	r4, [pc, #280]	; (10005e98 <y64_x64+0x5c>)
10005d80:	663c      	str	r4, [r7, #96]	; 0x60
10005d82:	0c0e      	lsrs	r6, r1, #16
10005d84:	e7ff      	b.n	10005d86 <y64_x48+0x54>
10005d86:	e7ff      	b.n	10005d88 <y64_x48+0x56>
10005d88:	e7ff      	b.n	10005d8a <y64_x48+0x58>
10005d8a:	46c0      	nop			; (mov r8, r8)
10005d8c:	6f3c      	ldr	r4, [r7, #112]	; 0x70
10005d8e:	4366      	muls	r6, r4
10005d90:	0c36      	lsrs	r6, r6, #16
10005d92:	0377      	lsls	r7, r6, #13
10005d94:	46be      	mov	lr, r7
10005d96:	b297      	uxth	r7, r2
10005d98:	4377      	muls	r7, r6
10005d9a:	1bc0      	subs	r0, r0, r7
10005d9c:	d200      	bcs.n	10005da0 <y64_x48+0x6e>
10005d9e:	3901      	subs	r1, #1
10005da0:	1bc0      	subs	r0, r0, r7
10005da2:	d200      	bcs.n	10005da6 <y64_x48+0x74>
10005da4:	3901      	subs	r1, #1
10005da6:	b29f      	uxth	r7, r3
10005da8:	4377      	muls	r7, r6
10005daa:	1bc9      	subs	r1, r1, r7
10005dac:	1bc9      	subs	r1, r1, r7
10005dae:	0c17      	lsrs	r7, r2, #16
10005db0:	4377      	muls	r7, r6
10005db2:	047e      	lsls	r6, r7, #17
10005db4:	0bff      	lsrs	r7, r7, #15
10005db6:	1b80      	subs	r0, r0, r6
10005db8:	41b9      	sbcs	r1, r7
10005dba:	08ce      	lsrs	r6, r1, #3
10005dbc:	4366      	muls	r6, r4
10005dbe:	0c36      	lsrs	r6, r6, #16
10005dc0:	2d0c      	cmp	r5, #12
10005dc2:	db33      	blt.n	10005e2c <last1>
10005dc4:	44b6      	add	lr, r6
10005dc6:	0b12      	lsrs	r2, r2, #12
10005dc8:	051f      	lsls	r7, r3, #20
10005dca:	433a      	orrs	r2, r7
10005dcc:	0b1b      	lsrs	r3, r3, #12
10005dce:	b297      	uxth	r7, r2
10005dd0:	4377      	muls	r7, r6
10005dd2:	1bc0      	subs	r0, r0, r7
10005dd4:	d200      	bcs.n	10005dd8 <y64_x48+0xa6>
10005dd6:	3901      	subs	r1, #1
10005dd8:	b29f      	uxth	r7, r3
10005dda:	4377      	muls	r7, r6
10005ddc:	1bc9      	subs	r1, r1, r7
10005dde:	0c17      	lsrs	r7, r2, #16
10005de0:	4377      	muls	r7, r6
10005de2:	043e      	lsls	r6, r7, #16
10005de4:	0c3f      	lsrs	r7, r7, #16
10005de6:	1b80      	subs	r0, r0, r6
10005de8:	41b9      	sbcs	r1, r7
10005dea:	0d86      	lsrs	r6, r0, #22
10005dec:	028f      	lsls	r7, r1, #10
10005dee:	433e      	orrs	r6, r7
10005df0:	4366      	muls	r6, r4
10005df2:	2729      	movs	r7, #41	; 0x29
10005df4:	1b7f      	subs	r7, r7, r5
10005df6:	40fe      	lsrs	r6, r7
10005df8:	3d0c      	subs	r5, #12
10005dfa:	4677      	mov	r7, lr
10005dfc:	40af      	lsls	r7, r5
10005dfe:	19bf      	adds	r7, r7, r6
10005e00:	bc30      	pop	{r4, r5}
10005e02:	b2a2      	uxth	r2, r4
10005e04:	b2ab      	uxth	r3, r5
10005e06:	4372      	muls	r2, r6
10005e08:	4373      	muls	r3, r6
10005e0a:	1a80      	subs	r0, r0, r2
10005e0c:	4199      	sbcs	r1, r3
10005e0e:	0c22      	lsrs	r2, r4, #16
10005e10:	4372      	muls	r2, r6
10005e12:	0c13      	lsrs	r3, r2, #16
10005e14:	0412      	lsls	r2, r2, #16
10005e16:	1a80      	subs	r0, r0, r2
10005e18:	4199      	sbcs	r1, r3
10005e1a:	0002      	movs	r2, r0
10005e1c:	000b      	movs	r3, r1
10005e1e:	3701      	adds	r7, #1
10005e20:	1b00      	subs	r0, r0, r4
10005e22:	41a9      	sbcs	r1, r5
10005e24:	d2f9      	bcs.n	10005e1a <y64_x48+0xe8>
10005e26:	1e78      	subs	r0, r7, #1
10005e28:	2100      	movs	r1, #0
10005e2a:	bdf0      	pop	{r4, r5, r6, r7, pc}

10005e2c <last1>:
10005e2c:	270c      	movs	r7, #12
10005e2e:	1b7f      	subs	r7, r7, r5
10005e30:	40fe      	lsrs	r6, r7
10005e32:	4677      	mov	r7, lr
10005e34:	0b7f      	lsrs	r7, r7, #13
10005e36:	40af      	lsls	r7, r5
10005e38:	19ff      	adds	r7, r7, r7
10005e3a:	e7e0      	b.n	10005dfe <y64_x48+0xcc>

10005e3c <y64_x64>:
10005e3c:	2400      	movs	r4, #0
10005e3e:	1c5d      	adds	r5, r3, #1
10005e40:	d007      	beq.n	10005e52 <y64_x64+0x16>
10005e42:	4f14      	ldr	r7, [pc, #80]	; (10005e94 <y64_x64+0x58>)
10005e44:	667d      	str	r5, [r7, #100]	; 0x64
10005e46:	6639      	str	r1, [r7, #96]	; 0x60
10005e48:	e7ff      	b.n	10005e4a <y64_x64+0xe>
10005e4a:	e7ff      	b.n	10005e4c <y64_x64+0x10>
10005e4c:	e7ff      	b.n	10005e4e <y64_x64+0x12>
10005e4e:	e7ff      	b.n	10005e50 <y64_x64+0x14>
10005e50:	6f3c      	ldr	r4, [r7, #112]	; 0x70
10005e52:	b295      	uxth	r5, r2
10005e54:	b29e      	uxth	r6, r3
10005e56:	4365      	muls	r5, r4
10005e58:	4366      	muls	r6, r4
10005e5a:	1b40      	subs	r0, r0, r5
10005e5c:	41b1      	sbcs	r1, r6
10005e5e:	0c15      	lsrs	r5, r2, #16
10005e60:	0c1e      	lsrs	r6, r3, #16
10005e62:	4365      	muls	r5, r4
10005e64:	4366      	muls	r6, r4
10005e66:	0436      	lsls	r6, r6, #16
10005e68:	0c2f      	lsrs	r7, r5, #16
10005e6a:	433e      	orrs	r6, r7
10005e6c:	042d      	lsls	r5, r5, #16
10005e6e:	1b40      	subs	r0, r0, r5
10005e70:	41b1      	sbcs	r1, r6
10005e72:	4299      	cmp	r1, r3
10005e74:	d204      	bcs.n	10005e80 <y64_x64+0x44>
10005e76:	0002      	movs	r2, r0
10005e78:	000b      	movs	r3, r1
10005e7a:	0020      	movs	r0, r4
10005e7c:	2100      	movs	r1, #0
10005e7e:	bdf0      	pop	{r4, r5, r6, r7, pc}
10005e80:	d101      	bne.n	10005e86 <y64_x64+0x4a>
10005e82:	4290      	cmp	r0, r2
10005e84:	d3f7      	bcc.n	10005e76 <y64_x64+0x3a>
10005e86:	1a80      	subs	r0, r0, r2
10005e88:	4199      	sbcs	r1, r3
10005e8a:	3401      	adds	r4, #1
10005e8c:	4299      	cmp	r1, r3
10005e8e:	d3f2      	bcc.n	10005e76 <y64_x64+0x3a>
10005e90:	e7f6      	b.n	10005e80 <y64_x64+0x44>
10005e92:	0000      	.short	0x0000
10005e94:	d0000000 	.word	0xd0000000
10005e98:	ffffffff 	.word	0xffffffff

10005e9c <push_r8_r11>:
10005e9c:	4644      	mov	r4, r8
10005e9e:	464d      	mov	r5, r9
10005ea0:	4656      	mov	r6, sl
10005ea2:	465f      	mov	r7, fp
10005ea4:	b4f0      	push	{r4, r5, r6, r7}
10005ea6:	4770      	bx	lr

10005ea8 <pop_r8_r11>:
10005ea8:	bcf0      	pop	{r4, r5, r6, r7}
10005eaa:	46a0      	mov	r8, r4
10005eac:	46a9      	mov	r9, r5
10005eae:	46b2      	mov	sl, r6
10005eb0:	46bb      	mov	fp, r7
10005eb2:	4770      	bx	lr

10005eb4 <__wrap___aeabi_drsub>:
10005eb4:	4048      	eors	r0, r1
10005eb6:	4041      	eors	r1, r0
10005eb8:	4048      	eors	r0, r1

10005eba <__wrap___aeabi_dsub>:
10005eba:	b418      	push	{r3, r4}
10005ebc:	4b11      	ldr	r3, [pc, #68]	; (10005f04 <__wrap___aeabi_dmul+0x14>)
10005ebe:	685b      	ldr	r3, [r3, #4]
10005ec0:	46fc      	mov	ip, pc
10005ec2:	9301      	str	r3, [sp, #4]
10005ec4:	bd08      	pop	{r3, pc}
10005ec6:	df04      	.short	0xdf04
10005ec8:	10006477 	.word	0x10006477

10005ecc <__wrap___aeabi_dadd>:
10005ecc:	b418      	push	{r3, r4}
10005ece:	4b0d      	ldr	r3, [pc, #52]	; (10005f04 <__wrap___aeabi_dmul+0x14>)
10005ed0:	681b      	ldr	r3, [r3, #0]
10005ed2:	46fc      	mov	ip, pc
10005ed4:	9301      	str	r3, [sp, #4]
10005ed6:	bd08      	pop	{r3, pc}
10005ed8:	6481df00 	.word	0x6481df00
10005edc:	1000      	.short	0x1000

10005ede <__wrap___aeabi_ddiv>:
10005ede:	b418      	push	{r3, r4}
10005ee0:	4b08      	ldr	r3, [pc, #32]	; (10005f04 <__wrap___aeabi_dmul+0x14>)
10005ee2:	68db      	ldr	r3, [r3, #12]
10005ee4:	46fc      	mov	ip, pc
10005ee6:	9301      	str	r3, [sp, #4]
10005ee8:	bd08      	pop	{r3, pc}
10005eea:	df0c      	.short	0xdf0c
10005eec:	10006739 	.word	0x10006739

10005ef0 <__wrap___aeabi_dmul>:
10005ef0:	b418      	push	{r3, r4}
10005ef2:	4b04      	ldr	r3, [pc, #16]	; (10005f04 <__wrap___aeabi_dmul+0x14>)
10005ef4:	689b      	ldr	r3, [r3, #8]
10005ef6:	46fc      	mov	ip, pc
10005ef8:	9301      	str	r3, [sp, #4]
10005efa:	bd08      	pop	{r3, pc}
10005efc:	65dddf08 	.word	0x65dddf08
10005f00:	00001000 	.word	0x00001000
10005f04:	20003914 	.word	0x20003914

10005f08 <__wrap___aeabi_cdrcmple>:
10005f08:	b5ff      	push	{r0, r1, r2, r3, r4, r5, r6, r7, lr}
10005f0a:	4050      	eors	r0, r2
10005f0c:	4042      	eors	r2, r0
10005f0e:	4050      	eors	r0, r2
10005f10:	4059      	eors	r1, r3
10005f12:	404b      	eors	r3, r1
10005f14:	4059      	eors	r1, r3
10005f16:	e000      	b.n	10005f1a <__aeabi_dfcmple_guts>

10005f18 <__wrap___aeabi_cdcmpeq>:
10005f18:	b5ff      	push	{r0, r1, r2, r3, r4, r5, r6, r7, lr}

10005f1a <__aeabi_dfcmple_guts>:
10005f1a:	4f15      	ldr	r7, [pc, #84]	; (10005f70 <__aeabi_dfcmple_guts+0x56>)
10005f1c:	004c      	lsls	r4, r1, #1
10005f1e:	0d64      	lsrs	r4, r4, #21
10005f20:	d003      	beq.n	10005f2a <__aeabi_dfcmple_guts+0x10>
10005f22:	42bc      	cmp	r4, r7
10005f24:	d104      	bne.n	10005f30 <__aeabi_dfcmple_guts+0x16>
10005f26:	030c      	lsls	r4, r1, #12
10005f28:	d814      	bhi.n	10005f54 <__aeabi_dfcmple_guts+0x3a>
10005f2a:	2000      	movs	r0, #0
10005f2c:	0d09      	lsrs	r1, r1, #20
10005f2e:	0509      	lsls	r1, r1, #20
10005f30:	005c      	lsls	r4, r3, #1
10005f32:	0d64      	lsrs	r4, r4, #21
10005f34:	d003      	beq.n	10005f3e <__aeabi_dfcmple_guts+0x24>
10005f36:	42bc      	cmp	r4, r7
10005f38:	d104      	bne.n	10005f44 <__aeabi_dfcmple_guts+0x2a>
10005f3a:	031c      	lsls	r4, r3, #12
10005f3c:	d80a      	bhi.n	10005f54 <__aeabi_dfcmple_guts+0x3a>
10005f3e:	2200      	movs	r2, #0
10005f40:	0d1b      	lsrs	r3, r3, #20
10005f42:	051b      	lsls	r3, r3, #20
10005f44:	2601      	movs	r6, #1
10005f46:	404b      	eors	r3, r1
10005f48:	d409      	bmi.n	10005f5e <__aeabi_dfcmple_guts+0x44>
10005f4a:	404b      	eors	r3, r1
10005f4c:	d503      	bpl.n	10005f56 <__aeabi_dfcmple_guts+0x3c>
10005f4e:	428b      	cmp	r3, r1
10005f50:	d100      	bne.n	10005f54 <__aeabi_dfcmple_guts+0x3a>
10005f52:	4282      	cmp	r2, r0
10005f54:	bdff      	pop	{r0, r1, r2, r3, r4, r5, r6, r7, pc}
10005f56:	4299      	cmp	r1, r3
10005f58:	d1fc      	bne.n	10005f54 <__aeabi_dfcmple_guts+0x3a>
10005f5a:	4290      	cmp	r0, r2
10005f5c:	bdff      	pop	{r0, r1, r2, r3, r4, r5, r6, r7, pc}
10005f5e:	430b      	orrs	r3, r1
10005f60:	18db      	adds	r3, r3, r3
10005f62:	4303      	orrs	r3, r0
10005f64:	4313      	orrs	r3, r2
10005f66:	d0f5      	beq.n	10005f54 <__aeabi_dfcmple_guts+0x3a>
10005f68:	43c9      	mvns	r1, r1
10005f6a:	1849      	adds	r1, r1, r1
10005f6c:	bdff      	pop	{r0, r1, r2, r3, r4, r5, r6, r7, pc}
10005f6e:	0000      	.short	0x0000
10005f70:	000007ff 	.word	0x000007ff

10005f74 <__wrap___aeabi_dcmplt>:
10005f74:	b500      	push	{lr}
10005f76:	f7ff ffcf 	bl	10005f18 <__wrap___aeabi_cdcmpeq>
10005f7a:	4180      	sbcs	r0, r0
10005f7c:	bd00      	pop	{pc}
10005f7e:	46c0      	nop			; (mov r8, r8)

10005f80 <__wrap___aeabi_dcmple>:
10005f80:	b500      	push	{lr}
10005f82:	f7ff ffc9 	bl	10005f18 <__wrap___aeabi_cdcmpeq>
10005f86:	d901      	bls.n	10005f8c <__wrap___aeabi_dcmple+0xc>
10005f88:	2000      	movs	r0, #0
10005f8a:	bd00      	pop	{pc}
10005f8c:	2001      	movs	r0, #1
10005f8e:	bd00      	pop	{pc}

10005f90 <__wrap___aeabi_dcmpge>:
10005f90:	b500      	push	{lr}
10005f92:	f7ff ffb9 	bl	10005f08 <__wrap___aeabi_cdrcmple>
10005f96:	d901      	bls.n	10005f9c <__wrap___aeabi_dcmpge+0xc>
10005f98:	2000      	movs	r0, #0
10005f9a:	bd00      	pop	{pc}
10005f9c:	2001      	movs	r0, #1
10005f9e:	bd00      	pop	{pc}

10005fa0 <__wrap___aeabi_dcmpgt>:
10005fa0:	b500      	push	{lr}
10005fa2:	f7ff ffb1 	bl	10005f08 <__wrap___aeabi_cdrcmple>
10005fa6:	4180      	sbcs	r0, r0
10005fa8:	bd00      	pop	{pc}

10005faa <__wrap___aeabi_dcmpun>:
10005faa:	2001      	movs	r0, #1
10005fac:	0540      	lsls	r0, r0, #21
10005fae:	004a      	lsls	r2, r1, #1
10005fb0:	1812      	adds	r2, r2, r0
10005fb2:	d804      	bhi.n	10005fbe <__wrap___aeabi_dcmpun+0x14>
10005fb4:	005a      	lsls	r2, r3, #1
10005fb6:	1812      	adds	r2, r2, r0
10005fb8:	d801      	bhi.n	10005fbe <__wrap___aeabi_dcmpun+0x14>
10005fba:	2000      	movs	r0, #0
10005fbc:	4770      	bx	lr
10005fbe:	2001      	movs	r0, #1
10005fc0:	4770      	bx	lr
10005fc2:	2000      	movs	r0, #0
10005fc4:	4770      	bx	lr
	...

10005fc8 <__wrap___aeabi_ui2d>:
10005fc8:	2100      	movs	r1, #0
10005fca:	2800      	cmp	r0, #0
10005fcc:	d105      	bne.n	10005fda <__wrap___aeabi_i2d+0xa>
10005fce:	4770      	bx	lr

10005fd0 <__wrap___aeabi_i2d>:
10005fd0:	17c1      	asrs	r1, r0, #31
10005fd2:	4048      	eors	r0, r1
10005fd4:	1a40      	subs	r0, r0, r1
10005fd6:	d0fa      	beq.n	10005fce <__wrap___aeabi_ui2d+0x6>
10005fd8:	07c9      	lsls	r1, r1, #31
10005fda:	b513      	push	{r0, r1, r4, lr}
10005fdc:	4b06      	ldr	r3, [pc, #24]	; (10005ff8 <__wrap___aeabi_i2d+0x28>)
10005fde:	681b      	ldr	r3, [r3, #0]
10005fe0:	4798      	blx	r3
10005fe2:	bc0c      	pop	{r2, r3}
10005fe4:	1c44      	adds	r4, r0, #1
10005fe6:	40a2      	lsls	r2, r4
10005fe8:	0510      	lsls	r0, r2, #20
10005fea:	0b12      	lsrs	r2, r2, #12
10005fec:	4903      	ldr	r1, [pc, #12]	; (10005ffc <__wrap___aeabi_i2d+0x2c>)
10005fee:	1b09      	subs	r1, r1, r4
10005ff0:	0509      	lsls	r1, r1, #20
10005ff2:	4319      	orrs	r1, r3
10005ff4:	4311      	orrs	r1, r2
10005ff6:	bd10      	pop	{r4, pc}
10005ff8:	20003b14 	.word	0x20003b14
10005ffc:	0000041f 	.word	0x0000041f

10006000 <__wrap___aeabi_d2iz>:
10006000:	b510      	push	{r4, lr}
10006002:	004c      	lsls	r4, r1, #1
10006004:	0d62      	lsrs	r2, r4, #21
10006006:	2380      	movs	r3, #128	; 0x80
10006008:	18d2      	adds	r2, r2, r3
1000600a:	00db      	lsls	r3, r3, #3
1000600c:	1ad2      	subs	r2, r2, r3
1000600e:	055b      	lsls	r3, r3, #21
10006010:	2a7e      	cmp	r2, #126	; 0x7e
10006012:	dd10      	ble.n	10006036 <__wrap___aeabi_d2iz+0x36>
10006014:	3a9e      	subs	r2, #158	; 0x9e
10006016:	da13      	bge.n	10006040 <__wrap___aeabi_d2iz+0x40>
10006018:	17cc      	asrs	r4, r1, #31
1000601a:	0309      	lsls	r1, r1, #12
1000601c:	0849      	lsrs	r1, r1, #1
1000601e:	4319      	orrs	r1, r3
10006020:	4252      	negs	r2, r2
10006022:	40d1      	lsrs	r1, r2
10006024:	0064      	lsls	r4, r4, #1
10006026:	3401      	adds	r4, #1
10006028:	3215      	adds	r2, #21
1000602a:	2a20      	cmp	r2, #32
1000602c:	da05      	bge.n	1000603a <__wrap___aeabi_d2iz+0x3a>
1000602e:	40d0      	lsrs	r0, r2
10006030:	4308      	orrs	r0, r1
10006032:	4360      	muls	r0, r4
10006034:	bd10      	pop	{r4, pc}
10006036:	2000      	movs	r0, #0
10006038:	bd10      	pop	{r4, pc}
1000603a:	4608      	mov	r0, r1
1000603c:	4360      	muls	r0, r4
1000603e:	bd10      	pop	{r4, pc}
10006040:	0fc8      	lsrs	r0, r1, #31
10006042:	18c0      	adds	r0, r0, r3
10006044:	3801      	subs	r0, #1
10006046:	bd10      	pop	{r4, pc}

10006048 <__wrap___aeabi_d2uiz>:
10006048:	b418      	push	{r3, r4}
1000604a:	4b04      	ldr	r3, [pc, #16]	; (1000605c <__wrap___aeabi_d2uiz+0x14>)
1000604c:	6a5b      	ldr	r3, [r3, #36]	; 0x24
1000604e:	46fc      	mov	ip, pc
10006050:	9301      	str	r3, [sp, #4]
10006052:	bd08      	pop	{r3, pc}
10006054:	6973df24 	.word	0x6973df24
10006058:	00001000 	.word	0x00001000
1000605c:	20003914 	.word	0x20003914

10006060 <fix642double>:
10006060:	b418      	push	{r3, r4}
10006062:	4b04      	ldr	r3, [pc, #16]	; (10006074 <fix642double+0x14>)
10006064:	6e1b      	ldr	r3, [r3, #96]	; 0x60
10006066:	46fc      	mov	ip, pc
10006068:	9301      	str	r3, [sp, #4]
1000606a:	bd08      	pop	{r3, pc}
1000606c:	6a7fdf60 	.word	0x6a7fdf60
10006070:	00001000 	.word	0x00001000
10006074:	20003914 	.word	0x20003914

10006078 <__wrap___aeabi_d2f>:
10006078:	b418      	push	{r3, r4}
1000607a:	4b04      	ldr	r3, [pc, #16]	; (1000608c <__wrap___aeabi_d2f+0x14>)
1000607c:	6fdb      	ldr	r3, [r3, #124]	; 0x7c
1000607e:	46fc      	mov	ip, pc
10006080:	9301      	str	r3, [sp, #4]
10006082:	bd08      	pop	{r3, pc}
10006084:	6a09df7c 	.word	0x6a09df7c
10006088:	00001000 	.word	0x00001000
1000608c:	20003914 	.word	0x20003914

10006090 <sincostan_remainder>:
10006090:	4a02      	ldr	r2, [pc, #8]	; (1000609c <sincostan_remainder+0xc>)
10006092:	4b03      	ldr	r3, [pc, #12]	; (100060a0 <sincostan_remainder+0x10>)
10006094:	b500      	push	{lr}
10006096:	f000 f9cd 	bl	10006434 <__wrap_remainder>
1000609a:	bd00      	pop	{pc}
1000609c:	54442d18 	.word	0x54442d18
100060a0:	401921fb 	.word	0x401921fb

100060a4 <__wrap_cos>:
100060a4:	008a      	lsls	r2, r1, #2
100060a6:	d302      	bcc.n	100060ae <__wrap_cos+0xa>
100060a8:	0d92      	lsrs	r2, r2, #22
100060aa:	2a09      	cmp	r2, #9
100060ac:	da08      	bge.n	100060c0 <__wrap_cos+0x1c>
100060ae:	b418      	push	{r3, r4}
100060b0:	4b06      	ldr	r3, [pc, #24]	; (100060cc <__wrap_cos+0x28>)
100060b2:	6bdb      	ldr	r3, [r3, #60]	; 0x3c
100060b4:	46fc      	mov	ip, pc
100060b6:	9301      	str	r3, [sp, #4]
100060b8:	bd08      	pop	{r3, pc}
100060ba:	df3c      	.short	0xdf3c
100060bc:	10006bb3 	.word	0x10006bb3
100060c0:	b500      	push	{lr}
100060c2:	f7ff ffe5 	bl	10006090 <sincostan_remainder>
100060c6:	bc04      	pop	{r2}
100060c8:	4696      	mov	lr, r2
100060ca:	e7f0      	b.n	100060ae <__wrap_cos+0xa>
100060cc:	20003914 	.word	0x20003914

100060d0 <__wrap_sin>:
100060d0:	008a      	lsls	r2, r1, #2
100060d2:	d302      	bcc.n	100060da <__wrap_sin+0xa>
100060d4:	0d92      	lsrs	r2, r2, #22
100060d6:	2a09      	cmp	r2, #9
100060d8:	da08      	bge.n	100060ec <__wrap_sin+0x1c>
100060da:	b418      	push	{r3, r4}
100060dc:	4b06      	ldr	r3, [pc, #24]	; (100060f8 <__wrap_sin+0x28>)
100060de:	6c1b      	ldr	r3, [r3, #64]	; 0x40
100060e0:	46fc      	mov	ip, pc
100060e2:	9301      	str	r3, [sp, #4]
100060e4:	bd08      	pop	{r3, pc}
100060e6:	df40      	.short	0xdf40
100060e8:	10006bc3 	.word	0x10006bc3
100060ec:	b500      	push	{lr}
100060ee:	f7ff ffcf 	bl	10006090 <sincostan_remainder>
100060f2:	bc04      	pop	{r2}
100060f4:	4696      	mov	lr, r2
100060f6:	e7f0      	b.n	100060da <__wrap_sin+0xa>
100060f8:	20003914 	.word	0x20003914

100060fc <__aeabi_double_init>:
100060fc:	2313      	movs	r3, #19
100060fe:	b570      	push	{r4, r5, r6, lr}
10006100:	781d      	ldrb	r5, [r3, #0]
10006102:	2d01      	cmp	r5, #1
10006104:	d010      	beq.n	10006128 <__aeabi_double_init+0x2c>
10006106:	dd0b      	ble.n	10006120 <__aeabi_double_init+0x24>
10006108:	4824      	ldr	r0, [pc, #144]	; (1000619c <__aeabi_double_init+0xa0>)
1000610a:	f7ff fc33 	bl	10005974 <rom_data_lookup>
1000610e:	4c24      	ldr	r4, [pc, #144]	; (100061a0 <__aeabi_double_init+0xa4>)
10006110:	0001      	movs	r1, r0
10006112:	2280      	movs	r2, #128	; 0x80
10006114:	0020      	movs	r0, r4
10006116:	f001 f81b 	bl	10007150 <__wrap___aeabi_memcpy>
1000611a:	2d02      	cmp	r5, #2
1000611c:	d001      	beq.n	10006122 <__aeabi_double_init+0x26>
1000611e:	bd70      	pop	{r4, r5, r6, pc}
10006120:	4c1f      	ldr	r4, [pc, #124]	; (100061a0 <__aeabi_double_init+0xa4>)
10006122:	4a20      	ldr	r2, [pc, #128]	; (100061a4 <__aeabi_double_init+0xa8>)
10006124:	64a2      	str	r2, [r4, #72]	; 0x48
10006126:	e7fa      	b.n	1000611e <__aeabi_double_init+0x22>
10006128:	002e      	movs	r6, r5
1000612a:	4c1d      	ldr	r4, [pc, #116]	; (100061a0 <__aeabi_double_init+0xa4>)
1000612c:	4a1d      	ldr	r2, [pc, #116]	; (100061a4 <__aeabi_double_init+0xa8>)
1000612e:	08a3      	lsrs	r3, r4, #2
10006130:	425b      	negs	r3, r3
10006132:	401e      	ands	r6, r3
10006134:	421d      	tst	r5, r3
10006136:	d02f      	beq.n	10006198 <__aeabi_double_init+0x9c>
10006138:	0033      	movs	r3, r6
1000613a:	6022      	str	r2, [r4, #0]
1000613c:	2020      	movs	r0, #32
1000613e:	00b1      	lsls	r1, r6, #2
10006140:	1861      	adds	r1, r4, r1
10006142:	1b80      	subs	r0, r0, r6
10006144:	600a      	str	r2, [r1, #0]
10006146:	604a      	str	r2, [r1, #4]
10006148:	608a      	str	r2, [r1, #8]
1000614a:	60ca      	str	r2, [r1, #12]
1000614c:	610a      	str	r2, [r1, #16]
1000614e:	614a      	str	r2, [r1, #20]
10006150:	618a      	str	r2, [r1, #24]
10006152:	61ca      	str	r2, [r1, #28]
10006154:	620a      	str	r2, [r1, #32]
10006156:	624a      	str	r2, [r1, #36]	; 0x24
10006158:	628a      	str	r2, [r1, #40]	; 0x28
1000615a:	62ca      	str	r2, [r1, #44]	; 0x2c
1000615c:	630a      	str	r2, [r1, #48]	; 0x30
1000615e:	634a      	str	r2, [r1, #52]	; 0x34
10006160:	638a      	str	r2, [r1, #56]	; 0x38
10006162:	63ca      	str	r2, [r1, #60]	; 0x3c
10006164:	640a      	str	r2, [r1, #64]	; 0x40
10006166:	644a      	str	r2, [r1, #68]	; 0x44
10006168:	648a      	str	r2, [r1, #72]	; 0x48
1000616a:	64ca      	str	r2, [r1, #76]	; 0x4c
1000616c:	650a      	str	r2, [r1, #80]	; 0x50
1000616e:	654a      	str	r2, [r1, #84]	; 0x54
10006170:	658a      	str	r2, [r1, #88]	; 0x58
10006172:	65ca      	str	r2, [r1, #92]	; 0x5c
10006174:	660a      	str	r2, [r1, #96]	; 0x60
10006176:	664a      	str	r2, [r1, #100]	; 0x64
10006178:	668a      	str	r2, [r1, #104]	; 0x68
1000617a:	66ca      	str	r2, [r1, #108]	; 0x6c
1000617c:	670a      	str	r2, [r1, #112]	; 0x70
1000617e:	674a      	str	r2, [r1, #116]	; 0x74
10006180:	0840      	lsrs	r0, r0, #1
10006182:	2810      	cmp	r0, #16
10006184:	d103      	bne.n	1000618e <__aeabi_double_init+0x92>
10006186:	678a      	str	r2, [r1, #120]	; 0x78
10006188:	67ca      	str	r2, [r1, #124]	; 0x7c
1000618a:	64a2      	str	r2, [r4, #72]	; 0x48
1000618c:	e7c7      	b.n	1000611e <__aeabi_double_init+0x22>
1000618e:	331e      	adds	r3, #30
10006190:	009b      	lsls	r3, r3, #2
10006192:	50e2      	str	r2, [r4, r3]
10006194:	64a2      	str	r2, [r4, #72]	; 0x48
10006196:	e7c2      	b.n	1000611e <__aeabi_double_init+0x22>
10006198:	2300      	movs	r3, #0
1000619a:	e7cf      	b.n	1000613c <__aeabi_double_init+0x40>
1000619c:	00004453 	.word	0x00004453
100061a0:	20003914 	.word	0x20003914
100061a4:	10006445 	.word	0x10006445

100061a8 <__wrap_remquo>:
100061a8:	b5f0      	push	{r4, r5, r6, r7, lr}
100061aa:	4657      	mov	r7, sl
100061ac:	464e      	mov	r6, r9
100061ae:	4645      	mov	r5, r8
100061b0:	46de      	mov	lr, fp
100061b2:	b5e0      	push	{r5, r6, r7, lr}
100061b4:	b087      	sub	sp, #28
100061b6:	9202      	str	r2, [sp, #8]
100061b8:	005a      	lsls	r2, r3, #1
100061ba:	469a      	mov	sl, r3
100061bc:	0d53      	lsrs	r3, r2, #21
100061be:	4699      	mov	r9, r3
100061c0:	9b10      	ldr	r3, [sp, #64]	; 0x40
100061c2:	004d      	lsls	r5, r1, #1
100061c4:	0004      	movs	r4, r0
100061c6:	0d6d      	lsrs	r5, r5, #21
100061c8:	2b00      	cmp	r3, #0
100061ca:	d001      	beq.n	100061d0 <__wrap_remquo+0x28>
100061cc:	2200      	movs	r2, #0
100061ce:	601a      	str	r2, [r3, #0]
100061d0:	4a95      	ldr	r2, [pc, #596]	; (10006428 <__wrap_remquo+0x280>)
100061d2:	4295      	cmp	r5, r2
100061d4:	d100      	bne.n	100061d8 <__wrap_remquo+0x30>
100061d6:	e0af      	b.n	10006338 <__wrap_remquo+0x190>
100061d8:	464b      	mov	r3, r9
100061da:	2b00      	cmp	r3, #0
100061dc:	d100      	bne.n	100061e0 <__wrap_remquo+0x38>
100061de:	e0ab      	b.n	10006338 <__wrap_remquo+0x190>
100061e0:	2d00      	cmp	r5, #0
100061e2:	d100      	bne.n	100061e6 <__wrap_remquo+0x3e>
100061e4:	e0ab      	b.n	1000633e <__wrap_remquo+0x196>
100061e6:	4591      	cmp	r9, r2
100061e8:	d100      	bne.n	100061ec <__wrap_remquo+0x44>
100061ea:	e09d      	b.n	10006328 <__wrap_remquo+0x180>
100061ec:	3b01      	subs	r3, #1
100061ee:	9303      	str	r3, [sp, #12]
100061f0:	42ab      	cmp	r3, r5
100061f2:	dd00      	ble.n	100061f6 <__wrap_remquo+0x4e>
100061f4:	e098      	b.n	10006328 <__wrap_remquo+0x180>
100061f6:	0fcb      	lsrs	r3, r1, #31
100061f8:	030e      	lsls	r6, r1, #12
100061fa:	4698      	mov	r8, r3
100061fc:	0b33      	lsrs	r3, r6, #12
100061fe:	469b      	mov	fp, r3
10006200:	2380      	movs	r3, #128	; 0x80
10006202:	035b      	lsls	r3, r3, #13
10006204:	469c      	mov	ip, r3
10006206:	465b      	mov	r3, fp
10006208:	4662      	mov	r2, ip
1000620a:	4313      	orrs	r3, r2
1000620c:	001f      	movs	r7, r3
1000620e:	4653      	mov	r3, sl
10006210:	0006      	movs	r6, r0
10006212:	0318      	lsls	r0, r3, #12
10006214:	4663      	mov	r3, ip
10006216:	0b00      	lsrs	r0, r0, #12
10006218:	4303      	orrs	r3, r0
1000621a:	9a02      	ldr	r2, [sp, #8]
1000621c:	9301      	str	r3, [sp, #4]
1000621e:	9b03      	ldr	r3, [sp, #12]
10006220:	9200      	str	r2, [sp, #0]
10006222:	42ab      	cmp	r3, r5
10006224:	d056      	beq.n	100062d4 <__wrap_remquo+0x12c>
10006226:	4643      	mov	r3, r8
10006228:	2b00      	cmp	r3, #0
1000622a:	d100      	bne.n	1000622e <__wrap_remquo+0x86>
1000622c:	e0bb      	b.n	100063a6 <__wrap_remquo+0x1fe>
1000622e:	0033      	movs	r3, r6
10006230:	003c      	movs	r4, r7
10006232:	2700      	movs	r7, #0
10006234:	425e      	negs	r6, r3
10006236:	41a7      	sbcs	r7, r4
10006238:	464b      	mov	r3, r9
1000623a:	1aed      	subs	r5, r5, r3
1000623c:	2d00      	cmp	r5, #0
1000623e:	dc00      	bgt.n	10006242 <__wrap_remquo+0x9a>
10006240:	e0c7      	b.n	100063d2 <__wrap_remquo+0x22a>
10006242:	2001      	movs	r0, #1
10006244:	9b01      	ldr	r3, [sp, #4]
10006246:	4240      	negs	r0, r0
10006248:	1119      	asrs	r1, r3, #4
1000624a:	f7ff fbe5 	bl	10005a18 <__wrap___aeabi_uidiv>
1000624e:	2300      	movs	r3, #0
10006250:	4698      	mov	r8, r3
10006252:	464b      	mov	r3, r9
10006254:	9303      	str	r3, [sp, #12]
10006256:	4653      	mov	r3, sl
10006258:	46ab      	mov	fp, r5
1000625a:	9002      	str	r0, [sp, #8]
1000625c:	9304      	str	r3, [sp, #16]
1000625e:	e01b      	b.n	10006298 <__wrap_remquo+0xf0>
10006260:	0032      	movs	r2, r6
10006262:	409a      	lsls	r2, r3
10006264:	0015      	movs	r5, r2
10006266:	0033      	movs	r3, r6
10006268:	4652      	mov	r2, sl
1000626a:	4093      	lsls	r3, r2
1000626c:	001c      	movs	r4, r3
1000626e:	464b      	mov	r3, r9
10006270:	4648      	mov	r0, r9
10006272:	17d9      	asrs	r1, r3, #31
10006274:	9a00      	ldr	r2, [sp, #0]
10006276:	9b01      	ldr	r3, [sp, #4]
10006278:	f000 fe24 	bl	10006ec4 <__wrap___aeabi_lmul>
1000627c:	4643      	mov	r3, r8
1000627e:	4652      	mov	r2, sl
10006280:	4093      	lsls	r3, r2
10006282:	444b      	add	r3, r9
10006284:	4698      	mov	r8, r3
10006286:	465b      	mov	r3, fp
10006288:	0026      	movs	r6, r4
1000628a:	002f      	movs	r7, r5
1000628c:	1a9b      	subs	r3, r3, r2
1000628e:	1a36      	subs	r6, r6, r0
10006290:	418f      	sbcs	r7, r1
10006292:	469b      	mov	fp, r3
10006294:	2b00      	cmp	r3, #0
10006296:	dd55      	ble.n	10006344 <__wrap_remquo+0x19c>
10006298:	465b      	mov	r3, fp
1000629a:	46da      	mov	sl, fp
1000629c:	2b0c      	cmp	r3, #12
1000629e:	dd01      	ble.n	100062a4 <__wrap_remquo+0xfc>
100062a0:	230c      	movs	r3, #12
100062a2:	469a      	mov	sl, r3
100062a4:	9a02      	ldr	r2, [sp, #8]
100062a6:	11bb      	asrs	r3, r7, #6
100062a8:	4353      	muls	r3, r2
100062aa:	4651      	mov	r1, sl
100062ac:	221d      	movs	r2, #29
100062ae:	1a52      	subs	r2, r2, r1
100062b0:	4113      	asrs	r3, r2
100062b2:	2220      	movs	r2, #32
100062b4:	3301      	adds	r3, #1
100062b6:	105b      	asrs	r3, r3, #1
100062b8:	4252      	negs	r2, r2
100062ba:	4699      	mov	r9, r3
100062bc:	188b      	adds	r3, r1, r2
100062be:	d5cf      	bpl.n	10006260 <__wrap_remquo+0xb8>
100062c0:	2320      	movs	r3, #32
100062c2:	0032      	movs	r2, r6
100062c4:	1a5b      	subs	r3, r3, r1
100062c6:	40da      	lsrs	r2, r3
100062c8:	0013      	movs	r3, r2
100062ca:	003a      	movs	r2, r7
100062cc:	408a      	lsls	r2, r1
100062ce:	0015      	movs	r5, r2
100062d0:	431d      	orrs	r5, r3
100062d2:	e7c8      	b.n	10006266 <__wrap_remquo+0xbe>
100062d4:	9b01      	ldr	r3, [sp, #4]
100062d6:	429f      	cmp	r7, r3
100062d8:	dc05      	bgt.n	100062e6 <__wrap_remquo+0x13e>
100062da:	9a00      	ldr	r2, [sp, #0]
100062dc:	9b01      	ldr	r3, [sp, #4]
100062de:	429f      	cmp	r7, r3
100062e0:	d122      	bne.n	10006328 <__wrap_remquo+0x180>
100062e2:	4296      	cmp	r6, r2
100062e4:	d920      	bls.n	10006328 <__wrap_remquo+0x180>
100062e6:	9800      	ldr	r0, [sp, #0]
100062e8:	9901      	ldr	r1, [sp, #4]
100062ea:	4643      	mov	r3, r8
100062ec:	1800      	adds	r0, r0, r0
100062ee:	4149      	adcs	r1, r1
100062f0:	2b00      	cmp	r3, #0
100062f2:	d000      	beq.n	100062f6 <__wrap_remquo+0x14e>
100062f4:	e082      	b.n	100063fc <__wrap_remquo+0x254>
100062f6:	9b03      	ldr	r3, [sp, #12]
100062f8:	1a36      	subs	r6, r6, r0
100062fa:	418f      	sbcs	r7, r1
100062fc:	4699      	mov	r9, r3
100062fe:	2301      	movs	r3, #1
10006300:	4698      	mov	r8, r3
10006302:	4653      	mov	r3, sl
10006304:	2b00      	cmp	r3, #0
10006306:	da02      	bge.n	1000630e <__wrap_remquo+0x166>
10006308:	4643      	mov	r3, r8
1000630a:	425b      	negs	r3, r3
1000630c:	4698      	mov	r8, r3
1000630e:	9b10      	ldr	r3, [sp, #64]	; 0x40
10006310:	2b00      	cmp	r3, #0
10006312:	d001      	beq.n	10006318 <__wrap_remquo+0x170>
10006314:	4642      	mov	r2, r8
10006316:	601a      	str	r2, [r3, #0]
10006318:	464b      	mov	r3, r9
1000631a:	4a44      	ldr	r2, [pc, #272]	; (1000642c <__wrap_remquo+0x284>)
1000631c:	0030      	movs	r0, r6
1000631e:	0039      	movs	r1, r7
10006320:	1ad2      	subs	r2, r2, r3
10006322:	f7ff fe9d 	bl	10006060 <fix642double>
10006326:	0004      	movs	r4, r0
10006328:	0020      	movs	r0, r4
1000632a:	b007      	add	sp, #28
1000632c:	bc3c      	pop	{r2, r3, r4, r5}
1000632e:	4690      	mov	r8, r2
10006330:	4699      	mov	r9, r3
10006332:	46a2      	mov	sl, r4
10006334:	46ab      	mov	fp, r5
10006336:	bdf0      	pop	{r4, r5, r6, r7, pc}
10006338:	2400      	movs	r4, #0
1000633a:	493d      	ldr	r1, [pc, #244]	; (10006430 <__wrap_remquo+0x288>)
1000633c:	e7f4      	b.n	10006328 <__wrap_remquo+0x180>
1000633e:	2400      	movs	r4, #0
10006340:	2100      	movs	r1, #0
10006342:	e7f1      	b.n	10006328 <__wrap_remquo+0x180>
10006344:	9b03      	ldr	r3, [sp, #12]
10006346:	4699      	mov	r9, r3
10006348:	9b04      	ldr	r3, [sp, #16]
1000634a:	469a      	mov	sl, r3
1000634c:	9b00      	ldr	r3, [sp, #0]
1000634e:	9c01      	ldr	r4, [sp, #4]
10006350:	42bc      	cmp	r4, r7
10006352:	dc50      	bgt.n	100063f6 <__wrap_remquo+0x24e>
10006354:	d04c      	beq.n	100063f0 <__wrap_remquo+0x248>
10006356:	9b00      	ldr	r3, [sp, #0]
10006358:	9c01      	ldr	r4, [sp, #4]
1000635a:	1af6      	subs	r6, r6, r3
1000635c:	41a7      	sbcs	r7, r4
1000635e:	42bc      	cmp	r4, r7
10006360:	dc59      	bgt.n	10006416 <__wrap_remquo+0x26e>
10006362:	d055      	beq.n	10006410 <__wrap_remquo+0x268>
10006364:	9b00      	ldr	r3, [sp, #0]
10006366:	9c01      	ldr	r4, [sp, #4]
10006368:	1af6      	subs	r6, r6, r3
1000636a:	41a7      	sbcs	r7, r4
1000636c:	2302      	movs	r3, #2
1000636e:	469c      	mov	ip, r3
10006370:	44e0      	add	r8, ip
10006372:	0032      	movs	r2, r6
10006374:	9800      	ldr	r0, [sp, #0]
10006376:	9901      	ldr	r1, [sp, #4]
10006378:	003b      	movs	r3, r7
1000637a:	1992      	adds	r2, r2, r6
1000637c:	417b      	adcs	r3, r7
1000637e:	428b      	cmp	r3, r1
10006380:	dc09      	bgt.n	10006396 <__wrap_remquo+0x1ee>
10006382:	d023      	beq.n	100063cc <__wrap_remquo+0x224>
10006384:	9900      	ldr	r1, [sp, #0]
10006386:	428a      	cmp	r2, r1
10006388:	d1bb      	bne.n	10006302 <__wrap_remquo+0x15a>
1000638a:	9a01      	ldr	r2, [sp, #4]
1000638c:	4293      	cmp	r3, r2
1000638e:	d1b8      	bne.n	10006302 <__wrap_remquo+0x15a>
10006390:	4643      	mov	r3, r8
10006392:	07db      	lsls	r3, r3, #31
10006394:	d5b5      	bpl.n	10006302 <__wrap_remquo+0x15a>
10006396:	9b00      	ldr	r3, [sp, #0]
10006398:	9c01      	ldr	r4, [sp, #4]
1000639a:	1af6      	subs	r6, r6, r3
1000639c:	41a7      	sbcs	r7, r4
1000639e:	2301      	movs	r3, #1
100063a0:	469c      	mov	ip, r3
100063a2:	44e0      	add	r8, ip
100063a4:	e7ad      	b.n	10006302 <__wrap_remquo+0x15a>
100063a6:	464b      	mov	r3, r9
100063a8:	1aed      	subs	r5, r5, r3
100063aa:	2d00      	cmp	r5, #0
100063ac:	dd00      	ble.n	100063b0 <__wrap_remquo+0x208>
100063ae:	e748      	b.n	10006242 <__wrap_remquo+0x9a>
100063b0:	9b01      	ldr	r3, [sp, #4]
100063b2:	42bb      	cmp	r3, r7
100063b4:	dcdd      	bgt.n	10006372 <__wrap_remquo+0x1ca>
100063b6:	9b00      	ldr	r3, [sp, #0]
100063b8:	9c01      	ldr	r4, [sp, #4]
100063ba:	42bc      	cmp	r4, r7
100063bc:	d101      	bne.n	100063c2 <__wrap_remquo+0x21a>
100063be:	42b3      	cmp	r3, r6
100063c0:	d8d7      	bhi.n	10006372 <__wrap_remquo+0x1ca>
100063c2:	9b00      	ldr	r3, [sp, #0]
100063c4:	9c01      	ldr	r4, [sp, #4]
100063c6:	1af6      	subs	r6, r6, r3
100063c8:	41a7      	sbcs	r7, r4
100063ca:	e024      	b.n	10006416 <__wrap_remquo+0x26e>
100063cc:	4282      	cmp	r2, r0
100063ce:	d8e2      	bhi.n	10006396 <__wrap_remquo+0x1ee>
100063d0:	e7d8      	b.n	10006384 <__wrap_remquo+0x1dc>
100063d2:	2300      	movs	r3, #0
100063d4:	4698      	mov	r8, r3
100063d6:	9b00      	ldr	r3, [sp, #0]
100063d8:	9c01      	ldr	r4, [sp, #4]
100063da:	18f6      	adds	r6, r6, r3
100063dc:	4167      	adcs	r7, r4
100063de:	2f00      	cmp	r7, #0
100063e0:	da1d      	bge.n	1000641e <__wrap_remquo+0x276>
100063e2:	18f6      	adds	r6, r6, r3
100063e4:	4167      	adcs	r7, r4
100063e6:	2302      	movs	r3, #2
100063e8:	425b      	negs	r3, r3
100063ea:	469c      	mov	ip, r3
100063ec:	44e0      	add	r8, ip
100063ee:	e7c0      	b.n	10006372 <__wrap_remquo+0x1ca>
100063f0:	9b00      	ldr	r3, [sp, #0]
100063f2:	42b3      	cmp	r3, r6
100063f4:	d9af      	bls.n	10006356 <__wrap_remquo+0x1ae>
100063f6:	2f00      	cmp	r7, #0
100063f8:	dbed      	blt.n	100063d6 <__wrap_remquo+0x22e>
100063fa:	e7ba      	b.n	10006372 <__wrap_remquo+0x1ca>
100063fc:	9b03      	ldr	r3, [sp, #12]
100063fe:	1b80      	subs	r0, r0, r6
10006400:	41b9      	sbcs	r1, r7
10006402:	4699      	mov	r9, r3
10006404:	2301      	movs	r3, #1
10006406:	425b      	negs	r3, r3
10006408:	0006      	movs	r6, r0
1000640a:	000f      	movs	r7, r1
1000640c:	4698      	mov	r8, r3
1000640e:	e778      	b.n	10006302 <__wrap_remquo+0x15a>
10006410:	9b00      	ldr	r3, [sp, #0]
10006412:	42b3      	cmp	r3, r6
10006414:	d9a6      	bls.n	10006364 <__wrap_remquo+0x1bc>
10006416:	2301      	movs	r3, #1
10006418:	469c      	mov	ip, r3
1000641a:	44e0      	add	r8, ip
1000641c:	e7a9      	b.n	10006372 <__wrap_remquo+0x1ca>
1000641e:	2301      	movs	r3, #1
10006420:	425b      	negs	r3, r3
10006422:	469c      	mov	ip, r3
10006424:	44e0      	add	r8, ip
10006426:	e7a4      	b.n	10006372 <__wrap_remquo+0x1ca>
10006428:	000007ff 	.word	0x000007ff
1000642c:	00000433 	.word	0x00000433
10006430:	7ff00000 	.word	0x7ff00000

10006434 <__wrap_remainder>:
10006434:	b510      	push	{r4, lr}
10006436:	2400      	movs	r4, #0
10006438:	b082      	sub	sp, #8
1000643a:	9400      	str	r4, [sp, #0]
1000643c:	f7ff feb4 	bl	100061a8 <__wrap_remquo>
10006440:	b002      	add	sp, #8
10006442:	bd10      	pop	{r4, pc}

10006444 <double_table_shim_on_use_helper>:
10006444:	b507      	push	{r0, r1, r2, lr}
10006446:	4660      	mov	r0, ip
10006448:	8801      	ldrh	r1, [r0, #0]
1000644a:	0a0a      	lsrs	r2, r1, #8
1000644c:	3002      	adds	r0, #2
1000644e:	2adf      	cmp	r2, #223	; 0xdf
10006450:	d1fa      	bne.n	10006448 <double_table_shim_on_use_helper+0x4>
10006452:	b2c9      	uxtb	r1, r1
10006454:	0882      	lsrs	r2, r0, #2
10006456:	d304      	bcc.n	10006462 <double_table_shim_on_use_helper+0x1e>
10006458:	8802      	ldrh	r2, [r0, #0]
1000645a:	8840      	ldrh	r0, [r0, #2]
1000645c:	0400      	lsls	r0, r0, #16
1000645e:	4310      	orrs	r0, r2
10006460:	e000      	b.n	10006464 <double_table_shim_on_use_helper+0x20>
10006462:	6800      	ldr	r0, [r0, #0]
10006464:	4a01      	ldr	r2, [pc, #4]	; (1000646c <double_table_shim_on_use_helper+0x28>)
10006466:	5050      	str	r0, [r2, r1]
10006468:	9003      	str	r0, [sp, #12]
1000646a:	bd07      	pop	{r0, r1, r2, pc}
1000646c:	20003914 	.word	0x20003914

10006470 <drsub_shim>:
10006470:	b40f      	push	{r0, r1, r2, r3}
10006472:	bc03      	pop	{r0, r1}
10006474:	bc0c      	pop	{r2, r3}

10006476 <dsub_shim>:
10006476:	b5f0      	push	{r4, r5, r6, r7, lr}
10006478:	2401      	movs	r4, #1
1000647a:	07e4      	lsls	r4, r4, #31
1000647c:	4063      	eors	r3, r4
1000647e:	e000      	b.n	10006482 <da_entry>

10006480 <dadd_shim>:
10006480:	b5f0      	push	{r4, r5, r6, r7, lr}

10006482 <da_entry>:
10006482:	0d0c      	lsrs	r4, r1, #20
10006484:	0fcf      	lsrs	r7, r1, #31
10006486:	1e66      	subs	r6, r4, #1
10006488:	0536      	lsls	r6, r6, #20
1000648a:	1b89      	subs	r1, r1, r6
1000648c:	0564      	lsls	r4, r4, #21
1000648e:	d303      	bcc.n	10006498 <l7_1>
10006490:	43c9      	mvns	r1, r1
10006492:	4240      	negs	r0, r0
10006494:	d300      	bcc.n	10006498 <l7_1>
10006496:	3101      	adds	r1, #1

10006498 <l7_1>:
10006498:	0d64      	lsrs	r4, r4, #21
1000649a:	d003      	beq.n	100064a4 <l7_2>
1000649c:	1c66      	adds	r6, r4, #1
1000649e:	0af6      	lsrs	r6, r6, #11
100064a0:	d007      	beq.n	100064b2 <l7_3>
100064a2:	1be4      	subs	r4, r4, r7

100064a4 <l7_2>:
100064a4:	2000      	movs	r0, #0
100064a6:	007f      	lsls	r7, r7, #1
100064a8:	1c79      	adds	r1, r7, #1
100064aa:	0789      	lsls	r1, r1, #30
100064ac:	1289      	asrs	r1, r1, #10
100064ae:	3c80      	subs	r4, #128	; 0x80
100064b0:	0324      	lsls	r4, r4, #12

100064b2 <l7_3>:
100064b2:	0d1d      	lsrs	r5, r3, #20
100064b4:	0fdf      	lsrs	r7, r3, #31
100064b6:	1e6e      	subs	r6, r5, #1
100064b8:	0536      	lsls	r6, r6, #20
100064ba:	1b9b      	subs	r3, r3, r6
100064bc:	056d      	lsls	r5, r5, #21
100064be:	d303      	bcc.n	100064c8 <l8_1>
100064c0:	43db      	mvns	r3, r3
100064c2:	4252      	negs	r2, r2
100064c4:	d300      	bcc.n	100064c8 <l8_1>
100064c6:	3301      	adds	r3, #1

100064c8 <l8_1>:
100064c8:	0d6d      	lsrs	r5, r5, #21
100064ca:	d003      	beq.n	100064d4 <l8_2>
100064cc:	1c6e      	adds	r6, r5, #1
100064ce:	0af6      	lsrs	r6, r6, #11
100064d0:	d007      	beq.n	100064e2 <l8_3>
100064d2:	1bed      	subs	r5, r5, r7

100064d4 <l8_2>:
100064d4:	2200      	movs	r2, #0
100064d6:	007f      	lsls	r7, r7, #1
100064d8:	1c7b      	adds	r3, r7, #1
100064da:	079b      	lsls	r3, r3, #30
100064dc:	129b      	asrs	r3, r3, #10
100064de:	3d80      	subs	r5, #128	; 0x80
100064e0:	032d      	lsls	r5, r5, #12

100064e2 <l8_3>:
100064e2:	1b2f      	subs	r7, r5, r4
100064e4:	1b66      	subs	r6, r4, r5
100064e6:	d458      	bmi.n	1000659a <da_ygtx>
100064e8:	46a4      	mov	ip, r4
100064ea:	2e20      	cmp	r6, #32
100064ec:	da46      	bge.n	1000657c <da_xrgty>
100064ee:	3720      	adds	r7, #32
100064f0:	0014      	movs	r4, r2
100064f2:	40bc      	lsls	r4, r7

100064f4 <da_xgty0>:
100064f4:	001d      	movs	r5, r3
100064f6:	40bd      	lsls	r5, r7
100064f8:	40f2      	lsrs	r2, r6
100064fa:	4133      	asrs	r3, r6
100064fc:	432a      	orrs	r2, r5

100064fe <da_add>:
100064fe:	1880      	adds	r0, r0, r2
10006500:	4159      	adcs	r1, r3

10006502 <da_pack>:
10006502:	0fcb      	lsrs	r3, r1, #31
10006504:	d005      	beq.n	10006512 <da_pack+0x10>
10006506:	43c9      	mvns	r1, r1
10006508:	43c0      	mvns	r0, r0
1000650a:	2200      	movs	r2, #0
1000650c:	4264      	negs	r4, r4
1000650e:	4150      	adcs	r0, r2
10006510:	4151      	adcs	r1, r2
10006512:	4662      	mov	r2, ip
10006514:	0d4d      	lsrs	r5, r1, #21
10006516:	d128      	bne.n	1000656a <da_0>
10006518:	0d0d      	lsrs	r5, r1, #20
1000651a:	d107      	bne.n	1000652c <da_1>
1000651c:	2800      	cmp	r0, #0
1000651e:	d01f      	beq.n	10006560 <da_5>

10006520 <da_2>:
10006520:	1924      	adds	r4, r4, r4
10006522:	4140      	adcs	r0, r0
10006524:	4149      	adcs	r1, r1
10006526:	3a01      	subs	r2, #1
10006528:	0d0d      	lsrs	r5, r1, #20
1000652a:	d0f9      	beq.n	10006520 <da_2>

1000652c <da_1>:
1000652c:	0064      	lsls	r4, r4, #1
1000652e:	d306      	bcc.n	1000653e <da_3>

10006530 <da_4>:
10006530:	3001      	adds	r0, #1
10006532:	d300      	bcc.n	10006536 <da_4+0x6>
10006534:	3101      	adds	r1, #1
10006536:	2c00      	cmp	r4, #0
10006538:	d101      	bne.n	1000653e <da_3>
1000653a:	0840      	lsrs	r0, r0, #1
1000653c:	0040      	lsls	r0, r0, #1

1000653e <da_3>:
1000653e:	3a01      	subs	r2, #1
10006540:	d40b      	bmi.n	1000655a <da_6>
10006542:	1c94      	adds	r4, r2, #2
10006544:	0ae4      	lsrs	r4, r4, #11
10006546:	d104      	bne.n	10006552 <da_7>
10006548:	0512      	lsls	r2, r2, #20
1000654a:	4411      	add	r1, r2
1000654c:	07db      	lsls	r3, r3, #31
1000654e:	4419      	add	r1, r3
10006550:	bdf0      	pop	{r4, r5, r6, r7, pc}

10006552 <da_7>:
10006552:	07d9      	lsls	r1, r3, #31
10006554:	4b20      	ldr	r3, [pc, #128]	; (100065d8 <da_xmgty+0x4>)
10006556:	4319      	orrs	r1, r3
10006558:	e000      	b.n	1000655c <da_6+0x2>

1000655a <da_6>:
1000655a:	07d9      	lsls	r1, r3, #31
1000655c:	2000      	movs	r0, #0
1000655e:	bdf0      	pop	{r4, r5, r6, r7, pc}

10006560 <da_5>:
10006560:	2900      	cmp	r1, #0
10006562:	d1dd      	bne.n	10006520 <da_2>
10006564:	2c00      	cmp	r4, #0
10006566:	d1db      	bne.n	10006520 <da_2>
10006568:	bdf0      	pop	{r4, r5, r6, r7, pc}

1000656a <da_0>:
1000656a:	3201      	adds	r2, #1
1000656c:	07c6      	lsls	r6, r0, #31
1000656e:	0840      	lsrs	r0, r0, #1
10006570:	07cd      	lsls	r5, r1, #31
10006572:	4328      	orrs	r0, r5
10006574:	0849      	lsrs	r1, r1, #1
10006576:	2e00      	cmp	r6, #0
10006578:	d0e1      	beq.n	1000653e <da_3>
1000657a:	e7d9      	b.n	10006530 <da_4>

1000657c <da_xrgty>:
1000657c:	2e3c      	cmp	r6, #60	; 0x3c
1000657e:	da29      	bge.n	100065d4 <da_xmgty>
10006580:	3e20      	subs	r6, #32
10006582:	3740      	adds	r7, #64	; 0x40
10006584:	0014      	movs	r4, r2
10006586:	40bc      	lsls	r4, r7
10006588:	d000      	beq.n	1000658c <da_xrgty+0x10>
1000658a:	2401      	movs	r4, #1
1000658c:	40f2      	lsrs	r2, r6
1000658e:	4314      	orrs	r4, r2
10006590:	001a      	movs	r2, r3
10006592:	40bb      	lsls	r3, r7
10006594:	431c      	orrs	r4, r3
10006596:	17d3      	asrs	r3, r2, #31
10006598:	e7ac      	b.n	100064f4 <da_xgty0>

1000659a <da_ygtx>:
1000659a:	46ac      	mov	ip, r5
1000659c:	2f20      	cmp	r7, #32
1000659e:	da08      	bge.n	100065b2 <da_yrgtx>
100065a0:	3620      	adds	r6, #32
100065a2:	0004      	movs	r4, r0
100065a4:	40b4      	lsls	r4, r6

100065a6 <da_ygtx0>:
100065a6:	000d      	movs	r5, r1
100065a8:	40b5      	lsls	r5, r6
100065aa:	40f8      	lsrs	r0, r7
100065ac:	4139      	asrs	r1, r7
100065ae:	4328      	orrs	r0, r5
100065b0:	e7a5      	b.n	100064fe <da_add>

100065b2 <da_yrgtx>:
100065b2:	2f3c      	cmp	r7, #60	; 0x3c
100065b4:	da0c      	bge.n	100065d0 <da_ymgtx>
100065b6:	3f20      	subs	r7, #32
100065b8:	3640      	adds	r6, #64	; 0x40
100065ba:	0004      	movs	r4, r0
100065bc:	40b4      	lsls	r4, r6
100065be:	d000      	beq.n	100065c2 <da_yrgtx+0x10>
100065c0:	2401      	movs	r4, #1
100065c2:	40f8      	lsrs	r0, r7
100065c4:	4304      	orrs	r4, r0
100065c6:	0008      	movs	r0, r1
100065c8:	40b1      	lsls	r1, r6
100065ca:	430c      	orrs	r4, r1
100065cc:	17c1      	asrs	r1, r0, #31
100065ce:	e7ea      	b.n	100065a6 <da_ygtx0>

100065d0 <da_ymgtx>:
100065d0:	0010      	movs	r0, r2
100065d2:	0019      	movs	r1, r3

100065d4 <da_xmgty>:
100065d4:	2400      	movs	r4, #0
100065d6:	e794      	b.n	10006502 <da_pack>
100065d8:	7ff00000 	.word	0x7ff00000

100065dc <dmul_shim>:
100065dc:	b5f0      	push	{r4, r5, r6, r7, lr}
100065de:	0d0c      	lsrs	r4, r1, #20
100065e0:	1e66      	subs	r6, r4, #1
100065e2:	0536      	lsls	r6, r6, #20
100065e4:	1b89      	subs	r1, r1, r6
100065e6:	0ae6      	lsrs	r6, r4, #11
100065e8:	0564      	lsls	r4, r4, #21
100065ea:	0d64      	lsrs	r4, r4, #21
100065ec:	d002      	beq.n	100065f4 <l11_1>
100065ee:	1c65      	adds	r5, r4, #1
100065f0:	0aed      	lsrs	r5, r5, #11
100065f2:	d004      	beq.n	100065fe <l11_2>

100065f4 <l11_1>:
100065f4:	2000      	movs	r0, #0
100065f6:	2101      	movs	r1, #1
100065f8:	0509      	lsls	r1, r1, #20
100065fa:	3c80      	subs	r4, #128	; 0x80
100065fc:	0324      	lsls	r4, r4, #12

100065fe <l11_2>:
100065fe:	46a4      	mov	ip, r4
10006600:	0d1c      	lsrs	r4, r3, #20
10006602:	1e67      	subs	r7, r4, #1
10006604:	053f      	lsls	r7, r7, #20
10006606:	1bdb      	subs	r3, r3, r7
10006608:	0ae7      	lsrs	r7, r4, #11
1000660a:	0564      	lsls	r4, r4, #21
1000660c:	0d64      	lsrs	r4, r4, #21
1000660e:	d002      	beq.n	10006616 <l12_1>
10006610:	1c65      	adds	r5, r4, #1
10006612:	0aed      	lsrs	r5, r5, #11
10006614:	d004      	beq.n	10006620 <l12_2>

10006616 <l12_1>:
10006616:	2200      	movs	r2, #0
10006618:	2301      	movs	r3, #1
1000661a:	051b      	lsls	r3, r3, #20
1000661c:	3c80      	subs	r4, #128	; 0x80
1000661e:	0324      	lsls	r4, r4, #12

10006620 <l12_2>:
10006620:	4077      	eors	r7, r6
10006622:	4464      	add	r4, ip
10006624:	b497      	push	{r0, r1, r2, r4, r7}
10006626:	b284      	uxth	r4, r0
10006628:	b296      	uxth	r6, r2
1000662a:	4374      	muls	r4, r6
1000662c:	0c07      	lsrs	r7, r0, #16
1000662e:	437e      	muls	r6, r7
10006630:	0c15      	lsrs	r5, r2, #16
10006632:	436f      	muls	r7, r5
10006634:	b280      	uxth	r0, r0
10006636:	4368      	muls	r0, r5
10006638:	1836      	adds	r6, r6, r0
1000663a:	d302      	bcc.n	10006642 <l13_1>
1000663c:	2001      	movs	r0, #1
1000663e:	0400      	lsls	r0, r0, #16
10006640:	183f      	adds	r7, r7, r0

10006642 <l13_1>:
10006642:	0430      	lsls	r0, r6, #16
10006644:	0c35      	lsrs	r5, r6, #16
10006646:	1900      	adds	r0, r0, r4
10006648:	417d      	adcs	r5, r7
1000664a:	4684      	mov	ip, r0
1000664c:	b288      	uxth	r0, r1
1000664e:	b29a      	uxth	r2, r3
10006650:	4350      	muls	r0, r2
10006652:	0c0c      	lsrs	r4, r1, #16
10006654:	4362      	muls	r2, r4
10006656:	0c1f      	lsrs	r7, r3, #16
10006658:	437c      	muls	r4, r7
1000665a:	b28e      	uxth	r6, r1
1000665c:	437e      	muls	r6, r7
1000665e:	1992      	adds	r2, r2, r6
10006660:	d302      	bcc.n	10006668 <l14_1>
10006662:	2601      	movs	r6, #1
10006664:	0436      	lsls	r6, r6, #16
10006666:	19a4      	adds	r4, r4, r6

10006668 <l14_1>:
10006668:	0416      	lsls	r6, r2, #16
1000666a:	0c17      	lsrs	r7, r2, #16
1000666c:	1836      	adds	r6, r6, r0
1000666e:	4167      	adcs	r7, r4
10006670:	bc01      	pop	{r0}
10006672:	b281      	uxth	r1, r0
10006674:	b29a      	uxth	r2, r3
10006676:	4351      	muls	r1, r2
10006678:	0c04      	lsrs	r4, r0, #16
1000667a:	4362      	muls	r2, r4
1000667c:	0c1b      	lsrs	r3, r3, #16
1000667e:	435c      	muls	r4, r3
10006680:	b280      	uxth	r0, r0
10006682:	4358      	muls	r0, r3
10006684:	1812      	adds	r2, r2, r0
10006686:	d302      	bcc.n	1000668e <l15_1>
10006688:	2001      	movs	r0, #1
1000668a:	0400      	lsls	r0, r0, #16
1000668c:	1824      	adds	r4, r4, r0

1000668e <l15_1>:
1000668e:	0410      	lsls	r0, r2, #16
10006690:	0c13      	lsrs	r3, r2, #16
10006692:	1840      	adds	r0, r0, r1
10006694:	4163      	adcs	r3, r4
10006696:	182d      	adds	r5, r5, r0
10006698:	415e      	adcs	r6, r3
1000669a:	2000      	movs	r0, #0
1000669c:	4147      	adcs	r7, r0
1000669e:	bc06      	pop	{r1, r2}
100066a0:	b288      	uxth	r0, r1
100066a2:	b293      	uxth	r3, r2
100066a4:	4358      	muls	r0, r3
100066a6:	0c0c      	lsrs	r4, r1, #16
100066a8:	4363      	muls	r3, r4
100066aa:	0c12      	lsrs	r2, r2, #16
100066ac:	4354      	muls	r4, r2
100066ae:	b289      	uxth	r1, r1
100066b0:	4351      	muls	r1, r2
100066b2:	185b      	adds	r3, r3, r1
100066b4:	d302      	bcc.n	100066bc <l16_1>
100066b6:	2101      	movs	r1, #1
100066b8:	0409      	lsls	r1, r1, #16
100066ba:	1864      	adds	r4, r4, r1

100066bc <l16_1>:
100066bc:	0419      	lsls	r1, r3, #16
100066be:	0c1a      	lsrs	r2, r3, #16
100066c0:	1809      	adds	r1, r1, r0
100066c2:	4162      	adcs	r2, r4
100066c4:	186d      	adds	r5, r5, r1
100066c6:	4156      	adcs	r6, r2
100066c8:	2000      	movs	r0, #0
100066ca:	4147      	adcs	r7, r0
100066cc:	bc18      	pop	{r3, r4}
100066ce:	02f9      	lsls	r1, r7, #11
100066d0:	0d72      	lsrs	r2, r6, #21
100066d2:	4311      	orrs	r1, r2
100066d4:	02f0      	lsls	r0, r6, #11
100066d6:	0d6a      	lsrs	r2, r5, #21
100066d8:	4310      	orrs	r0, r2
100066da:	02ed      	lsls	r5, r5, #11
100066dc:	0d0a      	lsrs	r2, r1, #20
100066de:	d103      	bne.n	100066e8 <l16_1+0x2c>
100066e0:	196d      	adds	r5, r5, r5
100066e2:	4140      	adcs	r0, r0
100066e4:	4149      	adcs	r1, r1
100066e6:	3b01      	subs	r3, #1
100066e8:	4e12      	ldr	r6, [pc, #72]	; (10006734 <dm_1+0xa>)
100066ea:	1b9b      	subs	r3, r3, r6
100066ec:	0076      	lsls	r6, r6, #1
100066ee:	42b3      	cmp	r3, r6
100066f0:	d20e      	bcs.n	10006710 <dm_0>
100066f2:	006d      	lsls	r5, r5, #1
100066f4:	d307      	bcc.n	10006706 <l16_1+0x4a>
100066f6:	3001      	adds	r0, #1
100066f8:	2600      	movs	r6, #0
100066fa:	4171      	adcs	r1, r6
100066fc:	4666      	mov	r6, ip
100066fe:	4335      	orrs	r5, r6
10006700:	d101      	bne.n	10006706 <l16_1+0x4a>
10006702:	0840      	lsrs	r0, r0, #1
10006704:	0040      	lsls	r0, r0, #1
10006706:	051b      	lsls	r3, r3, #20
10006708:	18c9      	adds	r1, r1, r3

1000670a <dm_2>:
1000670a:	07e4      	lsls	r4, r4, #31
1000670c:	4421      	add	r1, r4
1000670e:	bdf0      	pop	{r4, r5, r6, r7, pc}

10006710 <dm_0>:
10006710:	da0b      	bge.n	1000672a <dm_1>
10006712:	3301      	adds	r3, #1
10006714:	d106      	bne.n	10006724 <dm_0+0x14>
10006716:	3001      	adds	r0, #1
10006718:	d104      	bne.n	10006724 <dm_0+0x14>
1000671a:	3101      	adds	r1, #1
1000671c:	0d4f      	lsrs	r7, r1, #21
1000671e:	d001      	beq.n	10006724 <dm_0+0x14>
10006720:	0849      	lsrs	r1, r1, #1
10006722:	e7f2      	b.n	1000670a <dm_2>
10006724:	07e1      	lsls	r1, r4, #31
10006726:	2000      	movs	r0, #0
10006728:	bdf0      	pop	{r4, r5, r6, r7, pc}

1000672a <dm_1>:
1000672a:	3601      	adds	r6, #1
1000672c:	0531      	lsls	r1, r6, #20
1000672e:	2000      	movs	r0, #0
10006730:	e7eb      	b.n	1000670a <dm_2>
10006732:	0000      	.short	0x0000
10006734:	000003ff 	.word	0x000003ff

10006738 <ddiv_shim>:
10006738:	b5f0      	push	{r4, r5, r6, r7, lr}

1000673a <ddiv0>:
1000673a:	0d1c      	lsrs	r4, r3, #20
1000673c:	1e67      	subs	r7, r4, #1
1000673e:	053f      	lsls	r7, r7, #20
10006740:	1bdb      	subs	r3, r3, r7
10006742:	0ae7      	lsrs	r7, r4, #11
10006744:	0564      	lsls	r4, r4, #21
10006746:	0d64      	lsrs	r4, r4, #21
10006748:	d002      	beq.n	10006750 <l19_1>
1000674a:	1c66      	adds	r6, r4, #1
1000674c:	0af6      	lsrs	r6, r6, #11
1000674e:	d004      	beq.n	1000675a <l19_2>

10006750 <l19_1>:
10006750:	2200      	movs	r2, #0
10006752:	2301      	movs	r3, #1
10006754:	051b      	lsls	r3, r3, #20
10006756:	3c80      	subs	r4, #128	; 0x80
10006758:	0324      	lsls	r4, r4, #12

1000675a <l19_2>:
1000675a:	25d0      	movs	r5, #208	; 0xd0
1000675c:	062d      	lsls	r5, r5, #24
1000675e:	2600      	movs	r6, #0
10006760:	43f6      	mvns	r6, r6
10006762:	662e      	str	r6, [r5, #96]	; 0x60
10006764:	091e      	lsrs	r6, r3, #4
10006766:	666e      	str	r6, [r5, #100]	; 0x64
10006768:	0fce      	lsrs	r6, r1, #31
1000676a:	19f6      	adds	r6, r6, r7
1000676c:	46b4      	mov	ip, r6
1000676e:	0049      	lsls	r1, r1, #1
10006770:	0d4f      	lsrs	r7, r1, #21
10006772:	d002      	beq.n	1000677a <l19_2+0x20>
10006774:	1c7e      	adds	r6, r7, #1
10006776:	0af6      	lsrs	r6, r6, #11
10006778:	d003      	beq.n	10006782 <l19_2+0x28>
1000677a:	2000      	movs	r0, #0
1000677c:	2100      	movs	r1, #0
1000677e:	3f40      	subs	r7, #64	; 0x40
10006780:	033f      	lsls	r7, r7, #12
10006782:	1b3e      	subs	r6, r7, r4
10006784:	00b6      	lsls	r6, r6, #2
10006786:	44b4      	add	ip, r6
10006788:	3f01      	subs	r7, #1
1000678a:	057f      	lsls	r7, r7, #21
1000678c:	1bc9      	subs	r1, r1, r7
1000678e:	0849      	lsrs	r1, r1, #1
10006790:	6f2e      	ldr	r6, [r5, #112]	; 0x70
10006792:	3601      	adds	r6, #1
10006794:	0876      	lsrs	r6, r6, #1
10006796:	029c      	lsls	r4, r3, #10
10006798:	0d95      	lsrs	r5, r2, #22
1000679a:	4325      	orrs	r5, r4
1000679c:	4375      	muls	r5, r6
1000679e:	13ed      	asrs	r5, r5, #15
100067a0:	4375      	muls	r5, r6
100067a2:	13ad      	asrs	r5, r5, #14
100067a4:	3501      	adds	r5, #1
100067a6:	106d      	asrs	r5, r5, #1
100067a8:	03f6      	lsls	r6, r6, #15
100067aa:	1b76      	subs	r6, r6, r5
100067ac:	b40c      	push	{r2, r3}
100067ae:	02cc      	lsls	r4, r1, #11
100067b0:	0d45      	lsrs	r5, r0, #21
100067b2:	432c      	orrs	r4, r5
100067b4:	b2a2      	uxth	r2, r4
100067b6:	b2b3      	uxth	r3, r6
100067b8:	435a      	muls	r2, r3
100067ba:	0c27      	lsrs	r7, r4, #16
100067bc:	437b      	muls	r3, r7
100067be:	0c35      	lsrs	r5, r6, #16
100067c0:	436f      	muls	r7, r5
100067c2:	b2a4      	uxth	r4, r4
100067c4:	436c      	muls	r4, r5
100067c6:	191b      	adds	r3, r3, r4
100067c8:	d302      	bcc.n	100067d0 <l20_1>
100067ca:	2401      	movs	r4, #1
100067cc:	0424      	lsls	r4, r4, #16
100067ce:	193f      	adds	r7, r7, r4

100067d0 <l20_1>:
100067d0:	041c      	lsls	r4, r3, #16
100067d2:	0c1d      	lsrs	r5, r3, #16
100067d4:	18a4      	adds	r4, r4, r2
100067d6:	417d      	adcs	r5, r7
100067d8:	1924      	adds	r4, r4, r4
100067da:	416d      	adcs	r5, r5
100067dc:	9a00      	ldr	r2, [sp, #0]
100067de:	b291      	uxth	r1, r2
100067e0:	b2ac      	uxth	r4, r5
100067e2:	4361      	muls	r1, r4
100067e4:	0c17      	lsrs	r7, r2, #16
100067e6:	437c      	muls	r4, r7
100067e8:	0c2b      	lsrs	r3, r5, #16
100067ea:	435f      	muls	r7, r3
100067ec:	b292      	uxth	r2, r2
100067ee:	435a      	muls	r2, r3
100067f0:	18a4      	adds	r4, r4, r2
100067f2:	d302      	bcc.n	100067fa <l21_1>
100067f4:	2201      	movs	r2, #1
100067f6:	0412      	lsls	r2, r2, #16
100067f8:	18bf      	adds	r7, r7, r2

100067fa <l21_1>:
100067fa:	0422      	lsls	r2, r4, #16
100067fc:	0c23      	lsrs	r3, r4, #16
100067fe:	1852      	adds	r2, r2, r1
10006800:	417b      	adcs	r3, r7
10006802:	9c01      	ldr	r4, [sp, #4]
10006804:	436c      	muls	r4, r5
10006806:	191b      	adds	r3, r3, r4
10006808:	0e52      	lsrs	r2, r2, #25
1000680a:	01d9      	lsls	r1, r3, #7
1000680c:	430a      	orrs	r2, r1
1000680e:	0144      	lsls	r4, r0, #5
10006810:	1aa0      	subs	r0, r4, r2
10006812:	b281      	uxth	r1, r0
10006814:	b2b2      	uxth	r2, r6
10006816:	4351      	muls	r1, r2
10006818:	1403      	asrs	r3, r0, #16
1000681a:	435a      	muls	r2, r3
1000681c:	0c36      	lsrs	r6, r6, #16
1000681e:	4373      	muls	r3, r6
10006820:	b287      	uxth	r7, r0
10006822:	4377      	muls	r7, r6
10006824:	17d6      	asrs	r6, r2, #31
10006826:	19d2      	adds	r2, r2, r7
10006828:	2700      	movs	r7, #0
1000682a:	417e      	adcs	r6, r7
1000682c:	0436      	lsls	r6, r6, #16
1000682e:	199b      	adds	r3, r3, r6
10006830:	0417      	lsls	r7, r2, #16
10006832:	0c16      	lsrs	r6, r2, #16
10006834:	187f      	adds	r7, r7, r1
10006836:	415e      	adcs	r6, r3
10006838:	1673      	asrs	r3, r6, #25
1000683a:	18ed      	adds	r5, r5, r3
1000683c:	01f3      	lsls	r3, r6, #7
1000683e:	2600      	movs	r6, #0
10006840:	3380      	adds	r3, #128	; 0x80
10006842:	4175      	adcs	r5, r6
10006844:	0fa9      	lsrs	r1, r5, #30
10006846:	d106      	bne.n	10006856 <dd_0>
10006848:	0064      	lsls	r4, r4, #1
1000684a:	0a69      	lsrs	r1, r5, #9
1000684c:	05e8      	lsls	r0, r5, #23
1000684e:	0a5b      	lsrs	r3, r3, #9
10006850:	4318      	orrs	r0, r3
10006852:	d209      	bcs.n	10006868 <dd_1>
10006854:	e02f      	b.n	100068b6 <dd_2>

10006856 <dd_0>:
10006856:	2204      	movs	r2, #4
10006858:	4494      	add	ip, r2
1000685a:	3380      	adds	r3, #128	; 0x80
1000685c:	4175      	adcs	r5, r6
1000685e:	0aa9      	lsrs	r1, r5, #10
10006860:	05a8      	lsls	r0, r5, #22
10006862:	0a9b      	lsrs	r3, r3, #10
10006864:	4318      	orrs	r0, r3
10006866:	d326      	bcc.n	100068b6 <dd_2>

10006868 <dd_1>:
10006868:	4140      	adcs	r0, r0
1000686a:	4149      	adcs	r1, r1
1000686c:	0424      	lsls	r4, r4, #16
1000686e:	9a00      	ldr	r2, [sp, #0]
10006870:	9b01      	ldr	r3, [sp, #4]
10006872:	000d      	movs	r5, r1
10006874:	4355      	muls	r5, r2
10006876:	1b64      	subs	r4, r4, r5
10006878:	4343      	muls	r3, r0
1000687a:	1ae4      	subs	r4, r4, r3
1000687c:	b295      	uxth	r5, r2
1000687e:	b286      	uxth	r6, r0
10006880:	4375      	muls	r5, r6
10006882:	0c17      	lsrs	r7, r2, #16
10006884:	437e      	muls	r6, r7
10006886:	0c03      	lsrs	r3, r0, #16
10006888:	435f      	muls	r7, r3
1000688a:	b292      	uxth	r2, r2
1000688c:	435a      	muls	r2, r3
1000688e:	18b6      	adds	r6, r6, r2
10006890:	d302      	bcc.n	10006898 <l23_1>
10006892:	2201      	movs	r2, #1
10006894:	0412      	lsls	r2, r2, #16
10006896:	18bf      	adds	r7, r7, r2

10006898 <l23_1>:
10006898:	0432      	lsls	r2, r6, #16
1000689a:	0c33      	lsrs	r3, r6, #16
1000689c:	1952      	adds	r2, r2, r5
1000689e:	417b      	adcs	r3, r7
100068a0:	4252      	negs	r2, r2
100068a2:	419c      	sbcs	r4, r3
100068a4:	2c00      	cmp	r4, #0
100068a6:	d402      	bmi.n	100068ae <l23_1+0x16>
100068a8:	2200      	movs	r2, #0
100068aa:	3001      	adds	r0, #1
100068ac:	4151      	adcs	r1, r2
100068ae:	0840      	lsrs	r0, r0, #1
100068b0:	07ca      	lsls	r2, r1, #31
100068b2:	4310      	orrs	r0, r2
100068b4:	0849      	lsrs	r1, r1, #1

100068b6 <dd_2>:
100068b6:	b002      	add	sp, #8
100068b8:	4662      	mov	r2, ip
100068ba:	07d7      	lsls	r7, r2, #31
100068bc:	1092      	asrs	r2, r2, #2
100068be:	4b08      	ldr	r3, [pc, #32]	; (100068e0 <dd_4+0x6>)
100068c0:	18d2      	adds	r2, r2, r3
100068c2:	4b08      	ldr	r3, [pc, #32]	; (100068e4 <dd_4+0xa>)
100068c4:	429a      	cmp	r2, r3
100068c6:	d203      	bcs.n	100068d0 <dd_3>
100068c8:	0512      	lsls	r2, r2, #20
100068ca:	1889      	adds	r1, r1, r2

100068cc <dd_5>:
100068cc:	19c9      	adds	r1, r1, r7
100068ce:	bdf0      	pop	{r4, r5, r6, r7, pc}

100068d0 <dd_3>:
100068d0:	2000      	movs	r0, #0
100068d2:	2a00      	cmp	r2, #0
100068d4:	dc01      	bgt.n	100068da <dd_4>
100068d6:	0039      	movs	r1, r7
100068d8:	bdf0      	pop	{r4, r5, r6, r7, pc}

100068da <dd_4>:
100068da:	3301      	adds	r3, #1
100068dc:	0519      	lsls	r1, r3, #20
100068de:	e7f5      	b.n	100068cc <dd_5>
100068e0:	000003fd 	.word	0x000003fd
100068e4:	000007fe 	.word	0x000007fe

100068e8 <dcordic_vec_step>:
100068e8:	4662      	mov	r2, ip
100068ea:	ca18      	ldmia	r2!, {r3, r4}
100068ec:	4694      	mov	ip, r2
100068ee:	465a      	mov	r2, fp
100068f0:	2a00      	cmp	r2, #0
100068f2:	db20      	blt.n	10006936 <dcordic_rot_step+0x40>
100068f4:	e004      	b.n	10006900 <dcordic_rot_step+0xa>

100068f6 <dcordic_rot_step>:
100068f6:	4662      	mov	r2, ip
100068f8:	ca18      	ldmia	r2!, {r3, r4}
100068fa:	4694      	mov	ip, r2
100068fc:	2900      	cmp	r1, #0
100068fe:	da1a      	bge.n	10006936 <dcordic_rot_step+0x40>
10006900:	18c0      	adds	r0, r0, r3
10006902:	4161      	adcs	r1, r4
10006904:	465b      	mov	r3, fp
10006906:	413b      	asrs	r3, r7
10006908:	465c      	mov	r4, fp
1000690a:	40b4      	lsls	r4, r6
1000690c:	4652      	mov	r2, sl
1000690e:	40fa      	lsrs	r2, r7
10006910:	4322      	orrs	r2, r4
10006912:	4644      	mov	r4, r8
10006914:	464d      	mov	r5, r9
10006916:	4162      	adcs	r2, r4
10006918:	416b      	adcs	r3, r5
1000691a:	4690      	mov	r8, r2
1000691c:	4699      	mov	r9, r3
1000691e:	462b      	mov	r3, r5
10006920:	40b3      	lsls	r3, r6
10006922:	413d      	asrs	r5, r7
10006924:	40fc      	lsrs	r4, r7
10006926:	431c      	orrs	r4, r3
10006928:	4652      	mov	r2, sl
1000692a:	465b      	mov	r3, fp
1000692c:	41a2      	sbcs	r2, r4
1000692e:	41ab      	sbcs	r3, r5
10006930:	4692      	mov	sl, r2
10006932:	469b      	mov	fp, r3
10006934:	4770      	bx	lr
10006936:	1ac0      	subs	r0, r0, r3
10006938:	41a1      	sbcs	r1, r4
1000693a:	464b      	mov	r3, r9
1000693c:	413b      	asrs	r3, r7
1000693e:	464c      	mov	r4, r9
10006940:	40b4      	lsls	r4, r6
10006942:	4642      	mov	r2, r8
10006944:	40fa      	lsrs	r2, r7
10006946:	4322      	orrs	r2, r4
10006948:	4654      	mov	r4, sl
1000694a:	465d      	mov	r5, fp
1000694c:	4162      	adcs	r2, r4
1000694e:	416b      	adcs	r3, r5
10006950:	4692      	mov	sl, r2
10006952:	469b      	mov	fp, r3
10006954:	462b      	mov	r3, r5
10006956:	40b3      	lsls	r3, r6
10006958:	413d      	asrs	r5, r7
1000695a:	40fc      	lsrs	r4, r7
1000695c:	431c      	orrs	r4, r3
1000695e:	4642      	mov	r2, r8
10006960:	464b      	mov	r3, r9
10006962:	41a2      	sbcs	r2, r4
10006964:	41ab      	sbcs	r3, r5
10006966:	4690      	mov	r8, r2
10006968:	4699      	mov	r9, r3
1000696a:	4770      	bx	lr

1000696c <ret_dzero>:
1000696c:	2000      	movs	r0, #0
1000696e:	2100      	movs	r1, #0
10006970:	4770      	bx	lr

10006972 <double2uint_shim>:
10006972:	2200      	movs	r2, #0

10006974 <double2ufix_shim>:
10006974:	b500      	push	{lr}
10006976:	3220      	adds	r2, #32
10006978:	f000 f811 	bl	1000699e <double2ufix64_shim>
1000697c:	0008      	movs	r0, r1
1000697e:	bd00      	pop	{pc}

10006980 <double2int64_shim>:
10006980:	2200      	movs	r2, #0

10006982 <double2fix64_shim>:
10006982:	b500      	push	{lr}
10006984:	f000 f80d 	bl	100069a2 <d2fix>
10006988:	17ca      	asrs	r2, r1, #31
1000698a:	429a      	cmp	r2, r3
1000698c:	d100      	bne.n	10006990 <double2fix64_shim+0xe>
1000698e:	bd00      	pop	{pc}
10006990:	43d8      	mvns	r0, r3
10006992:	2101      	movs	r1, #1
10006994:	07c9      	lsls	r1, r1, #31
10006996:	4041      	eors	r1, r0
10006998:	bd00      	pop	{pc}
	...

1000699c <double2uint64_shim>:
1000699c:	2200      	movs	r2, #0

1000699e <double2ufix64_shim>:
1000699e:	150b      	asrs	r3, r1, #20
100069a0:	d4e4      	bmi.n	1000696c <ret_dzero>

100069a2 <d2fix>:
100069a2:	b510      	push	{r4, lr}
100069a4:	4694      	mov	ip, r2
100069a6:	f000 f8a5 	bl	10006af4 <dunpacks>
100069aa:	1414      	asrs	r4, r2, #16
100069ac:	3401      	adds	r4, #1
100069ae:	da00      	bge.n	100069b2 <d2fix+0x10>
100069b0:	2100      	movs	r1, #0
100069b2:	17cb      	asrs	r3, r1, #31
100069b4:	4c13      	ldr	r4, [pc, #76]	; (10006a04 <d2fix_a+0x4c>)
100069b6:	4720      	bx	r4

100069b8 <d2fix_a>:
100069b8:	4462      	add	r2, ip
100069ba:	3a34      	subs	r2, #52	; 0x34
100069bc:	d40c      	bmi.n	100069d8 <d2fix_a+0x20>
100069be:	2a0c      	cmp	r2, #12
100069c0:	da07      	bge.n	100069d2 <d2fix_a+0x1a>
100069c2:	0004      	movs	r4, r0
100069c4:	4091      	lsls	r1, r2
100069c6:	4090      	lsls	r0, r2
100069c8:	4252      	negs	r2, r2
100069ca:	3220      	adds	r2, #32
100069cc:	40d4      	lsrs	r4, r2
100069ce:	4321      	orrs	r1, r4
100069d0:	bd10      	pop	{r4, pc}
100069d2:	43d8      	mvns	r0, r3
100069d4:	43d9      	mvns	r1, r3
100069d6:	bd10      	pop	{r4, pc}
100069d8:	3220      	adds	r2, #32
100069da:	d407      	bmi.n	100069ec <d2fix_a+0x34>
100069dc:	460c      	mov	r4, r1
100069de:	4094      	lsls	r4, r2
100069e0:	4252      	negs	r2, r2
100069e2:	3220      	adds	r2, #32
100069e4:	4111      	asrs	r1, r2
100069e6:	40d0      	lsrs	r0, r2
100069e8:	4320      	orrs	r0, r4
100069ea:	bd10      	pop	{r4, pc}
100069ec:	0008      	movs	r0, r1
100069ee:	17c9      	asrs	r1, r1, #31
100069f0:	3220      	adds	r2, #32
100069f2:	d403      	bmi.n	100069fc <d2fix_a+0x44>
100069f4:	4252      	negs	r2, r2
100069f6:	3220      	adds	r2, #32
100069f8:	4110      	asrs	r0, r2
100069fa:	bd10      	pop	{r4, pc}
100069fc:	0018      	movs	r0, r3
100069fe:	0019      	movs	r1, r3
10006a00:	bd10      	pop	{r4, pc}
10006a02:	0000      	.short	0x0000
10006a04:	100069b9 	.word	0x100069b9

10006a08 <double2float_shim>:
10006a08:	004a      	lsls	r2, r1, #1
10006a0a:	0d52      	lsrs	r2, r2, #21
10006a0c:	4b14      	ldr	r3, [pc, #80]	; (10006a60 <double2float_shim+0x58>)
10006a0e:	1ad2      	subs	r2, r2, r3
10006a10:	dd13      	ble.n	10006a3a <double2float_shim+0x32>
10006a12:	2aff      	cmp	r2, #255	; 0xff
10006a14:	da1e      	bge.n	10006a54 <double2float_shim+0x4c>
10006a16:	05d2      	lsls	r2, r2, #23
10006a18:	0fcb      	lsrs	r3, r1, #31
10006a1a:	07db      	lsls	r3, r3, #31
10006a1c:	431a      	orrs	r2, r3
10006a1e:	00c3      	lsls	r3, r0, #3
10006a20:	0f40      	lsrs	r0, r0, #29
10006a22:	0309      	lsls	r1, r1, #12
10006a24:	0a49      	lsrs	r1, r1, #9
10006a26:	4308      	orrs	r0, r1
10006a28:	4310      	orrs	r0, r2
10006a2a:	005b      	lsls	r3, r3, #1
10006a2c:	d301      	bcc.n	10006a32 <double2float_shim+0x2a>
10006a2e:	d001      	beq.n	10006a34 <double2float_shim+0x2c>
10006a30:	3001      	adds	r0, #1
10006a32:	4770      	bx	lr
10006a34:	0843      	lsrs	r3, r0, #1
10006a36:	d2fb      	bcs.n	10006a30 <double2float_shim+0x28>
10006a38:	4770      	bx	lr
10006a3a:	d002      	beq.n	10006a42 <double2float_shim+0x3a>
10006a3c:	0fc8      	lsrs	r0, r1, #31
10006a3e:	07c0      	lsls	r0, r0, #31
10006a40:	4770      	bx	lr
10006a42:	030a      	lsls	r2, r1, #12
10006a44:	1312      	asrs	r2, r2, #12
10006a46:	3201      	adds	r2, #1
10006a48:	d1f8      	bne.n	10006a3c <double2float_shim+0x34>
10006a4a:	0f42      	lsrs	r2, r0, #29
10006a4c:	2a07      	cmp	r2, #7
10006a4e:	d1f5      	bne.n	10006a3c <double2float_shim+0x34>
10006a50:	2201      	movs	r2, #1
10006a52:	e000      	b.n	10006a56 <double2float_shim+0x4e>
10006a54:	22ff      	movs	r2, #255	; 0xff
10006a56:	0fc8      	lsrs	r0, r1, #31
10006a58:	0200      	lsls	r0, r0, #8
10006a5a:	1880      	adds	r0, r0, r2
10006a5c:	05c0      	lsls	r0, r0, #23
10006a5e:	4770      	bx	lr
10006a60:	00000380 	.word	0x00000380

10006a64 <uint2double_shim>:
10006a64:	2100      	movs	r1, #0

10006a66 <ufix2double_shim>:
10006a66:	000a      	movs	r2, r1
10006a68:	2100      	movs	r1, #0
10006a6a:	e004      	b.n	10006a76 <ufix642double_shim>

10006a6c <int2double_shim>:
10006a6c:	2100      	movs	r1, #0

10006a6e <fix2double_shim>:
10006a6e:	000a      	movs	r2, r1
10006a70:	17c1      	asrs	r1, r0, #31
10006a72:	e004      	b.n	10006a7e <fix642double_shim>

10006a74 <uint642double_shim>:
10006a74:	2200      	movs	r2, #0

10006a76 <ufix642double_shim>:
10006a76:	2300      	movs	r3, #0
10006a78:	e006      	b.n	10006a88 <uf2d>
10006a7a:	46c0      	nop			; (mov r8, r8)

10006a7c <int642double_shim>:
10006a7c:	2200      	movs	r2, #0

10006a7e <fix642double_shim>:
10006a7e:	17cb      	asrs	r3, r1, #31
10006a80:	4058      	eors	r0, r3
10006a82:	4059      	eors	r1, r3
10006a84:	1ac0      	subs	r0, r0, r3
10006a86:	4199      	sbcs	r1, r3

10006a88 <uf2d>:
10006a88:	b530      	push	{r4, r5, lr}
10006a8a:	4c18      	ldr	r4, [pc, #96]	; (10006aec <uf2d+0x64>)
10006a8c:	1aa2      	subs	r2, r4, r2
10006a8e:	2900      	cmp	r1, #0
10006a90:	d103      	bne.n	10006a9a <uf2d+0x12>
10006a92:	0001      	movs	r1, r0
10006a94:	d010      	beq.n	10006ab8 <uf2d+0x30>
10006a96:	2000      	movs	r0, #0
10006a98:	3a20      	subs	r2, #32
10006a9a:	154c      	asrs	r4, r1, #21
10006a9c:	d112      	bne.n	10006ac4 <uf2d+0x3c>
10006a9e:	d204      	bcs.n	10006aaa <uf2d+0x22>
10006aa0:	3a01      	subs	r2, #1
10006aa2:	1800      	adds	r0, r0, r0
10006aa4:	4149      	adcs	r1, r1
10006aa6:	0d4c      	lsrs	r4, r1, #21
10006aa8:	d3fa      	bcc.n	10006aa0 <uf2d+0x18>
10006aaa:	4c11      	ldr	r4, [pc, #68]	; (10006af0 <uf2d+0x68>)
10006aac:	42a2      	cmp	r2, r4
10006aae:	d204      	bcs.n	10006aba <uf2d+0x32>
10006ab0:	0512      	lsls	r2, r2, #20
10006ab2:	1889      	adds	r1, r1, r2
10006ab4:	07db      	lsls	r3, r3, #31
10006ab6:	18c9      	adds	r1, r1, r3
10006ab8:	bd30      	pop	{r4, r5, pc}
10006aba:	43d2      	mvns	r2, r2
10006abc:	0d52      	lsrs	r2, r2, #21
10006abe:	2000      	movs	r0, #0
10006ac0:	2100      	movs	r1, #0
10006ac2:	e7f5      	b.n	10006ab0 <uf2d+0x28>
10006ac4:	d403      	bmi.n	10006ace <uf2d+0x46>
10006ac6:	3a01      	subs	r2, #1
10006ac8:	1800      	adds	r0, r0, r0
10006aca:	4149      	adcs	r1, r1
10006acc:	d5fb      	bpl.n	10006ac6 <uf2d+0x3e>
10006ace:	320b      	adds	r2, #11
10006ad0:	0544      	lsls	r4, r0, #21
10006ad2:	0ac0      	lsrs	r0, r0, #11
10006ad4:	054d      	lsls	r5, r1, #21
10006ad6:	4328      	orrs	r0, r5
10006ad8:	0ac9      	lsrs	r1, r1, #11
10006ada:	0064      	lsls	r4, r4, #1
10006adc:	d003      	beq.n	10006ae6 <uf2d+0x5e>
10006ade:	2400      	movs	r4, #0
10006ae0:	4160      	adcs	r0, r4
10006ae2:	4161      	adcs	r1, r4
10006ae4:	e7e1      	b.n	10006aaa <uf2d+0x22>
10006ae6:	d3e0      	bcc.n	10006aaa <uf2d+0x22>
10006ae8:	0844      	lsrs	r4, r0, #1
10006aea:	e7f8      	b.n	10006ade <uf2d+0x56>
10006aec:	00000432 	.word	0x00000432
10006af0:	000007fe 	.word	0x000007fe

10006af4 <dunpacks>:
10006af4:	0d0a      	lsrs	r2, r1, #20
10006af6:	0fcc      	lsrs	r4, r1, #31
10006af8:	1e53      	subs	r3, r2, #1
10006afa:	051b      	lsls	r3, r3, #20
10006afc:	1ac9      	subs	r1, r1, r3
10006afe:	0552      	lsls	r2, r2, #21
10006b00:	d303      	bcc.n	10006b0a <l60_1>
10006b02:	43c9      	mvns	r1, r1
10006b04:	4240      	negs	r0, r0
10006b06:	d300      	bcc.n	10006b0a <l60_1>
10006b08:	3101      	adds	r1, #1

10006b0a <l60_1>:
10006b0a:	0d52      	lsrs	r2, r2, #21
10006b0c:	d003      	beq.n	10006b16 <l60_2>
10006b0e:	1c53      	adds	r3, r2, #1
10006b10:	0adb      	lsrs	r3, r3, #11
10006b12:	d007      	beq.n	10006b24 <l60_3>
10006b14:	1b12      	subs	r2, r2, r4

10006b16 <l60_2>:
10006b16:	2000      	movs	r0, #0
10006b18:	0064      	lsls	r4, r4, #1
10006b1a:	1c61      	adds	r1, r4, #1
10006b1c:	0789      	lsls	r1, r1, #30
10006b1e:	1289      	asrs	r1, r1, #10
10006b20:	3a80      	subs	r2, #128	; 0x80
10006b22:	0312      	lsls	r2, r2, #12

10006b24 <l60_3>:
10006b24:	4b01      	ldr	r3, [pc, #4]	; (10006b2c <l60_3+0x8>)
10006b26:	1ad2      	subs	r2, r2, r3
10006b28:	4770      	bx	lr
10006b2a:	0000      	.short	0x0000
10006b2c:	000003ff 	.word	0x000003ff

10006b30 <dreduce>:
10006b30:	3202      	adds	r2, #2
10006b32:	d425      	bmi.n	10006b80 <dreduce+0x50>
10006b34:	2a0c      	cmp	r2, #12
10006b36:	da1c      	bge.n	10006b72 <dreduce+0x42>
10006b38:	2511      	movs	r5, #17
10006b3a:	1aad      	subs	r5, r5, r2
10006b3c:	000b      	movs	r3, r1
10006b3e:	412b      	asrs	r3, r5
10006b40:	3208      	adds	r2, #8
10006b42:	3507      	adds	r5, #7
10006b44:	0006      	movs	r6, r0
10006b46:	40ee      	lsrs	r6, r5
10006b48:	4090      	lsls	r0, r2
10006b4a:	4091      	lsls	r1, r2
10006b4c:	4331      	orrs	r1, r6
10006b4e:	ccf0      	ldmia	r4, {r4, r5, r6, r7}
10006b50:	4363      	muls	r3, r4
10006b52:	151a      	asrs	r2, r3, #20
10006b54:	2300      	movs	r3, #0
10006b56:	415a      	adcs	r2, r3
10006b58:	4355      	muls	r5, r2
10006b5a:	4356      	muls	r6, r2
10006b5c:	4357      	muls	r7, r2
10006b5e:	02bf      	lsls	r7, r7, #10
10006b60:	12f4      	asrs	r4, r6, #11
10006b62:	0576      	lsls	r6, r6, #21
10006b64:	1976      	adds	r6, r6, r5
10006b66:	4167      	adcs	r7, r4
10006b68:	17ed      	asrs	r5, r5, #31
10006b6a:	197f      	adds	r7, r7, r5
10006b6c:	1b80      	subs	r0, r0, r6
10006b6e:	41b9      	sbcs	r1, r7
10006b70:	4770      	bx	lr
10006b72:	220c      	movs	r2, #12
10006b74:	2000      	movs	r0, #0
10006b76:	17c9      	asrs	r1, r1, #31
10006b78:	0049      	lsls	r1, r1, #1
10006b7a:	3101      	adds	r1, #1
10006b7c:	0509      	lsls	r1, r1, #20
10006b7e:	e7db      	b.n	10006b38 <dreduce+0x8>
10006b80:	0209      	lsls	r1, r1, #8
10006b82:	0e03      	lsrs	r3, r0, #24
10006b84:	4319      	orrs	r1, r3
10006b86:	0200      	lsls	r0, r0, #8
10006b88:	4253      	negs	r3, r2
10006b8a:	3220      	adds	r2, #32
10006b8c:	d408      	bmi.n	10006ba0 <dreduce+0x70>
10006b8e:	000c      	movs	r4, r1
10006b90:	4119      	asrs	r1, r3
10006b92:	4094      	lsls	r4, r2
10006b94:	40d8      	lsrs	r0, r3
10006b96:	4320      	orrs	r0, r4
10006b98:	2200      	movs	r2, #0
10006b9a:	4150      	adcs	r0, r2
10006b9c:	4151      	adcs	r1, r2
10006b9e:	4770      	bx	lr
10006ba0:	0008      	movs	r0, r1
10006ba2:	17c9      	asrs	r1, r1, #31
10006ba4:	3b20      	subs	r3, #32
10006ba6:	3220      	adds	r2, #32
10006ba8:	d5f1      	bpl.n	10006b8e <dreduce+0x5e>
10006baa:	2000      	movs	r0, #0
10006bac:	2100      	movs	r1, #0
10006bae:	2200      	movs	r2, #0
10006bb0:	4770      	bx	lr

10006bb2 <dcos_shim>:
10006bb2:	b5f0      	push	{r4, r5, r6, r7, lr}
10006bb4:	f7ff f972 	bl	10005e9c <push_r8_r11>
10006bb8:	f000 f80e 	bl	10006bd8 <dsincos_internal>
10006bbc:	f000 f830 	bl	10006c20 <dcos_finish>
10006bc0:	e006      	b.n	10006bd0 <dsin_shim+0xe>

10006bc2 <dsin_shim>:
10006bc2:	b5f0      	push	{r4, r5, r6, r7, lr}
10006bc4:	f7ff f96a 	bl	10005e9c <push_r8_r11>
10006bc8:	f000 f806 	bl	10006bd8 <dsincos_internal>
10006bcc:	f000 f846 	bl	10006c5c <dsin_finish>
10006bd0:	f7ff f96a 	bl	10005ea8 <pop_r8_r11>
10006bd4:	bdf0      	pop	{r4, r5, r6, r7, pc}
	...

10006bd8 <dsincos_internal>:
10006bd8:	b500      	push	{lr}
10006bda:	f7ff ff8b 	bl	10006af4 <dunpacks>
10006bde:	a430      	add	r4, pc, #192	; (adr r4, 10006ca0 <dreddata0>)
10006be0:	f7ff ffa6 	bl	10006b30 <dreduce>
10006be4:	2400      	movs	r4, #0
10006be6:	4d2c      	ldr	r5, [pc, #176]	; (10006c98 <l73_1+0x20>)
10006be8:	4e2c      	ldr	r6, [pc, #176]	; (10006c9c <l73_1+0x24>)
10006bea:	07d2      	lsls	r2, r2, #31
10006bec:	d302      	bcc.n	10006bf4 <dsincos_internal+0x1c>
10006bee:	43f6      	mvns	r6, r6
10006bf0:	426d      	negs	r5, r5
10006bf2:	4166      	adcs	r6, r4
10006bf4:	0052      	lsls	r2, r2, #1
10006bf6:	d204      	bcs.n	10006c02 <dsincos_internal+0x2a>
10006bf8:	46a2      	mov	sl, r4
10006bfa:	46a3      	mov	fp, r4
10006bfc:	46a8      	mov	r8, r5
10006bfe:	46b1      	mov	r9, r6
10006c00:	e003      	b.n	10006c0a <dsincos_internal+0x32>
10006c02:	46a0      	mov	r8, r4
10006c04:	46a1      	mov	r9, r4
10006c06:	46aa      	mov	sl, r5
10006c08:	46b3      	mov	fp, r6
10006c0a:	a46e      	add	r4, pc, #440	; (adr r4, 10006dc4 <dtab_cc>)
10006c0c:	46a4      	mov	ip, r4
10006c0e:	2701      	movs	r7, #1
10006c10:	261f      	movs	r6, #31
10006c12:	f7ff fe70 	bl	100068f6 <dcordic_rot_step>
10006c16:	3701      	adds	r7, #1
10006c18:	3e01      	subs	r6, #1
10006c1a:	2f21      	cmp	r7, #33	; 0x21
10006c1c:	d1f9      	bne.n	10006c12 <dsincos_internal+0x3a>
10006c1e:	bd00      	pop	{pc}

10006c20 <dcos_finish>:
10006c20:	4659      	mov	r1, fp
10006c22:	b284      	uxth	r4, r0
10006c24:	b28d      	uxth	r5, r1
10006c26:	436c      	muls	r4, r5
10006c28:	1406      	asrs	r6, r0, #16
10006c2a:	4375      	muls	r5, r6
10006c2c:	140b      	asrs	r3, r1, #16
10006c2e:	435e      	muls	r6, r3
10006c30:	b282      	uxth	r2, r0
10006c32:	435a      	muls	r2, r3
10006c34:	18ad      	adds	r5, r5, r2
10006c36:	17ea      	asrs	r2, r5, #31
10006c38:	d700      	bvc.n	10006c3c <l72_1>
10006c3a:	43d2      	mvns	r2, r2

10006c3c <l72_1>:
10006c3c:	0412      	lsls	r2, r2, #16
10006c3e:	18b6      	adds	r6, r6, r2
10006c40:	042a      	lsls	r2, r5, #16
10006c42:	0c2b      	lsrs	r3, r5, #16
10006c44:	1912      	adds	r2, r2, r4
10006c46:	4173      	adcs	r3, r6
10006c48:	4640      	mov	r0, r8
10006c4a:	4649      	mov	r1, r9
10006c4c:	009d      	lsls	r5, r3, #2
10006c4e:	179b      	asrs	r3, r3, #30
10006c50:	0f92      	lsrs	r2, r2, #30
10006c52:	432a      	orrs	r2, r5
10006c54:	4190      	sbcs	r0, r2
10006c56:	4199      	sbcs	r1, r3
10006c58:	223e      	movs	r2, #62	; 0x3e
10006c5a:	e710      	b.n	10006a7e <fix642double_shim>

10006c5c <dsin_finish>:
10006c5c:	4649      	mov	r1, r9
10006c5e:	b284      	uxth	r4, r0
10006c60:	b28d      	uxth	r5, r1
10006c62:	436c      	muls	r4, r5
10006c64:	1406      	asrs	r6, r0, #16
10006c66:	4375      	muls	r5, r6
10006c68:	140b      	asrs	r3, r1, #16
10006c6a:	435e      	muls	r6, r3
10006c6c:	b282      	uxth	r2, r0
10006c6e:	435a      	muls	r2, r3
10006c70:	18ad      	adds	r5, r5, r2
10006c72:	17ea      	asrs	r2, r5, #31
10006c74:	d700      	bvc.n	10006c78 <l73_1>
10006c76:	43d2      	mvns	r2, r2

10006c78 <l73_1>:
10006c78:	0412      	lsls	r2, r2, #16
10006c7a:	18b6      	adds	r6, r6, r2
10006c7c:	042a      	lsls	r2, r5, #16
10006c7e:	0c2b      	lsrs	r3, r5, #16
10006c80:	1912      	adds	r2, r2, r4
10006c82:	4173      	adcs	r3, r6
10006c84:	4650      	mov	r0, sl
10006c86:	4659      	mov	r1, fp
10006c88:	009d      	lsls	r5, r3, #2
10006c8a:	179b      	asrs	r3, r3, #30
10006c8c:	0f92      	lsrs	r2, r2, #30
10006c8e:	432a      	orrs	r2, r5
10006c90:	4150      	adcs	r0, r2
10006c92:	4159      	adcs	r1, r3
10006c94:	223e      	movs	r2, #62	; 0x3e
10006c96:	e6f2      	b.n	10006a7e <fix642double_shim>
10006c98:	9df04dbb 	.word	0x9df04dbb
10006c9c:	36f656c5 	.word	0x36f656c5

10006ca0 <dreddata0>:
10006ca0:	0000517d 	.word	0x0000517d
10006ca4:	0014611a 	.word	0x0014611a
10006ca8:	000a8885 	.word	0x000a8885
10006cac:	001921fb 	.word	0x001921fb

10006cb0 <datan2_shim>:
10006cb0:	b5f0      	push	{r4, r5, r6, r7, lr}
10006cb2:	f7ff f8f3 	bl	10005e9c <push_r8_r11>
10006cb6:	4d40      	ldr	r5, [pc, #256]	; (10006db8 <datan2_shim+0x108>)
10006cb8:	000c      	movs	r4, r1
10006cba:	402c      	ands	r4, r5
10006cbc:	d001      	beq.n	10006cc2 <datan2_shim+0x12>
10006cbe:	42ac      	cmp	r4, r5
10006cc0:	d102      	bne.n	10006cc8 <datan2_shim+0x18>
10006cc2:	0d09      	lsrs	r1, r1, #20
10006cc4:	0509      	lsls	r1, r1, #20
10006cc6:	2000      	movs	r0, #0
10006cc8:	001c      	movs	r4, r3
10006cca:	402c      	ands	r4, r5
10006ccc:	d001      	beq.n	10006cd2 <datan2_shim+0x22>
10006cce:	42ac      	cmp	r4, r5
10006cd0:	d102      	bne.n	10006cd8 <datan2_shim+0x28>
10006cd2:	0d1b      	lsrs	r3, r3, #20
10006cd4:	051b      	lsls	r3, r3, #20
10006cd6:	2200      	movs	r2, #0
10006cd8:	2600      	movs	r6, #0
10006cda:	02ed      	lsls	r5, r5, #11
10006cdc:	2b00      	cmp	r3, #0
10006cde:	d504      	bpl.n	10006cea <datan2_shim+0x3a>
10006ce0:	2602      	movs	r6, #2
10006ce2:	406b      	eors	r3, r5
10006ce4:	4069      	eors	r1, r5
10006ce6:	d400      	bmi.n	10006cea <datan2_shim+0x3a>
10006ce8:	4276      	negs	r6, r6
10006cea:	194f      	adds	r7, r1, r5
10006cec:	d504      	bpl.n	10006cf8 <datan2_shim+0x48>
10006cee:	4299      	cmp	r1, r3
10006cf0:	dd0c      	ble.n	10006d0c <datan2_shim+0x5c>
10006cf2:	3601      	adds	r6, #1
10006cf4:	4069      	eors	r1, r5
10006cf6:	e003      	b.n	10006d00 <datan2_shim+0x50>
10006cf8:	42bb      	cmp	r3, r7
10006cfa:	da07      	bge.n	10006d0c <datan2_shim+0x5c>
10006cfc:	3e01      	subs	r6, #1
10006cfe:	406b      	eors	r3, r5
10006d00:	0007      	movs	r7, r0
10006d02:	0010      	movs	r0, r2
10006d04:	003a      	movs	r2, r7
10006d06:	000f      	movs	r7, r1
10006d08:	0019      	movs	r1, r3
10006d0a:	003b      	movs	r3, r7
10006d0c:	b440      	push	{r6}
10006d0e:	2a00      	cmp	r2, #0
10006d10:	d10f      	bne.n	10006d32 <datan2_shim+0x82>
10006d12:	2b00      	cmp	r3, #0
10006d14:	d00a      	beq.n	10006d2c <datan2_shim+0x7c>
10006d16:	005c      	lsls	r4, r3, #1
10006d18:	1564      	asrs	r4, r4, #21
10006d1a:	3401      	adds	r4, #1
10006d1c:	d109      	bne.n	10006d32 <datan2_shim+0x82>
10006d1e:	004c      	lsls	r4, r1, #1
10006d20:	1564      	asrs	r4, r4, #21
10006d22:	3401      	adds	r4, #1
10006d24:	d102      	bne.n	10006d2c <datan2_shim+0x7c>
10006d26:	3901      	subs	r1, #1
10006d28:	3b01      	subs	r3, #1
10006d2a:	e002      	b.n	10006d32 <datan2_shim+0x82>
10006d2c:	2000      	movs	r0, #0
10006d2e:	2100      	movs	r1, #0
10006d30:	e02e      	b.n	10006d90 <datan2_shim+0xe0>
10006d32:	f7ff fd01 	bl	10006738 <ddiv_shim>
10006d36:	223e      	movs	r2, #62	; 0x3e
10006d38:	f7ff fe23 	bl	10006982 <double2fix64_shim>
10006d3c:	4682      	mov	sl, r0
10006d3e:	468b      	mov	fp, r1
10006d40:	2000      	movs	r0, #0
10006d42:	2100      	movs	r1, #0
10006d44:	4680      	mov	r8, r0
10006d46:	2201      	movs	r2, #1
10006d48:	0792      	lsls	r2, r2, #30
10006d4a:	4691      	mov	r9, r2
10006d4c:	a41d      	add	r4, pc, #116	; (adr r4, 10006dc4 <dtab_cc>)
10006d4e:	46a4      	mov	ip, r4
10006d50:	2701      	movs	r7, #1
10006d52:	261f      	movs	r6, #31
10006d54:	f7ff fdc8 	bl	100068e8 <dcordic_vec_step>
10006d58:	3701      	adds	r7, #1
10006d5a:	3e01      	subs	r6, #1
10006d5c:	2f21      	cmp	r7, #33	; 0x21
10006d5e:	d1f9      	bne.n	10006d54 <datan2_shim+0xa4>
10006d60:	464a      	mov	r2, r9
10006d62:	4653      	mov	r3, sl
10006d64:	3a0c      	subs	r2, #12
10006d66:	2401      	movs	r4, #1
10006d68:	0764      	lsls	r4, r4, #29
10006d6a:	2700      	movs	r7, #0
10006d6c:	0852      	lsrs	r2, r2, #1
10006d6e:	001b      	movs	r3, r3
10006d70:	d405      	bmi.n	10006d7e <datan2_shim+0xce>
10006d72:	4193      	sbcs	r3, r2
10006d74:	1900      	adds	r0, r0, r4
10006d76:	4179      	adcs	r1, r7
10006d78:	0864      	lsrs	r4, r4, #1
10006d7a:	d1f7      	bne.n	10006d6c <datan2_shim+0xbc>
10006d7c:	e004      	b.n	10006d88 <datan2_shim+0xd8>
10006d7e:	4153      	adcs	r3, r2
10006d80:	1b00      	subs	r0, r0, r4
10006d82:	41b9      	sbcs	r1, r7
10006d84:	0864      	lsrs	r4, r4, #1
10006d86:	d1f1      	bne.n	10006d6c <datan2_shim+0xbc>
10006d88:	07ce      	lsls	r6, r1, #31
10006d8a:	1049      	asrs	r1, r1, #1
10006d8c:	0840      	lsrs	r0, r0, #1
10006d8e:	4330      	orrs	r0, r6
10006d90:	bc40      	pop	{r6}
10006d92:	2e00      	cmp	r6, #0
10006d94:	d00a      	beq.n	10006dac <datan2_shim+0xfc>
10006d96:	4c09      	ldr	r4, [pc, #36]	; (10006dbc <datan2_shim+0x10c>)
10006d98:	4d09      	ldr	r5, [pc, #36]	; (10006dc0 <datan2_shim+0x110>)
10006d9a:	d501      	bpl.n	10006da0 <datan2_shim+0xf0>
10006d9c:	43e4      	mvns	r4, r4
10006d9e:	43ed      	mvns	r5, r5
10006da0:	07f6      	lsls	r6, r6, #31
10006da2:	d101      	bne.n	10006da8 <datan2_shim+0xf8>
10006da4:	1900      	adds	r0, r0, r4
10006da6:	4169      	adcs	r1, r5
10006da8:	1900      	adds	r0, r0, r4
10006daa:	4169      	adcs	r1, r5
10006dac:	223d      	movs	r2, #61	; 0x3d
10006dae:	f7ff fe66 	bl	10006a7e <fix642double_shim>
10006db2:	f7ff f879 	bl	10005ea8 <pop_r8_r11>
10006db6:	bdf0      	pop	{r4, r5, r6, r7, pc}
10006db8:	7ff00000 	.word	0x7ff00000
10006dbc:	885a308d 	.word	0x885a308d
10006dc0:	3243f6a8 	.word	0x3243f6a8

10006dc4 <dtab_cc>:
10006dc4:	61bb4f69 	.word	0x61bb4f69
10006dc8:	1dac6705 	.word	0x1dac6705
10006dcc:	96406eb1 	.word	0x96406eb1
10006dd0:	0fadbafc 	.word	0x0fadbafc
10006dd4:	ab0bdb72 	.word	0xab0bdb72
10006dd8:	07f56ea6 	.word	0x07f56ea6
10006ddc:	e59fbd39 	.word	0xe59fbd39
10006de0:	03feab76 	.word	0x03feab76
10006de4:	ba97624b 	.word	0xba97624b
10006de8:	01ffd55b 	.word	0x01ffd55b
10006dec:	dddb94d6 	.word	0xdddb94d6
10006df0:	00fffaaa 	.word	0x00fffaaa
10006df4:	56eeea5d 	.word	0x56eeea5d
10006df8:	007fff55 	.word	0x007fff55
10006dfc:	aab7776e 	.word	0xaab7776e
10006e00:	003fffea 	.word	0x003fffea
10006e04:	5555bbbc 	.word	0x5555bbbc
10006e08:	001ffffd 	.word	0x001ffffd
10006e0c:	aaaaadde 	.word	0xaaaaadde
10006e10:	000fffff 	.word	0x000fffff
10006e14:	f555556f 	.word	0xf555556f
10006e18:	0007ffff 	.word	0x0007ffff
10006e1c:	feaaaaab 	.word	0xfeaaaaab
10006e20:	0003ffff 	.word	0x0003ffff
10006e24:	ffd55555 	.word	0xffd55555
10006e28:	0001ffff 	.word	0x0001ffff
10006e2c:	fffaaaab 	.word	0xfffaaaab
10006e30:	0000ffff 	.word	0x0000ffff
10006e34:	ffff5555 	.word	0xffff5555
10006e38:	00007fff 	.word	0x00007fff
10006e3c:	ffffeaab 	.word	0xffffeaab
10006e40:	00003fff 	.word	0x00003fff
10006e44:	fffffd55 	.word	0xfffffd55
10006e48:	00001fff 	.word	0x00001fff
10006e4c:	ffffffab 	.word	0xffffffab
10006e50:	00000fff 	.word	0x00000fff
10006e54:	fffffff5 	.word	0xfffffff5
10006e58:	000007ff 	.word	0x000007ff
10006e5c:	ffffffff 	.word	0xffffffff
10006e60:	000003ff 	.word	0x000003ff
10006e64:	00000000 	.word	0x00000000
10006e68:	00000200 	.word	0x00000200
10006e6c:	00000000 	.word	0x00000000
10006e70:	00000100 	.word	0x00000100
10006e74:	00000000 	.word	0x00000000
10006e78:	00000080 	.word	0x00000080
10006e7c:	00000000 	.word	0x00000000
10006e80:	00000040 	.word	0x00000040
10006e84:	00000000 	.word	0x00000000
10006e88:	00000020 	.word	0x00000020
10006e8c:	00000000 	.word	0x00000000
10006e90:	00000010 	.word	0x00000010
10006e94:	00000000 	.word	0x00000000
10006e98:	00000008 	.word	0x00000008
10006e9c:	00000000 	.word	0x00000000
10006ea0:	00000004 	.word	0x00000004
10006ea4:	00000000 	.word	0x00000000
10006ea8:	00000002 	.word	0x00000002
10006eac:	00000000 	.word	0x00000000
10006eb0:	00000001 	.word	0x00000001
10006eb4:	80000000 	.word	0x80000000
10006eb8:	00000000 	.word	0x00000000
10006ebc:	40000000 	.word	0x40000000
10006ec0:	00000000 	.word	0x00000000

10006ec4 <__wrap___aeabi_lmul>:
10006ec4:	4351      	muls	r1, r2
10006ec6:	4343      	muls	r3, r0
10006ec8:	18c9      	adds	r1, r1, r3
10006eca:	468c      	mov	ip, r1
10006ecc:	0c11      	lsrs	r1, r2, #16
10006ece:	b283      	uxth	r3, r0
10006ed0:	434b      	muls	r3, r1
10006ed2:	b410      	push	{r4}
10006ed4:	0c04      	lsrs	r4, r0, #16
10006ed6:	4361      	muls	r1, r4
10006ed8:	b292      	uxth	r2, r2
10006eda:	b280      	uxth	r0, r0
10006edc:	4350      	muls	r0, r2
10006ede:	4362      	muls	r2, r4
10006ee0:	041c      	lsls	r4, r3, #16
10006ee2:	0c1b      	lsrs	r3, r3, #16
10006ee4:	1900      	adds	r0, r0, r4
10006ee6:	bc10      	pop	{r4}
10006ee8:	4159      	adcs	r1, r3
10006eea:	0413      	lsls	r3, r2, #16
10006eec:	0c12      	lsrs	r2, r2, #16
10006eee:	18c0      	adds	r0, r0, r3
10006ef0:	4151      	adcs	r1, r2
10006ef2:	4461      	add	r1, ip
10006ef4:	4770      	bx	lr
	...

10006ef8 <__wrap___aeabi_frsub>:
10006ef8:	4048      	eors	r0, r1
10006efa:	4041      	eors	r1, r0
10006efc:	4048      	eors	r0, r1

10006efe <__wrap___aeabi_fsub>:
10006efe:	4b06      	ldr	r3, [pc, #24]	; (10006f18 <__wrap___aeabi_fmul+0x8>)
10006f00:	685b      	ldr	r3, [r3, #4]
10006f02:	4718      	bx	r3

10006f04 <__wrap___aeabi_fadd>:
10006f04:	4b04      	ldr	r3, [pc, #16]	; (10006f18 <__wrap___aeabi_fmul+0x8>)
10006f06:	681b      	ldr	r3, [r3, #0]
10006f08:	4718      	bx	r3

10006f0a <__wrap___aeabi_fdiv>:
10006f0a:	4b03      	ldr	r3, [pc, #12]	; (10006f18 <__wrap___aeabi_fmul+0x8>)
10006f0c:	68db      	ldr	r3, [r3, #12]
10006f0e:	4718      	bx	r3

10006f10 <__wrap___aeabi_fmul>:
10006f10:	4b01      	ldr	r3, [pc, #4]	; (10006f18 <__wrap___aeabi_fmul+0x8>)
10006f12:	689b      	ldr	r3, [r3, #8]
10006f14:	4718      	bx	r3
10006f16:	0000      	.short	0x0000
10006f18:	20003a14 	.word	0x20003a14

10006f1c <__wrap___aeabi_cfrcmple>:
10006f1c:	b507      	push	{r0, r1, r2, lr}
10006f1e:	4048      	eors	r0, r1
10006f20:	4041      	eors	r1, r0
10006f22:	4048      	eors	r0, r1
10006f24:	e001      	b.n	10006f2a <__aeabi_cfcmple_guts>
10006f26:	46c0      	nop			; (mov r8, r8)

10006f28 <__wrap___aeabi_cfcmpeq>:
10006f28:	b507      	push	{r0, r1, r2, lr}

10006f2a <__aeabi_cfcmple_guts>:
10006f2a:	0042      	lsls	r2, r0, #1
10006f2c:	0e12      	lsrs	r2, r2, #24
10006f2e:	d003      	beq.n	10006f38 <__aeabi_cfcmple_guts+0xe>
10006f30:	2aff      	cmp	r2, #255	; 0xff
10006f32:	d103      	bne.n	10006f3c <__aeabi_cfcmple_guts+0x12>
10006f34:	0242      	lsls	r2, r0, #9
10006f36:	d818      	bhi.n	10006f6a <__aeabi_cfcmple_guts+0x40>
10006f38:	0dc0      	lsrs	r0, r0, #23
10006f3a:	05c0      	lsls	r0, r0, #23
10006f3c:	004a      	lsls	r2, r1, #1
10006f3e:	0e12      	lsrs	r2, r2, #24
10006f40:	d003      	beq.n	10006f4a <__aeabi_cfcmple_guts+0x20>
10006f42:	2aff      	cmp	r2, #255	; 0xff
10006f44:	d103      	bne.n	10006f4e <__aeabi_cfcmple_guts+0x24>
10006f46:	024a      	lsls	r2, r1, #9
10006f48:	d80f      	bhi.n	10006f6a <__aeabi_cfcmple_guts+0x40>
10006f4a:	0dc9      	lsrs	r1, r1, #23
10006f4c:	05c9      	lsls	r1, r1, #23
10006f4e:	2201      	movs	r2, #1
10006f50:	4041      	eors	r1, r0
10006f52:	d405      	bmi.n	10006f60 <__aeabi_cfcmple_guts+0x36>
10006f54:	4041      	eors	r1, r0
10006f56:	d501      	bpl.n	10006f5c <__aeabi_cfcmple_guts+0x32>
10006f58:	4281      	cmp	r1, r0
10006f5a:	bd07      	pop	{r0, r1, r2, pc}
10006f5c:	4288      	cmp	r0, r1
10006f5e:	bd07      	pop	{r0, r1, r2, pc}
10006f60:	4301      	orrs	r1, r0
10006f62:	1849      	adds	r1, r1, r1
10006f64:	d001      	beq.n	10006f6a <__aeabi_cfcmple_guts+0x40>
10006f66:	43c0      	mvns	r0, r0
10006f68:	1800      	adds	r0, r0, r0
10006f6a:	bd07      	pop	{r0, r1, r2, pc}

10006f6c <__wrap___aeabi_fcmpeq>:
10006f6c:	b500      	push	{lr}
10006f6e:	f7ff ffdb 	bl	10006f28 <__wrap___aeabi_cfcmpeq>
10006f72:	d001      	beq.n	10006f78 <__wrap___aeabi_fcmpeq+0xc>
10006f74:	2000      	movs	r0, #0
10006f76:	bd00      	pop	{pc}
10006f78:	2001      	movs	r0, #1
10006f7a:	bd00      	pop	{pc}

10006f7c <__wrap___aeabi_fcmplt>:
10006f7c:	b500      	push	{lr}
10006f7e:	f7ff ffd3 	bl	10006f28 <__wrap___aeabi_cfcmpeq>
10006f82:	4180      	sbcs	r0, r0
10006f84:	bd00      	pop	{pc}
10006f86:	46c0      	nop			; (mov r8, r8)

10006f88 <__wrap___aeabi_fcmpgt>:
10006f88:	b500      	push	{lr}
10006f8a:	f7ff ffc7 	bl	10006f1c <__wrap___aeabi_cfrcmple>
10006f8e:	4180      	sbcs	r0, r0
10006f90:	bd00      	pop	{pc}
	...

10006f94 <__wrap___aeabi_i2f>:
10006f94:	0fc1      	lsrs	r1, r0, #31
10006f96:	07c9      	lsls	r1, r1, #31
10006f98:	d500      	bpl.n	10006f9c <__wrap___aeabi_i2f+0x8>
10006f9a:	4240      	negs	r0, r0
10006f9c:	2800      	cmp	r0, #0
10006f9e:	d017      	beq.n	10006fd0 <__aeabi_i2f_main+0x30>

10006fa0 <__aeabi_i2f_main>:
10006fa0:	46f4      	mov	ip, lr
10006fa2:	b403      	push	{r0, r1}
10006fa4:	4b0b      	ldr	r3, [pc, #44]	; (10006fd4 <__aeabi_i2f_main+0x34>)
10006fa6:	681b      	ldr	r3, [r3, #0]
10006fa8:	4798      	blx	r3
10006faa:	bc06      	pop	{r1, r2}
10006fac:	4081      	lsls	r1, r0
10006fae:	389e      	subs	r0, #158	; 0x9e
10006fb0:	4240      	negs	r0, r0
10006fb2:	3180      	adds	r1, #128	; 0x80
10006fb4:	d207      	bcs.n	10006fc6 <__aeabi_i2f_main+0x26>
10006fb6:	060b      	lsls	r3, r1, #24
10006fb8:	d007      	beq.n	10006fca <__aeabi_i2f_main+0x2a>
10006fba:	0049      	lsls	r1, r1, #1
10006fbc:	0a49      	lsrs	r1, r1, #9
10006fbe:	05c0      	lsls	r0, r0, #23
10006fc0:	4310      	orrs	r0, r2
10006fc2:	4308      	orrs	r0, r1
10006fc4:	4760      	bx	ip
10006fc6:	3001      	adds	r0, #1
10006fc8:	e7f8      	b.n	10006fbc <__aeabi_i2f_main+0x1c>
10006fca:	0a49      	lsrs	r1, r1, #9
10006fcc:	0289      	lsls	r1, r1, #10
10006fce:	e7f5      	b.n	10006fbc <__aeabi_i2f_main+0x1c>
10006fd0:	4770      	bx	lr
10006fd2:	0000      	.short	0x0000
10006fd4:	20003b14 	.word	0x20003b14

10006fd8 <__wrap___aeabi_f2iz>:
10006fd8:	0041      	lsls	r1, r0, #1
10006fda:	0e0a      	lsrs	r2, r1, #24
10006fdc:	2380      	movs	r3, #128	; 0x80
10006fde:	061b      	lsls	r3, r3, #24
10006fe0:	2a7e      	cmp	r2, #126	; 0x7e
10006fe2:	dd0b      	ble.n	10006ffc <__wrap___aeabi_f2iz+0x24>
10006fe4:	3a9e      	subs	r2, #158	; 0x9e
10006fe6:	da0b      	bge.n	10007000 <__wrap___aeabi_f2iz+0x28>
10006fe8:	17c1      	asrs	r1, r0, #31
10006fea:	0240      	lsls	r0, r0, #9
10006fec:	0840      	lsrs	r0, r0, #1
10006fee:	4318      	orrs	r0, r3
10006ff0:	4252      	negs	r2, r2
10006ff2:	40d0      	lsrs	r0, r2
10006ff4:	0049      	lsls	r1, r1, #1
10006ff6:	3101      	adds	r1, #1
10006ff8:	4348      	muls	r0, r1
10006ffa:	4770      	bx	lr
10006ffc:	2000      	movs	r0, #0
10006ffe:	4770      	bx	lr
10007000:	0fc0      	lsrs	r0, r0, #31
10007002:	18c0      	adds	r0, r0, r3
10007004:	3801      	subs	r0, #1
10007006:	4770      	bx	lr
10007008:	42c0      	cmn	r0, r0
1000700a:	d30d      	bcc.n	10007028 <float2int>
1000700c:	b500      	push	{lr}
1000700e:	0040      	lsls	r0, r0, #1
10007010:	0840      	lsrs	r0, r0, #1
10007012:	2100      	movs	r1, #0
10007014:	f000 f812 	bl	1000703c <__wrap___aeabi_f2uiz>
10007018:	2800      	cmp	r0, #0
1000701a:	d401      	bmi.n	10007020 <__wrap___aeabi_f2iz+0x48>
1000701c:	4240      	negs	r0, r0
1000701e:	bd00      	pop	{pc}
10007020:	2080      	movs	r0, #128	; 0x80
10007022:	0600      	lsls	r0, r0, #24
10007024:	bd00      	pop	{pc}
	...

10007028 <float2int>:
10007028:	4b03      	ldr	r3, [pc, #12]	; (10007038 <float2int+0x10>)
1000702a:	69db      	ldr	r3, [r3, #28]
1000702c:	46fc      	mov	ip, pc
1000702e:	4718      	bx	r3
10007030:	70eddf1c 	.word	0x70eddf1c
10007034:	00001000 	.word	0x00001000
10007038:	20003a14 	.word	0x20003a14

1000703c <__wrap___aeabi_f2uiz>:
1000703c:	4b01      	ldr	r3, [pc, #4]	; (10007044 <__wrap___aeabi_f2uiz+0x8>)
1000703e:	6a5b      	ldr	r3, [r3, #36]	; 0x24
10007040:	4718      	bx	r3
10007042:	0000      	.short	0x0000
10007044:	20003a14 	.word	0x20003a14

10007048 <__wrap___aeabi_f2d>:
10007048:	4b03      	ldr	r3, [pc, #12]	; (10007058 <__wrap___aeabi_f2d+0x10>)
1000704a:	6fdb      	ldr	r3, [r3, #124]	; 0x7c
1000704c:	46fc      	mov	ip, pc
1000704e:	4718      	bx	r3
10007050:	7105df7c 	.word	0x7105df7c
10007054:	00001000 	.word	0x00001000
10007058:	20003a14 	.word	0x20003a14

1000705c <__aeabi_float_init>:
1000705c:	2313      	movs	r3, #19
1000705e:	b510      	push	{r4, lr}
10007060:	4812      	ldr	r0, [pc, #72]	; (100070ac <__aeabi_float_init+0x50>)
10007062:	781c      	ldrb	r4, [r3, #0]
10007064:	f7fe fc86 	bl	10005974 <rom_data_lookup>
10007068:	0001      	movs	r1, r0
1000706a:	2c01      	cmp	r4, #1
1000706c:	d00a      	beq.n	10007084 <__aeabi_float_init+0x28>
1000706e:	dd03      	ble.n	10007078 <__aeabi_float_init+0x1c>
10007070:	2280      	movs	r2, #128	; 0x80
10007072:	480f      	ldr	r0, [pc, #60]	; (100070b0 <__aeabi_float_init+0x54>)
10007074:	f000 f86c 	bl	10007150 <__wrap___aeabi_memcpy>
10007078:	480e      	ldr	r0, [pc, #56]	; (100070b4 <__aeabi_float_init+0x58>)
1000707a:	f7fe fc73 	bl	10005964 <rom_func_lookup>
1000707e:	4b0e      	ldr	r3, [pc, #56]	; (100070b8 <__aeabi_float_init+0x5c>)
10007080:	6018      	str	r0, [r3, #0]
10007082:	bd10      	pop	{r4, pc}
10007084:	4c0a      	ldr	r4, [pc, #40]	; (100070b0 <__aeabi_float_init+0x54>)
10007086:	2254      	movs	r2, #84	; 0x54
10007088:	0020      	movs	r0, r4
1000708a:	f000 f861 	bl	10007150 <__wrap___aeabi_memcpy>
1000708e:	4b0b      	ldr	r3, [pc, #44]	; (100070bc <__aeabi_float_init+0x60>)
10007090:	6563      	str	r3, [r4, #84]	; 0x54
10007092:	65a3      	str	r3, [r4, #88]	; 0x58
10007094:	65e3      	str	r3, [r4, #92]	; 0x5c
10007096:	6623      	str	r3, [r4, #96]	; 0x60
10007098:	6663      	str	r3, [r4, #100]	; 0x64
1000709a:	66a3      	str	r3, [r4, #104]	; 0x68
1000709c:	66e3      	str	r3, [r4, #108]	; 0x6c
1000709e:	6723      	str	r3, [r4, #112]	; 0x70
100070a0:	6763      	str	r3, [r4, #116]	; 0x74
100070a2:	67a3      	str	r3, [r4, #120]	; 0x78
100070a4:	67e3      	str	r3, [r4, #124]	; 0x7c
100070a6:	6223      	str	r3, [r4, #32]
100070a8:	61e3      	str	r3, [r4, #28]
100070aa:	e7e5      	b.n	10007078 <__aeabi_float_init+0x1c>
100070ac:	00004653 	.word	0x00004653
100070b0:	20003a14 	.word	0x20003a14
100070b4:	0000334c 	.word	0x0000334c
100070b8:	20003b14 	.word	0x20003b14
100070bc:	100070c1 	.word	0x100070c1

100070c0 <float_table_shim_on_use_helper>:
100070c0:	b507      	push	{r0, r1, r2, lr}
100070c2:	4660      	mov	r0, ip
100070c4:	8801      	ldrh	r1, [r0, #0]
100070c6:	0a0a      	lsrs	r2, r1, #8
100070c8:	3002      	adds	r0, #2
100070ca:	2adf      	cmp	r2, #223	; 0xdf
100070cc:	d1fa      	bne.n	100070c4 <float_table_shim_on_use_helper+0x4>
100070ce:	b2c9      	uxtb	r1, r1
100070d0:	0882      	lsrs	r2, r0, #2
100070d2:	d304      	bcc.n	100070de <float_table_shim_on_use_helper+0x1e>
100070d4:	8802      	ldrh	r2, [r0, #0]
100070d6:	8840      	ldrh	r0, [r0, #2]
100070d8:	0400      	lsls	r0, r0, #16
100070da:	4310      	orrs	r0, r2
100070dc:	e000      	b.n	100070e0 <float_table_shim_on_use_helper+0x20>
100070de:	6800      	ldr	r0, [r0, #0]
100070e0:	4a01      	ldr	r2, [pc, #4]	; (100070e8 <float_table_shim_on_use_helper+0x28>)
100070e2:	5050      	str	r0, [r2, r1]
100070e4:	9003      	str	r0, [sp, #12]
100070e6:	bd07      	pop	{r0, r1, r2, pc}
100070e8:	20003a14 	.word	0x20003a14

100070ec <float2int_shim>:
100070ec:	2100      	movs	r1, #0

100070ee <float2fix_shim>:
100070ee:	15c2      	asrs	r2, r0, #23
100070f0:	3280      	adds	r2, #128	; 0x80
100070f2:	3280      	adds	r2, #128	; 0x80
100070f4:	d001      	beq.n	100070fa <float2fix_shim+0xc>
100070f6:	4a02      	ldr	r2, [pc, #8]	; (10007100 <float2fix_shim+0x12>)
100070f8:	4710      	bx	r2
100070fa:	2000      	movs	r0, #0
100070fc:	4770      	bx	lr
100070fe:	0000      	.short	0x0000
10007100:	00002acd 	.word	0x00002acd

10007104 <float2double_shim>:
10007104:	0fc3      	lsrs	r3, r0, #31
10007106:	07db      	lsls	r3, r3, #31
10007108:	0041      	lsls	r1, r0, #1
1000710a:	0e0a      	lsrs	r2, r1, #24
1000710c:	d007      	beq.n	1000711e <float2double_shim+0x1a>
1000710e:	2aff      	cmp	r2, #255	; 0xff
10007110:	d008      	beq.n	10007124 <float2double_shim+0x20>
10007112:	0909      	lsrs	r1, r1, #4
10007114:	4a05      	ldr	r2, [pc, #20]	; (1000712c <float2double_shim+0x28>)
10007116:	1889      	adds	r1, r1, r2
10007118:	4319      	orrs	r1, r3
1000711a:	0740      	lsls	r0, r0, #29
1000711c:	4770      	bx	lr
1000711e:	0019      	movs	r1, r3
10007120:	2000      	movs	r0, #0
10007122:	4770      	bx	lr
10007124:	4902      	ldr	r1, [pc, #8]	; (10007130 <float2double_shim+0x2c>)
10007126:	18c9      	adds	r1, r1, r3
10007128:	e7fa      	b.n	10007120 <float2double_shim+0x1c>
1000712a:	0000      	.short	0x0000
1000712c:	38000000 	.word	0x38000000
10007130:	7ff00000 	.word	0x7ff00000

10007134 <__aeabi_mem_init>:
10007134:	4801      	ldr	r0, [pc, #4]	; (1000713c <__aeabi_mem_init+0x8>)
10007136:	2104      	movs	r1, #4
10007138:	4b01      	ldr	r3, [pc, #4]	; (10007140 <__aeabi_mem_init+0xc>)
1000713a:	4718      	bx	r3
1000713c:	20000270 	.word	0x20000270
10007140:	10005985 	.word	0x10005985

10007144 <__wrap_memset>:
10007144:	4b01      	ldr	r3, [pc, #4]	; (1000714c <__wrap_memset+0x8>)
10007146:	681b      	ldr	r3, [r3, #0]
10007148:	4718      	bx	r3
1000714a:	0000      	.short	0x0000
1000714c:	20000270 	.word	0x20000270

10007150 <__wrap___aeabi_memcpy>:
10007150:	4b01      	ldr	r3, [pc, #4]	; (10007158 <__wrap___aeabi_memcpy+0x8>)
10007152:	685b      	ldr	r3, [r3, #4]
10007154:	4718      	bx	r3
10007156:	0000      	.short	0x0000
10007158:	20000270 	.word	0x20000270

1000715c <stdio_out_chars_crlf.part.0>:
1000715c:	b5f8      	push	{r3, r4, r5, r6, r7, lr}
1000715e:	4647      	mov	r7, r8
10007160:	46ce      	mov	lr, r9
10007162:	000d      	movs	r5, r1
10007164:	b580      	push	{r7, lr}
10007166:	0016      	movs	r6, r2
10007168:	0007      	movs	r7, r0
1000716a:	2a00      	cmp	r2, #0
1000716c:	dd20      	ble.n	100071b0 <stdio_out_chars_crlf.part.0+0x54>
1000716e:	1e4b      	subs	r3, r1, #1
10007170:	4698      	mov	r8, r3
10007172:	4b1a      	ldr	r3, [pc, #104]	; (100071dc <stdio_out_chars_crlf.part.0+0x80>)
10007174:	2400      	movs	r4, #0
10007176:	2000      	movs	r0, #0
10007178:	4699      	mov	r9, r3
1000717a:	2c00      	cmp	r4, #0
1000717c:	d02b      	beq.n	100071d6 <stdio_out_chars_crlf.part.0+0x7a>
1000717e:	4643      	mov	r3, r8
10007180:	5d1b      	ldrb	r3, [r3, r4]
10007182:	3b0d      	subs	r3, #13
10007184:	425a      	negs	r2, r3
10007186:	4153      	adcs	r3, r2
10007188:	b2db      	uxtb	r3, r3
1000718a:	5d2a      	ldrb	r2, [r5, r4]
1000718c:	2a0a      	cmp	r2, #10
1000718e:	d013      	beq.n	100071b8 <stdio_out_chars_crlf.part.0+0x5c>
10007190:	3401      	adds	r4, #1
10007192:	42a6      	cmp	r6, r4
10007194:	dcf1      	bgt.n	1000717a <stdio_out_chars_crlf.part.0+0x1e>
10007196:	4286      	cmp	r6, r0
10007198:	dd03      	ble.n	100071a2 <stdio_out_chars_crlf.part.0+0x46>
1000719a:	1a31      	subs	r1, r6, r0
1000719c:	683b      	ldr	r3, [r7, #0]
1000719e:	1828      	adds	r0, r5, r0
100071a0:	4798      	blx	r3
100071a2:	19ad      	adds	r5, r5, r6
100071a4:	3d01      	subs	r5, #1
100071a6:	782b      	ldrb	r3, [r5, #0]
100071a8:	3b0d      	subs	r3, #13
100071aa:	425a      	negs	r2, r3
100071ac:	4153      	adcs	r3, r2
100071ae:	743b      	strb	r3, [r7, #16]
100071b0:	bc0c      	pop	{r2, r3}
100071b2:	4690      	mov	r8, r2
100071b4:	4699      	mov	r9, r3
100071b6:	bdf8      	pop	{r3, r4, r5, r6, r7, pc}
100071b8:	2b00      	cmp	r3, #0
100071ba:	d1e9      	bne.n	10007190 <stdio_out_chars_crlf.part.0+0x34>
100071bc:	42a0      	cmp	r0, r4
100071be:	da03      	bge.n	100071c8 <stdio_out_chars_crlf.part.0+0x6c>
100071c0:	1a21      	subs	r1, r4, r0
100071c2:	683b      	ldr	r3, [r7, #0]
100071c4:	1828      	adds	r0, r5, r0
100071c6:	4798      	blx	r3
100071c8:	4648      	mov	r0, r9
100071ca:	2102      	movs	r1, #2
100071cc:	683b      	ldr	r3, [r7, #0]
100071ce:	3401      	adds	r4, #1
100071d0:	4798      	blx	r3
100071d2:	0020      	movs	r0, r4
100071d4:	e7dd      	b.n	10007192 <stdio_out_chars_crlf.part.0+0x36>
100071d6:	7c3b      	ldrb	r3, [r7, #16]
100071d8:	e7d7      	b.n	1000718a <stdio_out_chars_crlf.part.0+0x2e>
100071da:	46c0      	nop			; (mov r8, r8)
100071dc:	10007fc4 	.word	0x10007fc4

100071e0 <stdio_buffered_printer>:
100071e0:	b5f8      	push	{r3, r4, r5, r6, r7, lr}
100071e2:	4647      	mov	r7, r8
100071e4:	46ce      	mov	lr, r9
100071e6:	000c      	movs	r4, r1
100071e8:	6809      	ldr	r1, [r1, #0]
100071ea:	b580      	push	{r7, lr}
100071ec:	0007      	movs	r7, r0
100071ee:	2980      	cmp	r1, #128	; 0x80
100071f0:	d007      	beq.n	10007202 <stdio_buffered_printer+0x22>
100071f2:	1c4b      	adds	r3, r1, #1
100071f4:	6023      	str	r3, [r4, #0]
100071f6:	1864      	adds	r4, r4, r1
100071f8:	7127      	strb	r7, [r4, #4]
100071fa:	bc0c      	pop	{r2, r3}
100071fc:	4690      	mov	r8, r2
100071fe:	4699      	mov	r9, r3
10007200:	bdf8      	pop	{r3, r4, r5, r6, r7, pc}
10007202:	4b13      	ldr	r3, [pc, #76]	; (10007250 <stdio_buffered_printer+0x70>)
10007204:	681d      	ldr	r5, [r3, #0]
10007206:	2d00      	cmp	r5, #0
10007208:	d01b      	beq.n	10007242 <stdio_buffered_printer+0x62>
1000720a:	4b12      	ldr	r3, [pc, #72]	; (10007254 <stdio_buffered_printer+0x74>)
1000720c:	4698      	mov	r8, r3
1000720e:	1d23      	adds	r3, r4, #4
10007210:	4699      	mov	r9, r3
10007212:	e002      	b.n	1000721a <stdio_buffered_printer+0x3a>
10007214:	68ed      	ldr	r5, [r5, #12]
10007216:	2d00      	cmp	r5, #0
10007218:	d013      	beq.n	10007242 <stdio_buffered_printer+0x62>
1000721a:	682e      	ldr	r6, [r5, #0]
1000721c:	2e00      	cmp	r6, #0
1000721e:	d0f9      	beq.n	10007214 <stdio_buffered_printer+0x34>
10007220:	4643      	mov	r3, r8
10007222:	681b      	ldr	r3, [r3, #0]
10007224:	2b00      	cmp	r3, #0
10007226:	d001      	beq.n	1000722c <stdio_buffered_printer+0x4c>
10007228:	429d      	cmp	r5, r3
1000722a:	d1f3      	bne.n	10007214 <stdio_buffered_printer+0x34>
1000722c:	7c6b      	ldrb	r3, [r5, #17]
1000722e:	6822      	ldr	r2, [r4, #0]
10007230:	2b00      	cmp	r3, #0
10007232:	d009      	beq.n	10007248 <stdio_buffered_printer+0x68>
10007234:	0028      	movs	r0, r5
10007236:	4649      	mov	r1, r9
10007238:	f7ff ff90 	bl	1000715c <stdio_out_chars_crlf.part.0>
1000723c:	68ed      	ldr	r5, [r5, #12]
1000723e:	2d00      	cmp	r5, #0
10007240:	d1eb      	bne.n	1000721a <stdio_buffered_printer+0x3a>
10007242:	2301      	movs	r3, #1
10007244:	2100      	movs	r1, #0
10007246:	e7d5      	b.n	100071f4 <stdio_buffered_printer+0x14>
10007248:	0011      	movs	r1, r2
1000724a:	4648      	mov	r0, r9
1000724c:	47b0      	blx	r6
1000724e:	e7e1      	b.n	10007214 <stdio_buffered_printer+0x34>
10007250:	20000880 	.word	0x20000880
10007254:	20000884 	.word	0x20000884

10007258 <stdio_put_string>:
10007258:	b5f0      	push	{r4, r5, r6, r7, lr}
1000725a:	4657      	mov	r7, sl
1000725c:	4645      	mov	r5, r8
1000725e:	46de      	mov	lr, fp
10007260:	464e      	mov	r6, r9
10007262:	23d0      	movs	r3, #208	; 0xd0
10007264:	b5e0      	push	{r5, r6, r7, lr}
10007266:	061b      	lsls	r3, r3, #24
10007268:	681c      	ldr	r4, [r3, #0]
1000726a:	4b37      	ldr	r3, [pc, #220]	; (10007348 <stdio_put_string+0xf0>)
1000726c:	b083      	sub	sp, #12
1000726e:	0007      	movs	r7, r0
10007270:	000d      	movs	r5, r1
10007272:	0018      	movs	r0, r3
10007274:	a901      	add	r1, sp, #4
10007276:	4690      	mov	r8, r2
10007278:	469a      	mov	sl, r3
1000727a:	f000 fa21 	bl	100076c0 <__mutex_try_enter_veneer>
1000727e:	4681      	mov	r9, r0
10007280:	2800      	cmp	r0, #0
10007282:	d107      	bne.n	10007294 <stdio_put_string+0x3c>
10007284:	9b01      	ldr	r3, [sp, #4]
10007286:	429c      	cmp	r4, r3
10007288:	d004      	beq.n	10007294 <stdio_put_string+0x3c>
1000728a:	4650      	mov	r0, sl
1000728c:	f000 fa20 	bl	100076d0 <__mutex_enter_blocking_veneer>
10007290:	2301      	movs	r3, #1
10007292:	4699      	mov	r9, r3
10007294:	1c6b      	adds	r3, r5, #1
10007296:	d103      	bne.n	100072a0 <stdio_put_string+0x48>
10007298:	0038      	movs	r0, r7
1000729a:	f000 f9c7 	bl	1000762c <strlen>
1000729e:	0005      	movs	r5, r0
100072a0:	4b2a      	ldr	r3, [pc, #168]	; (1000734c <stdio_put_string+0xf4>)
100072a2:	681c      	ldr	r4, [r3, #0]
100072a4:	2c00      	cmp	r4, #0
100072a6:	d02f      	beq.n	10007308 <stdio_put_string+0xb0>
100072a8:	230a      	movs	r3, #10
100072aa:	4e29      	ldr	r6, [pc, #164]	; (10007350 <stdio_put_string+0xf8>)
100072ac:	469b      	mov	fp, r3
100072ae:	e002      	b.n	100072b6 <stdio_put_string+0x5e>
100072b0:	68e4      	ldr	r4, [r4, #12]
100072b2:	2c00      	cmp	r4, #0
100072b4:	d028      	beq.n	10007308 <stdio_put_string+0xb0>
100072b6:	6822      	ldr	r2, [r4, #0]
100072b8:	2a00      	cmp	r2, #0
100072ba:	d0f9      	beq.n	100072b0 <stdio_put_string+0x58>
100072bc:	6833      	ldr	r3, [r6, #0]
100072be:	2b00      	cmp	r3, #0
100072c0:	d001      	beq.n	100072c6 <stdio_put_string+0x6e>
100072c2:	42a3      	cmp	r3, r4
100072c4:	d1f4      	bne.n	100072b0 <stdio_put_string+0x58>
100072c6:	7c63      	ldrb	r3, [r4, #17]
100072c8:	2b00      	cmp	r3, #0
100072ca:	d02a      	beq.n	10007322 <stdio_put_string+0xca>
100072cc:	002a      	movs	r2, r5
100072ce:	0039      	movs	r1, r7
100072d0:	0020      	movs	r0, r4
100072d2:	f7ff ff43 	bl	1000715c <stdio_out_chars_crlf.part.0>
100072d6:	4643      	mov	r3, r8
100072d8:	2b00      	cmp	r3, #0
100072da:	d0e9      	beq.n	100072b0 <stdio_put_string+0x58>
100072dc:	466b      	mov	r3, sp
100072de:	465a      	mov	r2, fp
100072e0:	711a      	strb	r2, [r3, #4]
100072e2:	7c63      	ldrb	r3, [r4, #17]
100072e4:	2b00      	cmp	r3, #0
100072e6:	d020      	beq.n	1000732a <stdio_put_string+0xd2>
100072e8:	7c23      	ldrb	r3, [r4, #16]
100072ea:	2b00      	cmp	r3, #0
100072ec:	d026      	beq.n	1000733c <stdio_put_string+0xe4>
100072ee:	2101      	movs	r1, #1
100072f0:	6823      	ldr	r3, [r4, #0]
100072f2:	a801      	add	r0, sp, #4
100072f4:	4798      	blx	r3
100072f6:	466b      	mov	r3, sp
100072f8:	791b      	ldrb	r3, [r3, #4]
100072fa:	3b0d      	subs	r3, #13
100072fc:	425a      	negs	r2, r3
100072fe:	4153      	adcs	r3, r2
10007300:	7423      	strb	r3, [r4, #16]
10007302:	68e4      	ldr	r4, [r4, #12]
10007304:	2c00      	cmp	r4, #0
10007306:	d1d6      	bne.n	100072b6 <stdio_put_string+0x5e>
10007308:	464b      	mov	r3, r9
1000730a:	2b00      	cmp	r3, #0
1000730c:	d112      	bne.n	10007334 <stdio_put_string+0xdc>
1000730e:	1e68      	subs	r0, r5, #1
10007310:	4185      	sbcs	r5, r0
10007312:	b2e8      	uxtb	r0, r5
10007314:	b003      	add	sp, #12
10007316:	bc3c      	pop	{r2, r3, r4, r5}
10007318:	4690      	mov	r8, r2
1000731a:	4699      	mov	r9, r3
1000731c:	46a2      	mov	sl, r4
1000731e:	46ab      	mov	fp, r5
10007320:	bdf0      	pop	{r4, r5, r6, r7, pc}
10007322:	0029      	movs	r1, r5
10007324:	0038      	movs	r0, r7
10007326:	4790      	blx	r2
10007328:	e7d5      	b.n	100072d6 <stdio_put_string+0x7e>
1000732a:	2101      	movs	r1, #1
1000732c:	6823      	ldr	r3, [r4, #0]
1000732e:	a801      	add	r0, sp, #4
10007330:	4798      	blx	r3
10007332:	e7bd      	b.n	100072b0 <stdio_put_string+0x58>
10007334:	4650      	mov	r0, sl
10007336:	f000 f9ab 	bl	10007690 <__mutex_exit_veneer>
1000733a:	e7e8      	b.n	1000730e <stdio_put_string+0xb6>
1000733c:	2102      	movs	r1, #2
1000733e:	4805      	ldr	r0, [pc, #20]	; (10007354 <stdio_put_string+0xfc>)
10007340:	6823      	ldr	r3, [r4, #0]
10007342:	4798      	blx	r3
10007344:	e7d7      	b.n	100072f6 <stdio_put_string+0x9e>
10007346:	46c0      	nop			; (mov r8, r8)
10007348:	200006b8 	.word	0x200006b8
1000734c:	20000880 	.word	0x20000880
10007350:	20000884 	.word	0x20000884
10007354:	10007fc4 	.word	0x10007fc4

10007358 <__wrap_putchar>:
10007358:	b510      	push	{r4, lr}
1000735a:	b082      	sub	sp, #8
1000735c:	466b      	mov	r3, sp
1000735e:	0004      	movs	r4, r0
10007360:	2200      	movs	r2, #0
10007362:	1dd8      	adds	r0, r3, #7
10007364:	2101      	movs	r1, #1
10007366:	7004      	strb	r4, [r0, #0]
10007368:	f7ff ff76 	bl	10007258 <stdio_put_string>
1000736c:	0020      	movs	r0, r4
1000736e:	b002      	add	sp, #8
10007370:	bd10      	pop	{r4, pc}
10007372:	46c0      	nop			; (mov r8, r8)

10007374 <__wrap_puts>:
10007374:	b570      	push	{r4, r5, r6, lr}
10007376:	0004      	movs	r4, r0
10007378:	f000 f958 	bl	1000762c <strlen>
1000737c:	2201      	movs	r2, #1
1000737e:	0001      	movs	r1, r0
10007380:	0005      	movs	r5, r0
10007382:	0020      	movs	r0, r4
10007384:	f7ff ff68 	bl	10007258 <stdio_put_string>
10007388:	4b08      	ldr	r3, [pc, #32]	; (100073ac <__wrap_puts+0x38>)
1000738a:	681c      	ldr	r4, [r3, #0]
1000738c:	2c00      	cmp	r4, #0
1000738e:	d006      	beq.n	1000739e <__wrap_puts+0x2a>
10007390:	6863      	ldr	r3, [r4, #4]
10007392:	2b00      	cmp	r3, #0
10007394:	d005      	beq.n	100073a2 <__wrap_puts+0x2e>
10007396:	4798      	blx	r3
10007398:	68e4      	ldr	r4, [r4, #12]
1000739a:	2c00      	cmp	r4, #0
1000739c:	d1f8      	bne.n	10007390 <__wrap_puts+0x1c>
1000739e:	0028      	movs	r0, r5
100073a0:	bd70      	pop	{r4, r5, r6, pc}
100073a2:	68e4      	ldr	r4, [r4, #12]
100073a4:	2c00      	cmp	r4, #0
100073a6:	d1f3      	bne.n	10007390 <__wrap_puts+0x1c>
100073a8:	e7f9      	b.n	1000739e <__wrap_puts+0x2a>
100073aa:	46c0      	nop			; (mov r8, r8)
100073ac:	20000880 	.word	0x20000880

100073b0 <__wrap_vprintf>:
100073b0:	b5f0      	push	{r4, r5, r6, r7, lr}
100073b2:	4646      	mov	r6, r8
100073b4:	46d6      	mov	lr, sl
100073b6:	464f      	mov	r7, r9
100073b8:	23d0      	movs	r3, #208	; 0xd0
100073ba:	b5c0      	push	{r6, r7, lr}
100073bc:	061b      	lsls	r3, r3, #24
100073be:	681f      	ldr	r7, [r3, #0]
100073c0:	4b31      	ldr	r3, [pc, #196]	; (10007488 <__wrap_vprintf+0xd8>)
100073c2:	b0a2      	sub	sp, #136	; 0x88
100073c4:	0004      	movs	r4, r0
100073c6:	000d      	movs	r5, r1
100073c8:	0018      	movs	r0, r3
100073ca:	a901      	add	r1, sp, #4
100073cc:	4698      	mov	r8, r3
100073ce:	f000 f977 	bl	100076c0 <__mutex_try_enter_veneer>
100073d2:	1e06      	subs	r6, r0, #0
100073d4:	d106      	bne.n	100073e4 <__wrap_vprintf+0x34>
100073d6:	9b01      	ldr	r3, [sp, #4]
100073d8:	429f      	cmp	r7, r3
100073da:	d003      	beq.n	100073e4 <__wrap_vprintf+0x34>
100073dc:	4640      	mov	r0, r8
100073de:	f000 f977 	bl	100076d0 <__mutex_enter_blocking_veneer>
100073e2:	3601      	adds	r6, #1
100073e4:	2284      	movs	r2, #132	; 0x84
100073e6:	2100      	movs	r1, #0
100073e8:	a801      	add	r0, sp, #4
100073ea:	f7ff feab 	bl	10007144 <__wrap_memset>
100073ee:	002b      	movs	r3, r5
100073f0:	0022      	movs	r2, r4
100073f2:	4826      	ldr	r0, [pc, #152]	; (1000748c <__wrap_vprintf+0xdc>)
100073f4:	a901      	add	r1, sp, #4
100073f6:	f7fe fa85 	bl	10005904 <vfctprintf>
100073fa:	9b01      	ldr	r3, [sp, #4]
100073fc:	0007      	movs	r7, r0
100073fe:	2b00      	cmp	r3, #0
10007400:	d115      	bne.n	1000742e <__wrap_vprintf+0x7e>
10007402:	4b23      	ldr	r3, [pc, #140]	; (10007490 <__wrap_vprintf+0xe0>)
10007404:	681c      	ldr	r4, [r3, #0]
10007406:	2c00      	cmp	r4, #0
10007408:	d006      	beq.n	10007418 <__wrap_vprintf+0x68>
1000740a:	6863      	ldr	r3, [r4, #4]
1000740c:	2b00      	cmp	r3, #0
1000740e:	d00c      	beq.n	1000742a <__wrap_vprintf+0x7a>
10007410:	4798      	blx	r3
10007412:	68e4      	ldr	r4, [r4, #12]
10007414:	2c00      	cmp	r4, #0
10007416:	d1f8      	bne.n	1000740a <__wrap_vprintf+0x5a>
10007418:	2e00      	cmp	r6, #0
1000741a:	d12f      	bne.n	1000747c <__wrap_vprintf+0xcc>
1000741c:	0038      	movs	r0, r7
1000741e:	b022      	add	sp, #136	; 0x88
10007420:	bc1c      	pop	{r2, r3, r4}
10007422:	4690      	mov	r8, r2
10007424:	4699      	mov	r9, r3
10007426:	46a2      	mov	sl, r4
10007428:	bdf0      	pop	{r4, r5, r6, r7, pc}
1000742a:	68e4      	ldr	r4, [r4, #12]
1000742c:	e7eb      	b.n	10007406 <__wrap_vprintf+0x56>
1000742e:	4b18      	ldr	r3, [pc, #96]	; (10007490 <__wrap_vprintf+0xe0>)
10007430:	681d      	ldr	r5, [r3, #0]
10007432:	469a      	mov	sl, r3
10007434:	2d00      	cmp	r5, #0
10007436:	d025      	beq.n	10007484 <__wrap_vprintf+0xd4>
10007438:	4b16      	ldr	r3, [pc, #88]	; (10007494 <__wrap_vprintf+0xe4>)
1000743a:	4699      	mov	r9, r3
1000743c:	e002      	b.n	10007444 <__wrap_vprintf+0x94>
1000743e:	68ed      	ldr	r5, [r5, #12]
10007440:	2d00      	cmp	r5, #0
10007442:	d013      	beq.n	1000746c <__wrap_vprintf+0xbc>
10007444:	682c      	ldr	r4, [r5, #0]
10007446:	2c00      	cmp	r4, #0
10007448:	d0f9      	beq.n	1000743e <__wrap_vprintf+0x8e>
1000744a:	464b      	mov	r3, r9
1000744c:	681b      	ldr	r3, [r3, #0]
1000744e:	2b00      	cmp	r3, #0
10007450:	d001      	beq.n	10007456 <__wrap_vprintf+0xa6>
10007452:	429d      	cmp	r5, r3
10007454:	d1f3      	bne.n	1000743e <__wrap_vprintf+0x8e>
10007456:	7c6b      	ldrb	r3, [r5, #17]
10007458:	9a01      	ldr	r2, [sp, #4]
1000745a:	2b00      	cmp	r3, #0
1000745c:	d00a      	beq.n	10007474 <__wrap_vprintf+0xc4>
1000745e:	0028      	movs	r0, r5
10007460:	a902      	add	r1, sp, #8
10007462:	f7ff fe7b 	bl	1000715c <stdio_out_chars_crlf.part.0>
10007466:	68ed      	ldr	r5, [r5, #12]
10007468:	2d00      	cmp	r5, #0
1000746a:	d1eb      	bne.n	10007444 <__wrap_vprintf+0x94>
1000746c:	4653      	mov	r3, sl
1000746e:	9501      	str	r5, [sp, #4]
10007470:	681c      	ldr	r4, [r3, #0]
10007472:	e7c8      	b.n	10007406 <__wrap_vprintf+0x56>
10007474:	0011      	movs	r1, r2
10007476:	a802      	add	r0, sp, #8
10007478:	47a0      	blx	r4
1000747a:	e7e0      	b.n	1000743e <__wrap_vprintf+0x8e>
1000747c:	4640      	mov	r0, r8
1000747e:	f000 f907 	bl	10007690 <__mutex_exit_veneer>
10007482:	e7cb      	b.n	1000741c <__wrap_vprintf+0x6c>
10007484:	9501      	str	r5, [sp, #4]
10007486:	e7c7      	b.n	10007418 <__wrap_vprintf+0x68>
10007488:	200006b8 	.word	0x200006b8
1000748c:	100071e1 	.word	0x100071e1
10007490:	20000880 	.word	0x20000880
10007494:	20000884 	.word	0x20000884

10007498 <__wrap_printf>:
10007498:	b40f      	push	{r0, r1, r2, r3}
1000749a:	b500      	push	{lr}
1000749c:	b083      	sub	sp, #12
1000749e:	a904      	add	r1, sp, #16
100074a0:	c901      	ldmia	r1!, {r0}
100074a2:	9101      	str	r1, [sp, #4]
100074a4:	f7ff ff84 	bl	100073b0 <__wrap_vprintf>
100074a8:	b003      	add	sp, #12
100074aa:	bc08      	pop	{r3}
100074ac:	b004      	add	sp, #16
100074ae:	4718      	bx	r3

100074b0 <i2c_init>:
100074b0:	b5f8      	push	{r3, r4, r5, r6, r7, lr}
100074b2:	4b25      	ldr	r3, [pc, #148]	; (10007548 <i2c_init+0x98>)
100074b4:	0005      	movs	r5, r0
100074b6:	1ac3      	subs	r3, r0, r3
100074b8:	425a      	negs	r2, r3
100074ba:	4153      	adcs	r3, r2
100074bc:	2207      	movs	r2, #7
100074be:	425b      	negs	r3, r3
100074c0:	4393      	bics	r3, r2
100074c2:	4a22      	ldr	r2, [pc, #136]	; (1000754c <i2c_init+0x9c>)
100074c4:	3310      	adds	r3, #16
100074c6:	6013      	str	r3, [r2, #0]
100074c8:	4a21      	ldr	r2, [pc, #132]	; (10007550 <i2c_init+0xa0>)
100074ca:	000e      	movs	r6, r1
100074cc:	4921      	ldr	r1, [pc, #132]	; (10007554 <i2c_init+0xa4>)
100074ce:	6013      	str	r3, [r2, #0]
100074d0:	001c      	movs	r4, r3
100074d2:	688a      	ldr	r2, [r1, #8]
100074d4:	4394      	bics	r4, r2
100074d6:	d1fb      	bne.n	100074d0 <i2c_init+0x20>
100074d8:	2265      	movs	r2, #101	; 0x65
100074da:	2103      	movs	r1, #3
100074dc:	682b      	ldr	r3, [r5, #0]
100074de:	712c      	strb	r4, [r5, #4]
100074e0:	66dc      	str	r4, [r3, #108]	; 0x6c
100074e2:	601a      	str	r2, [r3, #0]
100074e4:	3223      	adds	r2, #35	; 0x23
100074e6:	63dc      	str	r4, [r3, #60]	; 0x3c
100074e8:	2005      	movs	r0, #5
100074ea:	639c      	str	r4, [r3, #56]	; 0x38
100074ec:	5099      	str	r1, [r3, r2]
100074ee:	f7fc fcfb 	bl	10003ee8 <clock_get_hz>
100074f2:	0007      	movs	r7, r0
100074f4:	0870      	lsrs	r0, r6, #1
100074f6:	0031      	movs	r1, r6
100074f8:	19c0      	adds	r0, r0, r7
100074fa:	f7fe fa8d 	bl	10005a18 <__wrap___aeabi_uidiv>
100074fe:	0006      	movs	r6, r0
10007500:	0040      	lsls	r0, r0, #1
10007502:	2105      	movs	r1, #5
10007504:	1980      	adds	r0, r0, r6
10007506:	f7fe fa87 	bl	10005a18 <__wrap___aeabi_uidiv>
1000750a:	2204      	movs	r2, #4
1000750c:	1a33      	subs	r3, r6, r0
1000750e:	469c      	mov	ip, r3
10007510:	682b      	ldr	r3, [r5, #0]
10007512:	66dc      	str	r4, [r3, #108]	; 0x6c
10007514:	6819      	ldr	r1, [r3, #0]
10007516:	404a      	eors	r2, r1
10007518:	2106      	movs	r1, #6
1000751a:	4011      	ands	r1, r2
1000751c:	2280      	movs	r2, #128	; 0x80
1000751e:	0152      	lsls	r2, r2, #5
10007520:	431a      	orrs	r2, r3
10007522:	6011      	str	r1, [r2, #0]
10007524:	4662      	mov	r2, ip
10007526:	4661      	mov	r1, ip
10007528:	61d8      	str	r0, [r3, #28]
1000752a:	621a      	str	r2, [r3, #32]
1000752c:	2201      	movs	r2, #1
1000752e:	290f      	cmp	r1, #15
10007530:	d900      	bls.n	10007534 <i2c_init+0x84>
10007532:	090a      	lsrs	r2, r1, #4
10007534:	21a0      	movs	r1, #160	; 0xa0
10007536:	505a      	str	r2, [r3, r1]
10007538:	2201      	movs	r2, #1
1000753a:	0031      	movs	r1, r6
1000753c:	0038      	movs	r0, r7
1000753e:	66da      	str	r2, [r3, #108]	; 0x6c
10007540:	f7fe fa6a 	bl	10005a18 <__wrap___aeabi_uidiv>
10007544:	bdf8      	pop	{r3, r4, r5, r6, r7, pc}
10007546:	46c0      	nop			; (mov r8, r8)
10007548:	20000280 	.word	0x20000280
1000754c:	4000e000 	.word	0x4000e000
10007550:	4000f000 	.word	0x4000f000
10007554:	4000c000 	.word	0x4000c000

10007558 <i2c_write_blocking>:
10007558:	b5f0      	push	{r4, r5, r6, r7, lr}
1000755a:	4657      	mov	r7, sl
1000755c:	4645      	mov	r5, r8
1000755e:	46de      	mov	lr, fp
10007560:	464e      	mov	r6, r9
10007562:	b5e0      	push	{r5, r6, r7, lr}
10007564:	0005      	movs	r5, r0
10007566:	b083      	sub	sp, #12
10007568:	a80c      	add	r0, sp, #48	; 0x30
1000756a:	7807      	ldrb	r7, [r0, #0]
1000756c:	2000      	movs	r0, #0
1000756e:	682c      	ldr	r4, [r5, #0]
10007570:	66e0      	str	r0, [r4, #108]	; 0x6c
10007572:	6061      	str	r1, [r4, #4]
10007574:	2101      	movs	r1, #1
10007576:	66e1      	str	r1, [r4, #108]	; 0x6c
10007578:	2b00      	cmp	r3, #0
1000757a:	dd38      	ble.n	100075ee <i2c_write_blocking+0x96>
1000757c:	2601      	movs	r6, #1
1000757e:	1e59      	subs	r1, r3, #1
10007580:	407e      	eors	r6, r7
10007582:	4689      	mov	r9, r1
10007584:	0271      	lsls	r1, r6, #9
10007586:	9101      	str	r1, [sp, #4]
10007588:	2180      	movs	r1, #128	; 0x80
1000758a:	4688      	mov	r8, r1
1000758c:	397c      	subs	r1, #124	; 0x7c
1000758e:	468c      	mov	ip, r1
10007590:	2100      	movs	r1, #0
10007592:	2800      	cmp	r0, #0
10007594:	d103      	bne.n	1000759e <i2c_write_blocking+0x46>
10007596:	7929      	ldrb	r1, [r5, #4]
10007598:	1e4e      	subs	r6, r1, #1
1000759a:	41b1      	sbcs	r1, r6
1000759c:	0289      	lsls	r1, r1, #10
1000759e:	2600      	movs	r6, #0
100075a0:	46b2      	mov	sl, r6
100075a2:	4548      	cmp	r0, r9
100075a4:	d01c      	beq.n	100075e0 <i2c_write_blocking+0x88>
100075a6:	5c16      	ldrb	r6, [r2, r0]
100075a8:	4331      	orrs	r1, r6
100075aa:	4656      	mov	r6, sl
100075ac:	4331      	orrs	r1, r6
100075ae:	6121      	str	r1, [r4, #16]
100075b0:	e003      	b.n	100075ba <i2c_write_blocking+0x62>
100075b2:	4666      	mov	r6, ip
100075b4:	6f21      	ldr	r1, [r4, #112]	; 0x70
100075b6:	420e      	tst	r6, r1
100075b8:	d115      	bne.n	100075e6 <i2c_write_blocking+0x8e>
100075ba:	4641      	mov	r1, r8
100075bc:	5861      	ldr	r1, [r4, r1]
100075be:	6d66      	ldr	r6, [r4, #84]	; 0x54
100075c0:	2e00      	cmp	r6, #0
100075c2:	d0f6      	beq.n	100075b2 <i2c_write_blocking+0x5a>
100075c4:	2900      	cmp	r1, #0
100075c6:	d014      	beq.n	100075f2 <i2c_write_blocking+0x9a>
100075c8:	07cb      	lsls	r3, r1, #31
100075ca:	d412      	bmi.n	100075f2 <i2c_write_blocking+0x9a>
100075cc:	070b      	lsls	r3, r1, #28
100075ce:	d510      	bpl.n	100075f2 <i2c_write_blocking+0x9a>
100075d0:	712f      	strb	r7, [r5, #4]
100075d2:	b003      	add	sp, #12
100075d4:	bc3c      	pop	{r2, r3, r4, r5}
100075d6:	4690      	mov	r8, r2
100075d8:	4699      	mov	r9, r3
100075da:	46a2      	mov	sl, r4
100075dc:	46ab      	mov	fp, r5
100075de:	bdf0      	pop	{r4, r5, r6, r7, pc}
100075e0:	9e01      	ldr	r6, [sp, #4]
100075e2:	46b2      	mov	sl, r6
100075e4:	e7df      	b.n	100075a6 <i2c_write_blocking+0x4e>
100075e6:	3001      	adds	r0, #1
100075e8:	4283      	cmp	r3, r0
100075ea:	d1d1      	bne.n	10007590 <i2c_write_blocking+0x38>
100075ec:	e7f0      	b.n	100075d0 <i2c_write_blocking+0x78>
100075ee:	2000      	movs	r0, #0
100075f0:	e7ee      	b.n	100075d0 <i2c_write_blocking+0x78>
100075f2:	2002      	movs	r0, #2
100075f4:	4240      	negs	r0, r0
100075f6:	e7eb      	b.n	100075d0 <i2c_write_blocking+0x78>

100075f8 <rand>:
100075f8:	4b09      	ldr	r3, [pc, #36]	; (10007620 <rand+0x28>)
100075fa:	b510      	push	{r4, lr}
100075fc:	681c      	ldr	r4, [r3, #0]
100075fe:	4a09      	ldr	r2, [pc, #36]	; (10007624 <rand+0x2c>)
10007600:	34a8      	adds	r4, #168	; 0xa8
10007602:	6820      	ldr	r0, [r4, #0]
10007604:	6861      	ldr	r1, [r4, #4]
10007606:	4b08      	ldr	r3, [pc, #32]	; (10007628 <rand+0x30>)
10007608:	f7ff fc5c 	bl	10006ec4 <__wrap___aeabi_lmul>
1000760c:	2201      	movs	r2, #1
1000760e:	2300      	movs	r3, #0
10007610:	1880      	adds	r0, r0, r2
10007612:	4159      	adcs	r1, r3
10007614:	6020      	str	r0, [r4, #0]
10007616:	6061      	str	r1, [r4, #4]
10007618:	0048      	lsls	r0, r1, #1
1000761a:	0840      	lsrs	r0, r0, #1
1000761c:	bd10      	pop	{r4, pc}
1000761e:	46c0      	nop			; (mov r8, r8)
10007620:	20000288 	.word	0x20000288
10007624:	4c957f2d 	.word	0x4c957f2d
10007628:	5851f42d 	.word	0x5851f42d

1000762c <strlen>:
1000762c:	b510      	push	{r4, lr}
1000762e:	0783      	lsls	r3, r0, #30
10007630:	d00a      	beq.n	10007648 <strlen+0x1c>
10007632:	0003      	movs	r3, r0
10007634:	2103      	movs	r1, #3
10007636:	e002      	b.n	1000763e <strlen+0x12>
10007638:	3301      	adds	r3, #1
1000763a:	420b      	tst	r3, r1
1000763c:	d005      	beq.n	1000764a <strlen+0x1e>
1000763e:	781a      	ldrb	r2, [r3, #0]
10007640:	2a00      	cmp	r2, #0
10007642:	d1f9      	bne.n	10007638 <strlen+0xc>
10007644:	1a18      	subs	r0, r3, r0
10007646:	bd10      	pop	{r4, pc}
10007648:	0003      	movs	r3, r0
1000764a:	6819      	ldr	r1, [r3, #0]
1000764c:	4a0c      	ldr	r2, [pc, #48]	; (10007680 <strlen+0x54>)
1000764e:	4c0d      	ldr	r4, [pc, #52]	; (10007684 <strlen+0x58>)
10007650:	188a      	adds	r2, r1, r2
10007652:	438a      	bics	r2, r1
10007654:	4222      	tst	r2, r4
10007656:	d10f      	bne.n	10007678 <strlen+0x4c>
10007658:	6859      	ldr	r1, [r3, #4]
1000765a:	4a09      	ldr	r2, [pc, #36]	; (10007680 <strlen+0x54>)
1000765c:	3304      	adds	r3, #4
1000765e:	188a      	adds	r2, r1, r2
10007660:	438a      	bics	r2, r1
10007662:	4222      	tst	r2, r4
10007664:	d108      	bne.n	10007678 <strlen+0x4c>
10007666:	6859      	ldr	r1, [r3, #4]
10007668:	4a05      	ldr	r2, [pc, #20]	; (10007680 <strlen+0x54>)
1000766a:	3304      	adds	r3, #4
1000766c:	188a      	adds	r2, r1, r2
1000766e:	438a      	bics	r2, r1
10007670:	4222      	tst	r2, r4
10007672:	d0f1      	beq.n	10007658 <strlen+0x2c>
10007674:	e000      	b.n	10007678 <strlen+0x4c>
10007676:	3301      	adds	r3, #1
10007678:	781a      	ldrb	r2, [r3, #0]
1000767a:	2a00      	cmp	r2, #0
1000767c:	d1fb      	bne.n	10007676 <strlen+0x4a>
1000767e:	e7e1      	b.n	10007644 <strlen+0x18>
10007680:	fefefeff 	.word	0xfefefeff
10007684:	80808080 	.word	0x80808080

10007688 <_fini>:
10007688:	b5f8      	push	{r3, r4, r5, r6, r7, lr}
1000768a:	46c0      	nop			; (mov r8, r8)
1000768c:	0000      	movs	r0, r0
	...

10007690 <__mutex_exit_veneer>:
10007690:	b401      	push	{r0}
10007692:	4802      	ldr	r0, [pc, #8]	; (1000769c <__mutex_exit_veneer+0xc>)
10007694:	4684      	mov	ip, r0
10007696:	bc01      	pop	{r0}
10007698:	4760      	bx	ip
1000769a:	bf00      	nop
1000769c:	20000155 	.word	0x20000155

100076a0 <____aeabi_ldiv0_veneer>:
100076a0:	b401      	push	{r0}
100076a2:	4802      	ldr	r0, [pc, #8]	; (100076ac <____aeabi_ldiv0_veneer+0xc>)
100076a4:	4684      	mov	ip, r0
100076a6:	bc01      	pop	{r0}
100076a8:	4760      	bx	ip
100076aa:	bf00      	nop
100076ac:	2000017d 	.word	0x2000017d

100076b0 <____aeabi_idiv0_veneer>:
100076b0:	b401      	push	{r0}
100076b2:	4802      	ldr	r0, [pc, #8]	; (100076bc <____aeabi_idiv0_veneer+0xc>)
100076b4:	4684      	mov	ip, r0
100076b6:	bc01      	pop	{r0}
100076b8:	4760      	bx	ip
100076ba:	bf00      	nop
100076bc:	2000017d 	.word	0x2000017d

100076c0 <__mutex_try_enter_veneer>:
100076c0:	b401      	push	{r0}
100076c2:	4802      	ldr	r0, [pc, #8]	; (100076cc <__mutex_try_enter_veneer+0xc>)
100076c4:	4684      	mov	ip, r0
100076c6:	bc01      	pop	{r0}
100076c8:	4760      	bx	ip
100076ca:	bf00      	nop
100076cc:	2000010d 	.word	0x2000010d

100076d0 <__mutex_enter_blocking_veneer>:
100076d0:	b401      	push	{r0}
100076d2:	4802      	ldr	r0, [pc, #8]	; (100076dc <__mutex_enter_blocking_veneer+0xc>)
100076d4:	4684      	mov	ip, r0
100076d6:	bc01      	pop	{r0}
100076d8:	4760      	bx	ip
100076da:	bf00      	nop
100076dc:	200000c1 	.word	0x200000c1

Disassembly of section .data:

200000c0 <mutex_enter_blocking>:
200000c0:	b510      	push	{r4, lr}
200000c2:	6802      	ldr	r2, [r0, #0]
200000c4:	2400      	movs	r4, #0
200000c6:	f3ef 8110 	mrs	r1, PRIMASK
200000ca:	b672      	cpsid	i
200000cc:	6813      	ldr	r3, [r2, #0]
200000ce:	2b00      	cmp	r3, #0
200000d0:	d0fc      	beq.n	200000cc <mutex_enter_blocking+0xc>
200000d2:	f3bf 8f5f 	dmb	sy
200000d6:	7903      	ldrb	r3, [r0, #4]
200000d8:	2b7f      	cmp	r3, #127	; 0x7f
200000da:	d80b      	bhi.n	200000f4 <mutex_enter_blocking+0x34>
200000dc:	6803      	ldr	r3, [r0, #0]
200000de:	f3bf 8f5f 	dmb	sy
200000e2:	601c      	str	r4, [r3, #0]
200000e4:	f381 8810 	msr	PRIMASK, r1
200000e8:	bf20      	wfe
200000ea:	6802      	ldr	r2, [r0, #0]
200000ec:	f3ef 8110 	mrs	r1, PRIMASK
200000f0:	b672      	cpsid	i
200000f2:	e7eb      	b.n	200000cc <mutex_enter_blocking+0xc>
200000f4:	23d0      	movs	r3, #208	; 0xd0
200000f6:	061b      	lsls	r3, r3, #24
200000f8:	681b      	ldr	r3, [r3, #0]
200000fa:	7103      	strb	r3, [r0, #4]
200000fc:	6803      	ldr	r3, [r0, #0]
200000fe:	f3bf 8f5f 	dmb	sy
20000102:	2200      	movs	r2, #0
20000104:	601a      	str	r2, [r3, #0]
20000106:	f381 8810 	msr	PRIMASK, r1
2000010a:	bd10      	pop	{r4, pc}

2000010c <mutex_try_enter>:
2000010c:	0003      	movs	r3, r0
2000010e:	b510      	push	{r4, lr}
20000110:	6800      	ldr	r0, [r0, #0]
20000112:	f3ef 8410 	mrs	r4, PRIMASK
20000116:	b672      	cpsid	i
20000118:	6802      	ldr	r2, [r0, #0]
2000011a:	2a00      	cmp	r2, #0
2000011c:	d0fc      	beq.n	20000118 <mutex_try_enter+0xc>
2000011e:	f3bf 8f5f 	dmb	sy
20000122:	2204      	movs	r2, #4
20000124:	569a      	ldrsb	r2, [r3, r2]
20000126:	2a00      	cmp	r2, #0
20000128:	db0b      	blt.n	20000142 <mutex_try_enter+0x36>
2000012a:	2900      	cmp	r1, #0
2000012c:	d00f      	beq.n	2000014e <mutex_try_enter+0x42>
2000012e:	2000      	movs	r0, #0
20000130:	600a      	str	r2, [r1, #0]
20000132:	681b      	ldr	r3, [r3, #0]
20000134:	f3bf 8f5f 	dmb	sy
20000138:	2200      	movs	r2, #0
2000013a:	601a      	str	r2, [r3, #0]
2000013c:	f384 8810 	msr	PRIMASK, r4
20000140:	bd10      	pop	{r4, pc}
20000142:	22d0      	movs	r2, #208	; 0xd0
20000144:	0612      	lsls	r2, r2, #24
20000146:	6812      	ldr	r2, [r2, #0]
20000148:	2001      	movs	r0, #1
2000014a:	711a      	strb	r2, [r3, #4]
2000014c:	e7f1      	b.n	20000132 <mutex_try_enter+0x26>
2000014e:	2000      	movs	r0, #0
20000150:	e7ef      	b.n	20000132 <mutex_try_enter+0x26>
20000152:	46c0      	nop			; (mov r8, r8)

20000154 <mutex_exit>:
20000154:	6802      	ldr	r2, [r0, #0]
20000156:	f3ef 8110 	mrs	r1, PRIMASK
2000015a:	b672      	cpsid	i
2000015c:	6813      	ldr	r3, [r2, #0]
2000015e:	2b00      	cmp	r3, #0
20000160:	d0fc      	beq.n	2000015c <mutex_exit+0x8>
20000162:	f3bf 8f5f 	dmb	sy
20000166:	23ff      	movs	r3, #255	; 0xff
20000168:	7103      	strb	r3, [r0, #4]
2000016a:	bf40      	sev
2000016c:	6803      	ldr	r3, [r0, #0]
2000016e:	f3bf 8f5f 	dmb	sy
20000172:	2200      	movs	r2, #0
20000174:	601a      	str	r2, [r3, #0]
20000176:	f381 8810 	msr	PRIMASK, r1
2000017a:	4770      	bx	lr

2000017c <__aeabi_idiv0>:
2000017c:	4770      	bx	lr
2000017e:	46c0      	nop			; (mov r8, r8)

20000180 <SLOWNESS>:
20000180:	0000 0000 0000 3ff0                         .......?

20000188 <anglemult>:
20000188:	999a 9999 9999 3fc9                         .......?

20000190 <buttons>:
20000190:	000e 0000 001c 0000 001b 0000 001a 0000     ................

200001a0 <l>:
200001a0:	0000 0000 0000 4024                         ......$@

200001a8 <l2>:
200001a8:	0000 0000 0000 4014                         .......@

200001b0 <l3>:
200001b0:	0000 0000 0000 4020                         ...... @

200001b8 <level>:
200001b8:	0001 0000                                   ....

200001bc <lives>:
200001bc:	0003 0000                                   ....

200001c0 <mX>:
200001c0:	ffe2 ffff                                   ....

200001c4 <mY>:
200001c4:	0014 0000                                   ....

200001c8 <photonSpeed>:
200001c8:	0000 0000 0000 4010                         .......@

200001d0 <piby2>:
200001d0:	9249 4924 2492 4019                         I.$I.$.@

200001d8 <r>:
200001d8:	6666 6666 6666 3fd6                         ffffff.?

200001e0 <striped_spin_lock_num>:
200001e0:	0010 0000                                   ....

200001e4 <default_alarm_pool>:
200001e4:	01fc 2000 0000 0000 06d8 2000 0840 2000     ... ....... @.. 
	...

200001fc <default_alarm_pool_heap>:
200001fc:	0850 2000 0000 0000 0000 0000 0010 0000     P.. ............

2000020c <irq_handler_chain_slots>:
2000020c:	00000000 	.word	0x00000000
20000210:	00010000 	.word	0x00010000
	...
2000021c:	00020000 	.word	0x00020000
	...
20000228:	00030000 	.word	0x00030000
	...
20000234:	00ff0000 	.word	0x00ff0000
20000238:	00000000 	.word	0x00000000

2000023c <irq_handler_chain_first_slot>:
2000023c:	b500      	push	{lr}
2000023e:	6848      	ldr	r0, [r1, #4]
20000240:	3101      	adds	r1, #1
20000242:	468e      	mov	lr, r1
20000244:	4700      	bx	r0

20000246 <irq_handler_chain_remove_tail>:
20000246:	4670      	mov	r0, lr
20000248:	3809      	subs	r0, #9
2000024a:	4901      	ldr	r1, [pc, #4]	; (20000250 <irq_handler_chain_remove_tail+0xa>)
2000024c:	4788      	blx	r1
2000024e:	bd00      	pop	{pc}
20000250:	100041c1 	.word	0x100041c1
	...

20000260 <aeabi_bits_funcs>:
20000260:	00003350 	.word	0x00003350
20000264:	0000334c 	.word	0x0000334c
20000268:	00003354 	.word	0x00003354
2000026c:	00003352 	.word	0x00003352

20000270 <aeabi_bits_funcs_end>:
20000270:	0000534d 	.word	0x0000534d
20000274:	0000434d 	.word	0x0000434d
20000278:	00003453 	.word	0x00003453
2000027c:	00003443 	.word	0x00003443

20000280 <i2c0_inst>:
20000280:	40044000 00000000                       .@.@....

20000288 <_impure_ptr>:
20000288:	20000290 00000000                       ... ....

20000290 <impure_data>:
20000290:	00000000 2000057c 200005e4 2000064c     ....|.. ... L.. 
	...
20000338:	00000001 00000000 abcd330e e66d1234     .........3..4.m.
20000348:	0005deec 0000000b 00000000 00000000     ................
	...

200006b8 <print_mutex>:
	...

200006c0 <__mutex_array_end>:
200006c0:	10007135 	.word	0x10007135
200006c4:	10005955 	.word	0x10005955
200006c8:	100060fd 	.word	0x100060fd
200006cc:	1000705d 	.word	0x1000705d

200006d0 <__frame_dummy_init_array_entry>:
200006d0:	100002ed                                ....
